

Microchip MPLAB XC8 Assembler V2.41 build 20230208172133 
                                                                                               Mon Jul 17 13:04:04 2023

Microchip MPLAB XC8 C Compiler v2.41 (Free license) build 20230208172133 Og1 
     1                           	processor	16F18877
     2                           	pagewidth 120
     3                           	opt	flic
     4                           	psect	stringtext1,global,class=STRCODE,delta=2,noexec
     5                           	psect	stringtext2,global,class=STRCODE,delta=2,noexec
     6                           	psect	stringtext3,global,class=STRCODE,delta=2,noexec
     7                           	psect	stringtext4,global,class=STRCODE,delta=2,noexec
     8                           	psect	stringtext5,global,class=STRCODE,delta=2,noexec
     9                           	psect	stringtext6,global,class=STRCODE,delta=2,noexec
    10                           	psect	cinit,global,class=CODE,merge=1,delta=2
    11                           	psect	bssBANK0,global,class=BANK0,space=1,delta=1,noexec
    12                           	psect	bssBANK1,global,class=BANK1,space=1,delta=1,noexec
    13                           	psect	bssBANK2,global,class=BANK2,space=1,delta=1,noexec
    14                           	psect	clrtext,global,class=CODE,delta=2
    15                           	psect	cstackBANK1,global,class=BANK1,space=1,delta=1,noexec
    16                           	psect	cstackCOMMON,global,class=COMMON,space=1,delta=1,noexec
    17                           	psect	cstackBANK0,global,class=BANK0,space=1,delta=1,noexec
    18                           	psect	maintext,global,class=CODE,merge=1,split=1,delta=2
    19                           	psect	text1,local,class=CODE,merge=1,delta=2
    20                           	psect	text2,local,class=CODE,merge=1,delta=2
    21                           	psect	text3,local,class=CODE,merge=1,delta=2
    22                           	psect	text4,local,class=CODE,merge=1,delta=2
    23                           	psect	text5,local,class=CODE,merge=1,delta=2
    24                           	psect	text6,local,class=CODE,merge=1,delta=2,group=3
    25                           	psect	text7,local,class=CODE,merge=1,delta=2,group=1
    26                           	psect	text8,local,class=CODE,merge=1,delta=2,group=1
    27                           	psect	text9,local,class=CODE,merge=1,delta=2,group=1
    28                           	psect	text10,local,class=CODE,merge=1,delta=2,group=2
    29                           	psect	text11,local,class=CODE,merge=1,delta=2,group=2
    30                           	psect	text12,local,class=CODE,merge=1,delta=2,group=1
    31                           	psect	text13,local,class=CODE,merge=1,delta=2,group=2
    32                           	psect	text14,local,class=CODE,merge=1,delta=2,group=1
    33                           	psect	text15,local,class=CODE,merge=1,delta=2,group=3
    34                           	psect	text16,local,class=CODE,merge=1,delta=2,group=1
    35                           	psect	text17,local,class=CODE,merge=1,delta=2,group=3
    36                           	psect	text18,local,class=CODE,merge=1,delta=2,group=3
    37                           	psect	text19,local,class=CODE,merge=1,delta=2,group=3
    38                           	psect	text20,local,class=CODE,merge=1,delta=2,group=3
    39                           	psect	text21,local,class=CODE,merge=1,delta=2,group=3
    40                           	psect	text22,local,class=CODE,merge=1,delta=2,group=3
    41                           	psect	text23,local,class=CODE,merge=1,delta=2,group=3
    42                           	psect	text24,local,class=CODE,merge=1,delta=2,group=2
    43                           	psect	text25,local,class=CODE,merge=1,delta=2,group=2
    44                           	psect	text26,local,class=CODE,merge=1,delta=2,group=2
    45                           	psect	text27,local,class=CODE,merge=1,delta=2,group=2
    46                           	psect	text28,local,class=CODE,merge=1,delta=2,group=2
    47                           	psect	text29,local,class=CODE,merge=1,delta=2,group=2
    48                           	psect	text30,local,class=CODE,merge=1,delta=2,group=2
    49                           	psect	text31,local,class=CODE,merge=1,delta=2,group=2
    50                           	psect	text32,local,class=CODE,merge=1,delta=2,group=2
    51                           	psect	text33,local,class=CODE,merge=1,delta=2
    52                           	psect	text34,local,class=CODE,merge=1,delta=2
    53                           	psect	text35,local,class=CODE,merge=1,delta=2
    54                           	psect	config,global,abs,ovrld,class=CONFIG,space=4,delta=2,noexec
    55                           	dabs	1,0x7E,2
    56     0000                     
    57                           ; Generated 09/02/2023 GMT
    58                           ; 
    59                           ; Copyright © 2023, Microchip Technology Inc. and its subsidiaries ("Microchip")
    60                           ; All rights reserved.
    61                           ; 
    62                           ; This software is developed by Microchip Technology Inc. and its subsidiaries ("Microch
      +                          ip").
    63                           ; 
    64                           ; Redistribution and use in source and binary forms, with or without modification, are
    65                           ; permitted provided that the following conditions are met:
    66                           ; 
    67                           ;     1. Redistributions of source code must retain the above copyright notice, this lis
      +                          t of
    68                           ;        conditions and the following disclaimer.
    69                           ; 
    70                           ;     2. Redistributions in binary form must reproduce the above copyright notice, this 
      +                          list
    71                           ;        of conditions and the following disclaimer in the documentation and/or other
    72                           ;        materials provided with the distribution. Publication is not required when
    73                           ;        this file is used in an embedded application.
    74                           ; 
    75                           ;     3. Microchip's name may not be used to endorse or promote products derived from th
      +                          is
    76                           ;        software without specific prior written permission.
    77                           ; 
    78                           ; THIS SOFTWARE IS PROVIDED BY MICROCHIP "AS IS" AND ANY EXPRESS OR IMPLIED WARRANTIES,
    79                           ; INCLUDING, BUT NOT LIMITED TO, THE IMPLIED WARRANTIES OF MERCHANTABILITY AND FITNESS F
      +                          OR
    80                           ; PURPOSE ARE DISCLAIMED.  IN NO EVENT SHALL MICROCHIP BE LIABLE FOR ANY DIRECT, INDIREC
      +                          T,
    81                           ; INCIDENTAL, SPECIAL, EXEMPLARY, OR CONSEQUENTIAL DAMAGES (INCLUDING BUT NOT LIMITED TO
    82                           ; PROCUREMENT OF SUBSTITUTE GOODS OR SERVICES; LOSS OF USE, DATA OR PROFITS; OR BUSINESS
    83                           ; INTERRUPTION) HOWSOEVER CAUSED AND ON ANY THEORY OF LIABILITY, WHETHER IN CONTRACT, ST
      +                          RICT
    84                           ; LIABILITY, OR TORT (INCLUDING NEGLIGENCE OR OTHERWISE) ARISING IN ANY WAY OUT OF THE U
      +                          SE OF
    85                           ; THIS SOFTWARE, EVEN IF ADVISED OF THE POSSIBILITY OF SUCH DAMAGE.
    86                           ; 
    87                           ; 
    88                           ; Code-generator required, PIC16F18877 Definitions
    89                           ; 
    90                           ; SFR Addresses
    91     0000                     	;# 
    92     0001                     	;# 
    93     0002                     	;# 
    94     0003                     	;# 
    95     0004                     	;# 
    96     0005                     	;# 
    97     0006                     	;# 
    98     0007                     	;# 
    99     0008                     	;# 
   100     0009                     	;# 
   101     000A                     	;# 
   102     000B                     	;# 
   103     000C                     	;# 
   104     000D                     	;# 
   105     000E                     	;# 
   106     000F                     	;# 
   107     0010                     	;# 
   108     0011                     	;# 
   109     0012                     	;# 
   110     0013                     	;# 
   111     0014                     	;# 
   112     0015                     	;# 
   113     0016                     	;# 
   114     0017                     	;# 
   115     0018                     	;# 
   116     0019                     	;# 
   117     001A                     	;# 
   118     001C                     	;# 
   119     001C                     	;# 
   120     001D                     	;# 
   121     001D                     	;# 
   122     001E                     	;# 
   123     001F                     	;# 
   124     008C                     	;# 
   125     008C                     	;# 
   126     008D                     	;# 
   127     008E                     	;# 
   128     008E                     	;# 
   129     008F                     	;# 
   130     0090                     	;# 
   131     0090                     	;# 
   132     0091                     	;# 
   133     0093                     	;# 
   134     0094                     	;# 
   135     0095                     	;# 
   136     0096                     	;# 
   137     0097                     	;# 
   138     0098                     	;# 
   139     0099                     	;# 
   140     009A                     	;# 
   141     009B                     	;# 
   142     009C                     	;# 
   143     009D                     	;# 
   144     009E                     	;# 
   145     010C                     	;# 
   146     010D                     	;# 
   147     010E                     	;# 
   148     010E                     	;# 
   149     010F                     	;# 
   150     0110                     	;# 
   151     0110                     	;# 
   152     0111                     	;# 
   153     0112                     	;# 
   154     0112                     	;# 
   155     0113                     	;# 
   156     0114                     	;# 
   157     0114                     	;# 
   158     0115                     	;# 
   159     0116                     	;# 
   160     0116                     	;# 
   161     0117                     	;# 
   162     0119                     	;# 
   163     0119                     	;# 
   164     0119                     	;# 
   165     011A                     	;# 
   166     011A                     	;# 
   167     011A                     	;# 
   168     011B                     	;# 
   169     011B                     	;# 
   170     011B                     	;# 
   171     011B                     	;# 
   172     011B                     	;# 
   173     011C                     	;# 
   174     011C                     	;# 
   175     011C                     	;# 
   176     011D                     	;# 
   177     011D                     	;# 
   178     011D                     	;# 
   179     011E                     	;# 
   180     011E                     	;# 
   181     011E                     	;# 
   182     011F                     	;# 
   183     011F                     	;# 
   184     011F                     	;# 
   185     011F                     	;# 
   186     011F                     	;# 
   187     018C                     	;# 
   188     018D                     	;# 
   189     018E                     	;# 
   190     018F                     	;# 
   191     0190                     	;# 
   192     0191                     	;# 
   193     0192                     	;# 
   194     0196                     	;# 
   195     0197                     	;# 
   196     0198                     	;# 
   197     0199                     	;# 
   198     019A                     	;# 
   199     019B                     	;# 
   200     019C                     	;# 
   201     020C                     	;# 
   202     020C                     	;# 
   203     020D                     	;# 
   204     020E                     	;# 
   205     020F                     	;# 
   206     020F                     	;# 
   207     0210                     	;# 
   208     0210                     	;# 
   209     0211                     	;# 
   210     0211                     	;# 
   211     0212                     	;# 
   212     0212                     	;# 
   213     0213                     	;# 
   214     0214                     	;# 
   215     0215                     	;# 
   216     0215                     	;# 
   217     0216                     	;# 
   218     0216                     	;# 
   219     0217                     	;# 
   220     0217                     	;# 
   221     0218                     	;# 
   222     0218                     	;# 
   223     0219                     	;# 
   224     021A                     	;# 
   225     021B                     	;# 
   226     021B                     	;# 
   227     021C                     	;# 
   228     021C                     	;# 
   229     021D                     	;# 
   230     021D                     	;# 
   231     021E                     	;# 
   232     021F                     	;# 
   233     028C                     	;# 
   234     028C                     	;# 
   235     028D                     	;# 
   236     028D                     	;# 
   237     028E                     	;# 
   238     028F                     	;# 
   239     0290                     	;# 
   240     0290                     	;# 
   241     0291                     	;# 
   242     0292                     	;# 
   243     0292                     	;# 
   244     0293                     	;# 
   245     0293                     	;# 
   246     0294                     	;# 
   247     0295                     	;# 
   248     0296                     	;# 
   249     0296                     	;# 
   250     0297                     	;# 
   251     0298                     	;# 
   252     0298                     	;# 
   253     0299                     	;# 
   254     0299                     	;# 
   255     029A                     	;# 
   256     029B                     	;# 
   257     029C                     	;# 
   258     029C                     	;# 
   259     029D                     	;# 
   260     030C                     	;# 
   261     030C                     	;# 
   262     030D                     	;# 
   263     030E                     	;# 
   264     030F                     	;# 
   265     0310                     	;# 
   266     0310                     	;# 
   267     0311                     	;# 
   268     0312                     	;# 
   269     0313                     	;# 
   270     0314                     	;# 
   271     0314                     	;# 
   272     0315                     	;# 
   273     0316                     	;# 
   274     0317                     	;# 
   275     0318                     	;# 
   276     0318                     	;# 
   277     0319                     	;# 
   278     031A                     	;# 
   279     031B                     	;# 
   280     031C                     	;# 
   281     031C                     	;# 
   282     031D                     	;# 
   283     031E                     	;# 
   284     031F                     	;# 
   285     038C                     	;# 
   286     038C                     	;# 
   287     038D                     	;# 
   288     038E                     	;# 
   289     0390                     	;# 
   290     0390                     	;# 
   291     0391                     	;# 
   292     0392                     	;# 
   293     040C                     	;# 
   294     040D                     	;# 
   295     040E                     	;# 
   296     040F                     	;# 
   297     0410                     	;# 
   298     0411                     	;# 
   299     0416                     	;# 
   300     0416                     	;# 
   301     0417                     	;# 
   302     0418                     	;# 
   303     0418                     	;# 
   304     0419                     	;# 
   305     041A                     	;# 
   306     041A                     	;# 
   307     041B                     	;# 
   308     041C                     	;# 
   309     041C                     	;# 
   310     041D                     	;# 
   311     041E                     	;# 
   312     041F                     	;# 
   313     048C                     	;# 
   314     048C                     	;# 
   315     048D                     	;# 
   316     048E                     	;# 
   317     048F                     	;# 
   318     048F                     	;# 
   319     0490                     	;# 
   320     0491                     	;# 
   321     0492                     	;# 
   322     0492                     	;# 
   323     0493                     	;# 
   324     0494                     	;# 
   325     0495                     	;# 
   326     0495                     	;# 
   327     0496                     	;# 
   328     0497                     	;# 
   329     0498                     	;# 
   330     0499                     	;# 
   331     049A                     	;# 
   332     049B                     	;# 
   333     049C                     	;# 
   334     049D                     	;# 
   335     050C                     	;# 
   336     050C                     	;# 
   337     050D                     	;# 
   338     050E                     	;# 
   339     050F                     	;# 
   340     050F                     	;# 
   341     0510                     	;# 
   342     0511                     	;# 
   343     0512                     	;# 
   344     0512                     	;# 
   345     0513                     	;# 
   346     0514                     	;# 
   347     0515                     	;# 
   348     0515                     	;# 
   349     0516                     	;# 
   350     0517                     	;# 
   351     0518                     	;# 
   352     0519                     	;# 
   353     051A                     	;# 
   354     051B                     	;# 
   355     051C                     	;# 
   356     051D                     	;# 
   357     058C                     	;# 
   358     058C                     	;# 
   359     058D                     	;# 
   360     058E                     	;# 
   361     058F                     	;# 
   362     058F                     	;# 
   363     0590                     	;# 
   364     0591                     	;# 
   365     0592                     	;# 
   366     0593                     	;# 
   367     060C                     	;# 
   368     060D                     	;# 
   369     060E                     	;# 
   370     060F                     	;# 
   371     0610                     	;# 
   372     0611                     	;# 
   373     0612                     	;# 
   374     0613                     	;# 
   375     0614                     	;# 
   376     0616                     	;# 
   377     0617                     	;# 
   378     0618                     	;# 
   379     0619                     	;# 
   380     061A                     	;# 
   381     061B                     	;# 
   382     061C                     	;# 
   383     061D                     	;# 
   384     061E                     	;# 
   385     068C                     	;# 
   386     068D                     	;# 
   387     068E                     	;# 
   388     068F                     	;# 
   389     0690                     	;# 
   390     0691                     	;# 
   391     0692                     	;# 
   392     0693                     	;# 
   393     0694                     	;# 
   394     070C                     	;# 
   395     070D                     	;# 
   396     070E                     	;# 
   397     070F                     	;# 
   398     0710                     	;# 
   399     0711                     	;# 
   400     0712                     	;# 
   401     0713                     	;# 
   402     0714                     	;# 
   403     0716                     	;# 
   404     0717                     	;# 
   405     0718                     	;# 
   406     0719                     	;# 
   407     071A                     	;# 
   408     071B                     	;# 
   409     071C                     	;# 
   410     071D                     	;# 
   411     071E                     	;# 
   412     0796                     	;# 
   413     0797                     	;# 
   414     0798                     	;# 
   415     0799                     	;# 
   416     079A                     	;# 
   417     079B                     	;# 
   418     080C                     	;# 
   419     080D                     	;# 
   420     080E                     	;# 
   421     080F                     	;# 
   422     0810                     	;# 
   423     0811                     	;# 
   424     0812                     	;# 
   425     0813                     	;# 
   426     0814                     	;# 
   427     081A                     	;# 
   428     081B                     	;# 
   429     081C                     	;# 
   430     081D                     	;# 
   431     081E                     	;# 
   432     081F                     	;# 
   433     088C                     	;# 
   434     088D                     	;# 
   435     088E                     	;# 
   436     088F                     	;# 
   437     0890                     	;# 
   438     0891                     	;# 
   439     0892                     	;# 
   440     0893                     	;# 
   441     0895                     	;# 
   442     0896                     	;# 
   443     0897                     	;# 
   444     0898                     	;# 
   445     0899                     	;# 
   446     089A                     	;# 
   447     089B                     	;# 
   448     090C                     	;# 
   449     090E                     	;# 
   450     090F                     	;# 
   451     091F                     	;# 
   452     098F                     	;# 
   453     098F                     	;# 
   454     0990                     	;# 
   455     0991                     	;# 
   456     0992                     	;# 
   457     0993                     	;# 
   458     0994                     	;# 
   459     0995                     	;# 
   460     0996                     	;# 
   461     0997                     	;# 
   462     1E0F                     	;# 
   463     1E10                     	;# 
   464     1E11                     	;# 
   465     1E12                     	;# 
   466     1E13                     	;# 
   467     1E14                     	;# 
   468     1E15                     	;# 
   469     1E16                     	;# 
   470     1E17                     	;# 
   471     1E18                     	;# 
   472     1E19                     	;# 
   473     1E1A                     	;# 
   474     1E1B                     	;# 
   475     1E1C                     	;# 
   476     1E1D                     	;# 
   477     1E1E                     	;# 
   478     1E1F                     	;# 
   479     1E20                     	;# 
   480     1E21                     	;# 
   481     1E22                     	;# 
   482     1E23                     	;# 
   483     1E24                     	;# 
   484     1E25                     	;# 
   485     1E26                     	;# 
   486     1E27                     	;# 
   487     1E28                     	;# 
   488     1E29                     	;# 
   489     1E2A                     	;# 
   490     1E2B                     	;# 
   491     1E2C                     	;# 
   492     1E2D                     	;# 
   493     1E2E                     	;# 
   494     1E2F                     	;# 
   495     1E30                     	;# 
   496     1E31                     	;# 
   497     1E32                     	;# 
   498     1E33                     	;# 
   499     1E34                     	;# 
   500     1E35                     	;# 
   501     1E36                     	;# 
   502     1E37                     	;# 
   503     1E8F                     	;# 
   504     1E90                     	;# 
   505     1E91                     	;# 
   506     1E92                     	;# 
   507     1E93                     	;# 
   508     1E94                     	;# 
   509     1E95                     	;# 
   510     1E96                     	;# 
   511     1E97                     	;# 
   512     1E9C                     	;# 
   513     1E9D                     	;# 
   514     1E9E                     	;# 
   515     1EA1                     	;# 
   516     1EA2                     	;# 
   517     1EA3                     	;# 
   518     1EA4                     	;# 
   519     1EA5                     	;# 
   520     1EA9                     	;# 
   521     1EAA                     	;# 
   522     1EAB                     	;# 
   523     1EAC                     	;# 
   524     1EB1                     	;# 
   525     1EB2                     	;# 
   526     1EB3                     	;# 
   527     1EB8                     	;# 
   528     1EB9                     	;# 
   529     1EBA                     	;# 
   530     1EBB                     	;# 
   531     1EBC                     	;# 
   532     1EBD                     	;# 
   533     1EBE                     	;# 
   534     1EC3                     	;# 
   535     1EC5                     	;# 
   536     1EC6                     	;# 
   537     1EC7                     	;# 
   538     1EC8                     	;# 
   539     1EC9                     	;# 
   540     1ECA                     	;# 
   541     1ECB                     	;# 
   542     1ECC                     	;# 
   543     1F10                     	;# 
   544     1F11                     	;# 
   545     1F12                     	;# 
   546     1F13                     	;# 
   547     1F14                     	;# 
   548     1F15                     	;# 
   549     1F16                     	;# 
   550     1F17                     	;# 
   551     1F18                     	;# 
   552     1F19                     	;# 
   553     1F1A                     	;# 
   554     1F1B                     	;# 
   555     1F1C                     	;# 
   556     1F1D                     	;# 
   557     1F1E                     	;# 
   558     1F1F                     	;# 
   559     1F20                     	;# 
   560     1F21                     	;# 
   561     1F22                     	;# 
   562     1F23                     	;# 
   563     1F24                     	;# 
   564     1F25                     	;# 
   565     1F26                     	;# 
   566     1F27                     	;# 
   567     1F28                     	;# 
   568     1F29                     	;# 
   569     1F2A                     	;# 
   570     1F2B                     	;# 
   571     1F2C                     	;# 
   572     1F2D                     	;# 
   573     1F2E                     	;# 
   574     1F2F                     	;# 
   575     1F30                     	;# 
   576     1F31                     	;# 
   577     1F32                     	;# 
   578     1F38                     	;# 
   579     1F39                     	;# 
   580     1F3A                     	;# 
   581     1F3B                     	;# 
   582     1F3C                     	;# 
   583     1F3D                     	;# 
   584     1F3E                     	;# 
   585     1F3F                     	;# 
   586     1F40                     	;# 
   587     1F41                     	;# 
   588     1F43                     	;# 
   589     1F44                     	;# 
   590     1F45                     	;# 
   591     1F46                     	;# 
   592     1F47                     	;# 
   593     1F48                     	;# 
   594     1F49                     	;# 
   595     1F4A                     	;# 
   596     1F4B                     	;# 
   597     1F4C                     	;# 
   598     1F4E                     	;# 
   599     1F4F                     	;# 
   600     1F50                     	;# 
   601     1F51                     	;# 
   602     1F52                     	;# 
   603     1F53                     	;# 
   604     1F54                     	;# 
   605     1F55                     	;# 
   606     1F56                     	;# 
   607     1F57                     	;# 
   608     1F59                     	;# 
   609     1F5A                     	;# 
   610     1F5B                     	;# 
   611     1F5C                     	;# 
   612     1F5D                     	;# 
   613     1F61                     	;# 
   614     1F62                     	;# 
   615     1F64                     	;# 
   616     1F65                     	;# 
   617     1F66                     	;# 
   618     1F67                     	;# 
   619     1F68                     	;# 
   620     1F69                     	;# 
   621     1F6A                     	;# 
   622     1F6B                     	;# 
   623     1F6C                     	;# 
   624     1F6D                     	;# 
   625     1FE4                     	;# 
   626     1FE5                     	;# 
   627     1FE6                     	;# 
   628     1FE7                     	;# 
   629     1FE8                     	;# 
   630     1FE9                     	;# 
   631     1FEA                     	;# 
   632     1FEB                     	;# 
   633     1FED                     	;# 
   634     1FEE                     	;# 
   635     1FEF                     	;# 
   636     0000                     	;# 
   637     0001                     	;# 
   638     0002                     	;# 
   639     0003                     	;# 
   640     0004                     	;# 
   641     0005                     	;# 
   642     0006                     	;# 
   643     0007                     	;# 
   644     0008                     	;# 
   645     0009                     	;# 
   646     000A                     	;# 
   647     000B                     	;# 
   648     000C                     	;# 
   649     000D                     	;# 
   650     000E                     	;# 
   651     000F                     	;# 
   652     0010                     	;# 
   653     0011                     	;# 
   654     0012                     	;# 
   655     0013                     	;# 
   656     0014                     	;# 
   657     0015                     	;# 
   658     0016                     	;# 
   659     0017                     	;# 
   660     0018                     	;# 
   661     0019                     	;# 
   662     001A                     	;# 
   663     001C                     	;# 
   664     001C                     	;# 
   665     001D                     	;# 
   666     001D                     	;# 
   667     001E                     	;# 
   668     001F                     	;# 
   669     008C                     	;# 
   670     008C                     	;# 
   671     008D                     	;# 
   672     008E                     	;# 
   673     008E                     	;# 
   674     008F                     	;# 
   675     0090                     	;# 
   676     0090                     	;# 
   677     0091                     	;# 
   678     0093                     	;# 
   679     0094                     	;# 
   680     0095                     	;# 
   681     0096                     	;# 
   682     0097                     	;# 
   683     0098                     	;# 
   684     0099                     	;# 
   685     009A                     	;# 
   686     009B                     	;# 
   687     009C                     	;# 
   688     009D                     	;# 
   689     009E                     	;# 
   690     010C                     	;# 
   691     010D                     	;# 
   692     010E                     	;# 
   693     010E                     	;# 
   694     010F                     	;# 
   695     0110                     	;# 
   696     0110                     	;# 
   697     0111                     	;# 
   698     0112                     	;# 
   699     0112                     	;# 
   700     0113                     	;# 
   701     0114                     	;# 
   702     0114                     	;# 
   703     0115                     	;# 
   704     0116                     	;# 
   705     0116                     	;# 
   706     0117                     	;# 
   707     0119                     	;# 
   708     0119                     	;# 
   709     0119                     	;# 
   710     011A                     	;# 
   711     011A                     	;# 
   712     011A                     	;# 
   713     011B                     	;# 
   714     011B                     	;# 
   715     011B                     	;# 
   716     011B                     	;# 
   717     011B                     	;# 
   718     011C                     	;# 
   719     011C                     	;# 
   720     011C                     	;# 
   721     011D                     	;# 
   722     011D                     	;# 
   723     011D                     	;# 
   724     011E                     	;# 
   725     011E                     	;# 
   726     011E                     	;# 
   727     011F                     	;# 
   728     011F                     	;# 
   729     011F                     	;# 
   730     011F                     	;# 
   731     011F                     	;# 
   732     018C                     	;# 
   733     018D                     	;# 
   734     018E                     	;# 
   735     018F                     	;# 
   736     0190                     	;# 
   737     0191                     	;# 
   738     0192                     	;# 
   739     0196                     	;# 
   740     0197                     	;# 
   741     0198                     	;# 
   742     0199                     	;# 
   743     019A                     	;# 
   744     019B                     	;# 
   745     019C                     	;# 
   746     020C                     	;# 
   747     020C                     	;# 
   748     020D                     	;# 
   749     020E                     	;# 
   750     020F                     	;# 
   751     020F                     	;# 
   752     0210                     	;# 
   753     0210                     	;# 
   754     0211                     	;# 
   755     0211                     	;# 
   756     0212                     	;# 
   757     0212                     	;# 
   758     0213                     	;# 
   759     0214                     	;# 
   760     0215                     	;# 
   761     0215                     	;# 
   762     0216                     	;# 
   763     0216                     	;# 
   764     0217                     	;# 
   765     0217                     	;# 
   766     0218                     	;# 
   767     0218                     	;# 
   768     0219                     	;# 
   769     021A                     	;# 
   770     021B                     	;# 
   771     021B                     	;# 
   772     021C                     	;# 
   773     021C                     	;# 
   774     021D                     	;# 
   775     021D                     	;# 
   776     021E                     	;# 
   777     021F                     	;# 
   778     028C                     	;# 
   779     028C                     	;# 
   780     028D                     	;# 
   781     028D                     	;# 
   782     028E                     	;# 
   783     028F                     	;# 
   784     0290                     	;# 
   785     0290                     	;# 
   786     0291                     	;# 
   787     0292                     	;# 
   788     0292                     	;# 
   789     0293                     	;# 
   790     0293                     	;# 
   791     0294                     	;# 
   792     0295                     	;# 
   793     0296                     	;# 
   794     0296                     	;# 
   795     0297                     	;# 
   796     0298                     	;# 
   797     0298                     	;# 
   798     0299                     	;# 
   799     0299                     	;# 
   800     029A                     	;# 
   801     029B                     	;# 
   802     029C                     	;# 
   803     029C                     	;# 
   804     029D                     	;# 
   805     030C                     	;# 
   806     030C                     	;# 
   807     030D                     	;# 
   808     030E                     	;# 
   809     030F                     	;# 
   810     0310                     	;# 
   811     0310                     	;# 
   812     0311                     	;# 
   813     0312                     	;# 
   814     0313                     	;# 
   815     0314                     	;# 
   816     0314                     	;# 
   817     0315                     	;# 
   818     0316                     	;# 
   819     0317                     	;# 
   820     0318                     	;# 
   821     0318                     	;# 
   822     0319                     	;# 
   823     031A                     	;# 
   824     031B                     	;# 
   825     031C                     	;# 
   826     031C                     	;# 
   827     031D                     	;# 
   828     031E                     	;# 
   829     031F                     	;# 
   830     038C                     	;# 
   831     038C                     	;# 
   832     038D                     	;# 
   833     038E                     	;# 
   834     0390                     	;# 
   835     0390                     	;# 
   836     0391                     	;# 
   837     0392                     	;# 
   838     040C                     	;# 
   839     040D                     	;# 
   840     040E                     	;# 
   841     040F                     	;# 
   842     0410                     	;# 
   843     0411                     	;# 
   844     0416                     	;# 
   845     0416                     	;# 
   846     0417                     	;# 
   847     0418                     	;# 
   848     0418                     	;# 
   849     0419                     	;# 
   850     041A                     	;# 
   851     041A                     	;# 
   852     041B                     	;# 
   853     041C                     	;# 
   854     041C                     	;# 
   855     041D                     	;# 
   856     041E                     	;# 
   857     041F                     	;# 
   858     048C                     	;# 
   859     048C                     	;# 
   860     048D                     	;# 
   861     048E                     	;# 
   862     048F                     	;# 
   863     048F                     	;# 
   864     0490                     	;# 
   865     0491                     	;# 
   866     0492                     	;# 
   867     0492                     	;# 
   868     0493                     	;# 
   869     0494                     	;# 
   870     0495                     	;# 
   871     0495                     	;# 
   872     0496                     	;# 
   873     0497                     	;# 
   874     0498                     	;# 
   875     0499                     	;# 
   876     049A                     	;# 
   877     049B                     	;# 
   878     049C                     	;# 
   879     049D                     	;# 
   880     050C                     	;# 
   881     050C                     	;# 
   882     050D                     	;# 
   883     050E                     	;# 
   884     050F                     	;# 
   885     050F                     	;# 
   886     0510                     	;# 
   887     0511                     	;# 
   888     0512                     	;# 
   889     0512                     	;# 
   890     0513                     	;# 
   891     0514                     	;# 
   892     0515                     	;# 
   893     0515                     	;# 
   894     0516                     	;# 
   895     0517                     	;# 
   896     0518                     	;# 
   897     0519                     	;# 
   898     051A                     	;# 
   899     051B                     	;# 
   900     051C                     	;# 
   901     051D                     	;# 
   902     058C                     	;# 
   903     058C                     	;# 
   904     058D                     	;# 
   905     058E                     	;# 
   906     058F                     	;# 
   907     058F                     	;# 
   908     0590                     	;# 
   909     0591                     	;# 
   910     0592                     	;# 
   911     0593                     	;# 
   912     060C                     	;# 
   913     060D                     	;# 
   914     060E                     	;# 
   915     060F                     	;# 
   916     0610                     	;# 
   917     0611                     	;# 
   918     0612                     	;# 
   919     0613                     	;# 
   920     0614                     	;# 
   921     0616                     	;# 
   922     0617                     	;# 
   923     0618                     	;# 
   924     0619                     	;# 
   925     061A                     	;# 
   926     061B                     	;# 
   927     061C                     	;# 
   928     061D                     	;# 
   929     061E                     	;# 
   930     068C                     	;# 
   931     068D                     	;# 
   932     068E                     	;# 
   933     068F                     	;# 
   934     0690                     	;# 
   935     0691                     	;# 
   936     0692                     	;# 
   937     0693                     	;# 
   938     0694                     	;# 
   939     070C                     	;# 
   940     070D                     	;# 
   941     070E                     	;# 
   942     070F                     	;# 
   943     0710                     	;# 
   944     0711                     	;# 
   945     0712                     	;# 
   946     0713                     	;# 
   947     0714                     	;# 
   948     0716                     	;# 
   949     0717                     	;# 
   950     0718                     	;# 
   951     0719                     	;# 
   952     071A                     	;# 
   953     071B                     	;# 
   954     071C                     	;# 
   955     071D                     	;# 
   956     071E                     	;# 
   957     0796                     	;# 
   958     0797                     	;# 
   959     0798                     	;# 
   960     0799                     	;# 
   961     079A                     	;# 
   962     079B                     	;# 
   963     080C                     	;# 
   964     080D                     	;# 
   965     080E                     	;# 
   966     080F                     	;# 
   967     0810                     	;# 
   968     0811                     	;# 
   969     0812                     	;# 
   970     0813                     	;# 
   971     0814                     	;# 
   972     081A                     	;# 
   973     081B                     	;# 
   974     081C                     	;# 
   975     081D                     	;# 
   976     081E                     	;# 
   977     081F                     	;# 
   978     088C                     	;# 
   979     088D                     	;# 
   980     088E                     	;# 
   981     088F                     	;# 
   982     0890                     	;# 
   983     0891                     	;# 
   984     0892                     	;# 
   985     0893                     	;# 
   986     0895                     	;# 
   987     0896                     	;# 
   988     0897                     	;# 
   989     0898                     	;# 
   990     0899                     	;# 
   991     089A                     	;# 
   992     089B                     	;# 
   993     090C                     	;# 
   994     090E                     	;# 
   995     090F                     	;# 
   996     091F                     	;# 
   997     098F                     	;# 
   998     098F                     	;# 
   999     0990                     	;# 
  1000     0991                     	;# 
  1001     0992                     	;# 
  1002     0993                     	;# 
  1003     0994                     	;# 
  1004     0995                     	;# 
  1005     0996                     	;# 
  1006     0997                     	;# 
  1007     1E0F                     	;# 
  1008     1E10                     	;# 
  1009     1E11                     	;# 
  1010     1E12                     	;# 
  1011     1E13                     	;# 
  1012     1E14                     	;# 
  1013     1E15                     	;# 
  1014     1E16                     	;# 
  1015     1E17                     	;# 
  1016     1E18                     	;# 
  1017     1E19                     	;# 
  1018     1E1A                     	;# 
  1019     1E1B                     	;# 
  1020     1E1C                     	;# 
  1021     1E1D                     	;# 
  1022     1E1E                     	;# 
  1023     1E1F                     	;# 
  1024     1E20                     	;# 
  1025     1E21                     	;# 
  1026     1E22                     	;# 
  1027     1E23                     	;# 
  1028     1E24                     	;# 
  1029     1E25                     	;# 
  1030     1E26                     	;# 
  1031     1E27                     	;# 
  1032     1E28                     	;# 
  1033     1E29                     	;# 
  1034     1E2A                     	;# 
  1035     1E2B                     	;# 
  1036     1E2C                     	;# 
  1037     1E2D                     	;# 
  1038     1E2E                     	;# 
  1039     1E2F                     	;# 
  1040     1E30                     	;# 
  1041     1E31                     	;# 
  1042     1E32                     	;# 
  1043     1E33                     	;# 
  1044     1E34                     	;# 
  1045     1E35                     	;# 
  1046     1E36                     	;# 
  1047     1E37                     	;# 
  1048     1E8F                     	;# 
  1049     1E90                     	;# 
  1050     1E91                     	;# 
  1051     1E92                     	;# 
  1052     1E93                     	;# 
  1053     1E94                     	;# 
  1054     1E95                     	;# 
  1055     1E96                     	;# 
  1056     1E97                     	;# 
  1057     1E9C                     	;# 
  1058     1E9D                     	;# 
  1059     1E9E                     	;# 
  1060     1EA1                     	;# 
  1061     1EA2                     	;# 
  1062     1EA3                     	;# 
  1063     1EA4                     	;# 
  1064     1EA5                     	;# 
  1065     1EA9                     	;# 
  1066     1EAA                     	;# 
  1067     1EAB                     	;# 
  1068     1EAC                     	;# 
  1069     1EB1                     	;# 
  1070     1EB2                     	;# 
  1071     1EB3                     	;# 
  1072     1EB8                     	;# 
  1073     1EB9                     	;# 
  1074     1EBA                     	;# 
  1075     1EBB                     	;# 
  1076     1EBC                     	;# 
  1077     1EBD                     	;# 
  1078     1EBE                     	;# 
  1079     1EC3                     	;# 
  1080     1EC5                     	;# 
  1081     1EC6                     	;# 
  1082     1EC7                     	;# 
  1083     1EC8                     	;# 
  1084     1EC9                     	;# 
  1085     1ECA                     	;# 
  1086     1ECB                     	;# 
  1087     1ECC                     	;# 
  1088     1F10                     	;# 
  1089     1F11                     	;# 
  1090     1F12                     	;# 
  1091     1F13                     	;# 
  1092     1F14                     	;# 
  1093     1F15                     	;# 
  1094     1F16                     	;# 
  1095     1F17                     	;# 
  1096     1F18                     	;# 
  1097     1F19                     	;# 
  1098     1F1A                     	;# 
  1099     1F1B                     	;# 
  1100     1F1C                     	;# 
  1101     1F1D                     	;# 
  1102     1F1E                     	;# 
  1103     1F1F                     	;# 
  1104     1F20                     	;# 
  1105     1F21                     	;# 
  1106     1F22                     	;# 
  1107     1F23                     	;# 
  1108     1F24                     	;# 
  1109     1F25                     	;# 
  1110     1F26                     	;# 
  1111     1F27                     	;# 
  1112     1F28                     	;# 
  1113     1F29                     	;# 
  1114     1F2A                     	;# 
  1115     1F2B                     	;# 
  1116     1F2C                     	;# 
  1117     1F2D                     	;# 
  1118     1F2E                     	;# 
  1119     1F2F                     	;# 
  1120     1F30                     	;# 
  1121     1F31                     	;# 
  1122     1F32                     	;# 
  1123     1F38                     	;# 
  1124     1F39                     	;# 
  1125     1F3A                     	;# 
  1126     1F3B                     	;# 
  1127     1F3C                     	;# 
  1128     1F3D                     	;# 
  1129     1F3E                     	;# 
  1130     1F3F                     	;# 
  1131     1F40                     	;# 
  1132     1F41                     	;# 
  1133     1F43                     	;# 
  1134     1F44                     	;# 
  1135     1F45                     	;# 
  1136     1F46                     	;# 
  1137     1F47                     	;# 
  1138     1F48                     	;# 
  1139     1F49                     	;# 
  1140     1F4A                     	;# 
  1141     1F4B                     	;# 
  1142     1F4C                     	;# 
  1143     1F4E                     	;# 
  1144     1F4F                     	;# 
  1145     1F50                     	;# 
  1146     1F51                     	;# 
  1147     1F52                     	;# 
  1148     1F53                     	;# 
  1149     1F54                     	;# 
  1150     1F55                     	;# 
  1151     1F56                     	;# 
  1152     1F57                     	;# 
  1153     1F59                     	;# 
  1154     1F5A                     	;# 
  1155     1F5B                     	;# 
  1156     1F5C                     	;# 
  1157     1F5D                     	;# 
  1158     1F61                     	;# 
  1159     1F62                     	;# 
  1160     1F64                     	;# 
  1161     1F65                     	;# 
  1162     1F66                     	;# 
  1163     1F67                     	;# 
  1164     1F68                     	;# 
  1165     1F69                     	;# 
  1166     1F6A                     	;# 
  1167     1F6B                     	;# 
  1168     1F6C                     	;# 
  1169     1F6D                     	;# 
  1170     1FE4                     	;# 
  1171     1FE5                     	;# 
  1172     1FE6                     	;# 
  1173     1FE7                     	;# 
  1174     1FE8                     	;# 
  1175     1FE9                     	;# 
  1176     1FEA                     	;# 
  1177     1FEB                     	;# 
  1178     1FED                     	;# 
  1179     1FEE                     	;# 
  1180     1FEF                     	;# 
  1181     000D                     _PORTBbits	set	13
  1182     0010                     _PORTEbits	set	16
  1183     000E                     _PORTC	set	14
  1184     000E                     _PORTCbits	set	14
  1185     0013                     _TRISCbits	set	19
  1186     0015                     _TRISEbits	set	21
  1187     008C                     _ADRESL	set	140
  1188     008D                     _ADRESH	set	141
  1189     0093                     _ADCON0bits	set	147
  1190     020C                     _TMR1	set	524
  1191     020E                     _T1CONbits	set	526
  1192                           
  1193                           	psect	stringtext1
  1194     1800                     __pstringtext1:
  1195     1800                     STR_1:
  1196     1800  3420               	retlw	32	;' '
  1197     1801  344F               	retlw	79	;'O'
  1198     1802  3478               	retlw	120	;'x'
  1199     1803  3479               	retlw	121	;'y'
  1200     1804  3467               	retlw	103	;'g'
  1201     1805  3465               	retlw	101	;'e'
  1202     1806  346E               	retlw	110	;'n'
  1203     1807  3420               	retlw	32	;' '
  1204     1808  344C               	retlw	76	;'L'
  1205     1809  3465               	retlw	101	;'e'
  1206     180A  3476               	retlw	118	;'v'
  1207     180B  3465               	retlw	101	;'e'
  1208     180C  346C               	retlw	108	;'l'
  1209     180D  343A               	retlw	58	;':'
  1210     180E  3400               	retlw	0
  1211                           
  1212                           	psect	stringtext2
  1213     180F                     __pstringtext2:
  1214     180F                     STR_2:
  1215     180F  3425               	retlw	37	;'%'
  1216     1810  3433               	retlw	51	;'3'
  1217     1811  3475               	retlw	117	;'u'
  1218     1812  3425               	retlw	37	;'%'
  1219     1813  3425               	retlw	37	;'%'
  1220     1814  3400               	retlw	0
  1221                           
  1222                           	psect	stringtext3
  1223     1815                     __pstringtext3:
  1224     1815                     STR_3:
  1225     1815  3425               	retlw	37	;'%'
  1226     1816  342E               	retlw	46	;'.'
  1227     1817  3432               	retlw	50	;'2'
  1228     1818  3466               	retlw	102	;'f'
  1229     1819  3443               	retlw	67	;'C'
  1230     181A  3400               	retlw	0
  1231                           
  1232                           	psect	stringtext4
  1233     181B                     __pstringtext4:
  1234     181B                     STR_4:
  1235     181B  3469               	retlw	105	;'i'
  1236     181C  346E               	retlw	110	;'n'
  1237     181D  3466               	retlw	102	;'f'
  1238     181E  3400               	retlw	0
  1239                           
  1240                           	psect	stringtext5
  1241     181F                     __pstringtext5:
  1242     181F                     STR_7:
  1243     181F  346E               	retlw	110	;'n'
  1244     1820  3461               	retlw	97	;'a'
  1245     1821  346E               	retlw	110	;'n'
  1246     1822  3400               	retlw	0
  1247                           
  1248                           	psect	stringtext6
  1249     0000                     __pstringtext6:
  1250     181B                     
  1251                           	psect	cinit
  1252     07EB                     start_initialization:	
  1253                           ; #config settings
  1254                           
  1255     07EB                     __initialization:
  1256                           
  1257                           ; Clear objects allocated to BANK0
  1258     07EB  0140               	movlb	0	; select bank0
  1259     07EC  01EF               	clrf	__pbssBANK0& (0+127)
  1260                           
  1261                           ; Clear objects allocated to BANK1
  1262     07ED  30DA               	movlw	low __pbssBANK1
  1263     07EE  0084               	movwf	4
  1264     07EF  3000               	movlw	high __pbssBANK1
  1265     07F0  0085               	movwf	5
  1266     07F1  3012               	movlw	18
  1267     07F2  3192  227F  3187   	fcall	clear_ram0
  1268                           
  1269                           ; Clear objects allocated to BANK2
  1270     07F5  3020               	movlw	low __pbssBANK2
  1271     07F6  0084               	movwf	4
  1272     07F7  3001               	movlw	high __pbssBANK2
  1273     07F8  0085               	movwf	5
  1274     07F9  3050               	movlw	80
  1275     07FA  3192  227F  3187   	fcall	clear_ram0
  1276     07FD                     end_of_initialization:	
  1277                           ;End of C runtime variable initialization code
  1278                           
  1279     07FD                     __end_of__initialization:
  1280     07FD  0140               	movlb	0
  1281     07FE  3194  2CC4         	ljmp	_main	;jump to C main() function
  1282                           
  1283                           	psect	bssBANK0
  1284     006F                     __pbssBANK0:
  1285     006F                     _flags:
  1286     006F                     	ds	1
  1287                           
  1288                           	psect	bssBANK1
  1289     00DA                     __pbssBANK1:
  1290     00DA                     floorf@F526:
  1291     00DA                     	ds	4
  1292     00DE                     ___fpclassifyf@F465:
  1293     00DE                     	ds	4
  1294     00E2                     _width:
  1295     00E2                     	ds	2
  1296     00E4                     _prec:
  1297     00E4                     	ds	2
  1298     00E6                     _temperature:
  1299     00E6                     	ds	2
  1300     00E8                     _timerCount:
  1301     00E8                     	ds	2
  1302     00EA                     _oxygenLevel:
  1303     00EA                     	ds	2
  1304                           
  1305                           	psect	bssBANK2
  1306     0120                     __pbssBANK2:
  1307     0120                     _dbuf:
  1308     0120                     	ds	80
  1309                           
  1310                           	psect	clrtext
  1311     127F                     clear_ram0:	
  1312                           ;	Called with FSR0 containing the base address, and
  1313                           ;	WREG with the size to clear
  1314                           
  1315     127F  0064               	clrwdt	;clear the watchdog before getting into this loop
  1316     1280                     clrloop0:
  1317     1280  0180               	clrf	0	;clear RAM location pointed to by FSR
  1318     1281  3101               	addfsr 0,1
  1319     1282  0B89               	decfsz	9,f	;Have we reached the end of clearing yet?
  1320     1283  2A80               	goto	clrloop0	;have we reached the end yet?
  1321     1284  3400               	retlw	0	;all done for this memory range, return
  1322                           
  1323                           	psect	cstackBANK1
  1324     00A0                     __pcstackBANK1:
  1325     00A0                     efgtoa@ne:
  1326                           
  1327                           ; 2 bytes @ 0x0
  1328     00A0                     	ds	2
  1329     00A2                     efgtoa@p:
  1330                           
  1331                           ; 2 bytes @ 0x2
  1332     00A2                     	ds	2
  1333     00A4                     efgtoa@t:
  1334                           
  1335                           ; 2 bytes @ 0x4
  1336     00A4                     	ds	2
  1337     00A6                     _efgtoa$902:
  1338                           
  1339                           ; 2 bytes @ 0x6
  1340     00A6                     	ds	2
  1341     00A8                     efgtoa@pp:
  1342                           
  1343                           ; 1 bytes @ 0x8
  1344     00A8                     	ds	1
  1345     00A9                     efgtoa@mode:
  1346                           
  1347                           ; 1 bytes @ 0x9
  1348     00A9                     	ds	1
  1349     00AA                     efgtoa@nmode:
  1350                           
  1351                           ; 1 bytes @ 0xA
  1352     00AA                     	ds	1
  1353     00AB                     efgtoa@d:
  1354                           
  1355                           ; 2 bytes @ 0xB
  1356     00AB                     	ds	2
  1357     00AD                     efgtoa@m:
  1358                           
  1359                           ; 2 bytes @ 0xD
  1360     00AD                     	ds	2
  1361     00AF                     efgtoa@fp:
  1362                           
  1363                           ; 1 bytes @ 0xF
  1364     00AF                     	ds	1
  1365     00B0                     efgtoa@e:
  1366                           
  1367                           ; 2 bytes @ 0x10
  1368     00B0                     	ds	2
  1369     00B2                     efgtoa@w:
  1370                           
  1371                           ; 2 bytes @ 0x12
  1372     00B2                     	ds	2
  1373     00B4                     efgtoa@ou:
  1374                           
  1375                           ; 4 bytes @ 0x14
  1376     00B4                     	ds	4
  1377     00B8                     efgtoa@i:
  1378                           
  1379                           ; 2 bytes @ 0x18
  1380     00B8                     	ds	2
  1381     00BA                     efgtoa@h:
  1382                           
  1383                           ; 4 bytes @ 0x1A
  1384     00BA                     	ds	4
  1385     00BE                     efgtoa@l:
  1386                           
  1387                           ; 4 bytes @ 0x1E
  1388     00BE                     	ds	4
  1389     00C2                     efgtoa@sign:
  1390                           
  1391                           ; 1 bytes @ 0x22
  1392     00C2                     	ds	1
  1393     00C3                     efgtoa@n:
  1394                           
  1395                           ; 2 bytes @ 0x23
  1396     00C3                     	ds	2
  1397     00C5                     efgtoa@g:
  1398                           
  1399                           ; 4 bytes @ 0x25
  1400     00C5                     	ds	4
  1401     00C9                     efgtoa@u:
  1402                           
  1403                           ; 4 bytes @ 0x29
  1404     00C9                     	ds	4
  1405     00CD                     ?_vfpfcnvrt:
  1406     00CD                     vfpfcnvrt@fmt:	
  1407                           ; 1 bytes @ 0x2D
  1408                           
  1409                           
  1410                           ; 1 bytes @ 0x2D
  1411     00CD                     	ds	1
  1412     00CE                     vfpfcnvrt@ap:
  1413                           
  1414                           ; 1 bytes @ 0x2E
  1415     00CE                     	ds	1
  1416     00CF                     ?_vfprintf:
  1417     00CF                     vfprintf@fmt:	
  1418                           ; 2 bytes @ 0x2F
  1419                           
  1420                           
  1421                           ; 2 bytes @ 0x2F
  1422     00CF                     	ds	2
  1423     00D1                     vfprintf@ap:
  1424                           
  1425                           ; 1 bytes @ 0x31
  1426     00D1                     	ds	1
  1427     00D2                     ?_sprintf:
  1428     00D2                     sprintf@fmt:	
  1429                           ; 2 bytes @ 0x32
  1430                           
  1431                           
  1432                           ; 2 bytes @ 0x32
  1433     00D2                     	ds	6
  1434     00D8                     ?_Display_Oxygen_Level:
  1435     00D8                     Display_Oxygen_Level@level:	
  1436                           ; 1 bytes @ 0x38
  1437                           
  1438                           
  1439                           ; 2 bytes @ 0x38
  1440     00D8                     	ds	2
  1441                           
  1442                           	psect	cstackCOMMON
  1443     0070                     __pcstackCOMMON:
  1444     0070                     ?___fleq:
  1445     0070                     ?_LCD_Init:	
  1446                           ; 1 bit 
  1447                           
  1448     0070                     ?_LCD_Clear:	
  1449                           ; 1 bytes @ 0x0
  1450                           
  1451     0070                     ?_LCD_Cmd:	
  1452                           ; 1 bytes @ 0x0
  1453                           
  1454     0070                     ??_LCD_Cmd:	
  1455                           ; 1 bytes @ 0x0
  1456                           
  1457     0070                     ?_strcpy:	
  1458                           ; 1 bytes @ 0x0
  1459                           
  1460     0070                     ?_memcpy:	
  1461                           ; 1 bytes @ 0x0
  1462                           
  1463     0070                     ?_putch:	
  1464                           ; 1 bytes @ 0x0
  1465                           
  1466     0070                     ??_putch:	
  1467                           ; 1 bytes @ 0x0
  1468                           
  1469     0070                     ?_main:	
  1470                           ; 1 bytes @ 0x0
  1471                           
  1472     0070                     ?_LCD_Char:	
  1473                           ; 1 bytes @ 0x0
  1474                           
  1475     0070                     ??_LCD_Char:	
  1476                           ; 1 bytes @ 0x0
  1477                           
  1478     0070                     ?_ADC_Read:	
  1479                           ; 1 bytes @ 0x0
  1480                           
  1481     0070                     ?__Umul8_16:	
  1482                           ; 2 bytes @ 0x0
  1483                           
  1484     0070                     ?_fputc:	
  1485                           ; 2 bytes @ 0x0
  1486                           
  1487     0070                     ?___fpclassifyf:	
  1488                           ; 2 bytes @ 0x0
  1489                           
  1490     0070                     ?___wmul:	
  1491                           ; 2 bytes @ 0x0
  1492                           
  1493     0070                     ?___lwmod:	
  1494                           ; 2 bytes @ 0x0
  1495                           
  1496     0070                     ?_labs:	
  1497                           ; 2 bytes @ 0x0
  1498                           
  1499     0070                     ?___flneg:	
  1500                           ; 4 bytes @ 0x0
  1501                           
  1502     0070                     ?___fltol:	
  1503                           ; 4 bytes @ 0x0
  1504                           
  1505     0070                     ?___fladd:	
  1506                           ; 4 bytes @ 0x0
  1507                           
  1508     0070                     ?___fldiv:	
  1509                           ; 4 bytes @ 0x0
  1510                           
  1511     0070                     ADC_Read@channel:	
  1512                           ; 4 bytes @ 0x0
  1513                           
  1514     0070                     __Umul8_16@multiplicand:	
  1515                           ; 1 bytes @ 0x0
  1516                           
  1517     0070                     memcpy@s1:	
  1518                           ; 1 bytes @ 0x0
  1519                           
  1520     0070                     putch@c:	
  1521                           ; 1 bytes @ 0x0
  1522                           
  1523     0070                     ___wmul@multiplier:	
  1524                           ; 1 bytes @ 0x0
  1525                           
  1526     0070                     ___lwmod@divisor:	
  1527                           ; 2 bytes @ 0x0
  1528                           
  1529     0070                     fputc@c:	
  1530                           ; 2 bytes @ 0x0
  1531                           
  1532     0070                     strcpy@src:	
  1533                           ; 2 bytes @ 0x0
  1534                           
  1535     0070                     ___fleq@ff1:	
  1536                           ; 2 bytes @ 0x0
  1537                           
  1538     0070                     ___flneg@f1:	
  1539                           ; 4 bytes @ 0x0
  1540                           
  1541     0070                     ___fltol@f1:	
  1542                           ; 4 bytes @ 0x0
  1543                           
  1544     0070                     ___fladd@b:	
  1545                           ; 4 bytes @ 0x0
  1546                           
  1547     0070                     ___fldiv@a:	
  1548                           ; 4 bytes @ 0x0
  1549                           
  1550     0070                     ___fpclassifyf@x:	
  1551                           ; 4 bytes @ 0x0
  1552                           
  1553     0070                     labs@a:	
  1554                           ; 4 bytes @ 0x0
  1555                           
  1556                           
  1557                           ; 4 bytes @ 0x0
  1558     0070                     	ds	1
  1559     0071                     memcpy@n:
  1560                           
  1561                           ; 2 bytes @ 0x1
  1562     0071                     	ds	1
  1563     0072                     ??_ADC_Read:
  1564     0072                     ??__Umul8_16:	
  1565                           ; 1 bytes @ 0x2
  1566                           
  1567     0072                     ??_strcpy:	
  1568                           ; 1 bytes @ 0x2
  1569                           
  1570     0072                     LCD_Cmd@command:	
  1571                           ; 1 bytes @ 0x2
  1572                           
  1573     0072                     LCD_Char@data:	
  1574                           ; 1 bytes @ 0x2
  1575                           
  1576     0072                     fputc@fp:	
  1577                           ; 1 bytes @ 0x2
  1578                           
  1579     0072                     ___wmul@multiplicand:	
  1580                           ; 1 bytes @ 0x2
  1581                           
  1582     0072                     ___lwmod@dividend:	
  1583                           ; 2 bytes @ 0x2
  1584                           
  1585                           
  1586                           ; 2 bytes @ 0x2
  1587     0072                     	ds	1
  1588     0073                     ??_LCD_Init:
  1589     0073                     ??_LCD_Clear:	
  1590                           ; 1 bytes @ 0x3
  1591                           
  1592     0073                     ?_LCD_String:	
  1593                           ; 1 bytes @ 0x3
  1594                           
  1595     0073                     ??_fputc:	
  1596                           ; 1 bytes @ 0x3
  1597                           
  1598     0073                     ??_memcpy:	
  1599                           ; 1 bytes @ 0x3
  1600                           
  1601     0073                     LCD_String@text:	
  1602                           ; 1 bytes @ 0x3
  1603                           
  1604                           
  1605                           ; 2 bytes @ 0x3
  1606     0073                     	ds	1
  1607     0074                     ??___fpclassifyf:
  1608     0074                     ??_labs:	
  1609                           ; 1 bytes @ 0x4
  1610                           
  1611     0074                     ??___wmul:	
  1612                           ; 1 bytes @ 0x4
  1613                           
  1614     0074                     ??___flneg:	
  1615                           ; 1 bytes @ 0x4
  1616                           
  1617     0074                     ??___fltol:	
  1618                           ; 1 bytes @ 0x4
  1619                           
  1620     0074                     ??___lwmod:	
  1621                           ; 1 bytes @ 0x4
  1622                           
  1623     0074                     memcpy@tmp:	
  1624                           ; 1 bytes @ 0x4
  1625                           
  1626     0074                     ___wmul@product:	
  1627                           ; 1 bytes @ 0x4
  1628                           
  1629     0074                     __Umul8_16@product:	
  1630                           ; 2 bytes @ 0x4
  1631                           
  1632     0074                     strcpy@s:	
  1633                           ; 2 bytes @ 0x4
  1634                           
  1635     0074                     ___fleq@ff2:	
  1636                           ; 2 bytes @ 0x4
  1637                           
  1638     0074                     ___fladd@a:	
  1639                           ; 4 bytes @ 0x4
  1640                           
  1641     0074                     ___fldiv@b:	
  1642                           ; 4 bytes @ 0x4
  1643                           
  1644                           
  1645                           ; 4 bytes @ 0x4
  1646     0074                     	ds	1
  1647     0075                     ??_LCD_String:
  1648     0075                     ___lwmod@counter:	
  1649                           ; 1 bytes @ 0x5
  1650                           
  1651     0075                     memcpy@d1:	
  1652                           ; 1 bytes @ 0x5
  1653                           
  1654                           
  1655                           ; 1 bytes @ 0x5
  1656     0075                     	ds	1
  1657     0076                     ?___lwdiv:
  1658     0076                     ?_read_prec_or_width:	
  1659                           ; 2 bytes @ 0x6
  1660                           
  1661     0076                     read_prec_or_width@ap:	
  1662                           ; 2 bytes @ 0x6
  1663                           
  1664     0076                     memcpy@d:	
  1665                           ; 1 bytes @ 0x6
  1666                           
  1667     0076                     strcpy@d:	
  1668                           ; 1 bytes @ 0x6
  1669                           
  1670     0076                     ___lwdiv@divisor:	
  1671                           ; 1 bytes @ 0x6
  1672                           
  1673     0076                     __Umul8_16@word_mpld:	
  1674                           ; 2 bytes @ 0x6
  1675                           
  1676                           
  1677                           ; 2 bytes @ 0x6
  1678     0076                     	ds	1
  1679     0077                     memcpy@s:
  1680     0077                     strcpy@dest:	
  1681                           ; 1 bytes @ 0x7
  1682                           
  1683                           
  1684                           ; 1 bytes @ 0x7
  1685     0077                     	ds	1
  1686     0078                     ??___fleq:
  1687     0078                     ??___fldiv:	
  1688                           ; 1 bytes @ 0x8
  1689                           
  1690     0078                     ??_read_prec_or_width:	
  1691                           ; 1 bytes @ 0x8
  1692                           
  1693     0078                     ?_fputs:	
  1694                           ; 1 bytes @ 0x8
  1695                           
  1696     0078                     ___fltol@sign1:	
  1697                           ; 2 bytes @ 0x8
  1698                           
  1699     0078                     ___fladd@signs:	
  1700                           ; 1 bytes @ 0x8
  1701                           
  1702     0078                     __Umul8_16@multiplier:	
  1703                           ; 1 bytes @ 0x8
  1704                           
  1705     0078                     fputs@fp:	
  1706                           ; 1 bytes @ 0x8
  1707                           
  1708     0078                     ___lwdiv@dividend:	
  1709                           ; 1 bytes @ 0x8
  1710                           
  1711                           
  1712                           ; 2 bytes @ 0x8
  1713     0078                     	ds	1
  1714     0079                     ??_fputs:
  1715     0079                     ??___flmul:	
  1716                           ; 1 bytes @ 0x9
  1717                           
  1718     0079                     ___fltol@exp1:	
  1719                           ; 1 bytes @ 0x9
  1720                           
  1721     0079                     ___fladd@aexp:	
  1722                           ; 1 bytes @ 0x9
  1723                           
  1724                           
  1725                           ; 1 bytes @ 0x9
  1726     0079                     	ds	1
  1727     007A                     ??___lwdiv:
  1728     007A                     ___fladd@bexp:	
  1729                           ; 1 bytes @ 0xA
  1730                           
  1731                           
  1732                           ; 1 bytes @ 0xA
  1733     007A                     	ds	1
  1734     007B                     ?_pad:
  1735     007B                     ___fladd@grs:	
  1736                           ; 1 bytes @ 0xB
  1737                           
  1738     007B                     pad@buf:	
  1739                           ; 1 bytes @ 0xB
  1740                           
  1741     007B                     ___lwdiv@quotient:	
  1742                           ; 1 bytes @ 0xB
  1743                           
  1744                           
  1745                           ; 2 bytes @ 0xB
  1746     007B                     	ds	1
  1747     007C                     pad@p:
  1748                           
  1749                           ; 2 bytes @ 0xC
  1750     007C                     	ds	1
  1751     007D                     ___lwdiv@counter:
  1752                           
  1753                           ; 1 bytes @ 0xD
  1754     007D                     	ds	1
  1755     007E                     ??_Display_Oxygen_Level:
  1756     007E                     ??___flsub:	
  1757                           ; 1 bytes @ 0xE
  1758                           
  1759                           
  1760                           	psect	cstackBANK0
  1761     0020                     __pcstackBANK0:	
  1762                           ; 1 bytes @ 0xE
  1763                           
  1764     0020                     ?_Display_Time:
  1765     0020                     ??___fladd:	
  1766                           ; 1 bytes @ 0x0
  1767                           
  1768     0020                     ?___flmul:	
  1769                           ; 1 bytes @ 0x0
  1770                           
  1771     0020                     read_prec_or_width@c:	
  1772                           ; 4 bytes @ 0x0
  1773                           
  1774     0020                     fputs@c:	
  1775                           ; 1 bytes @ 0x0
  1776                           
  1777     0020                     Display_Time@seconds:	
  1778                           ; 1 bytes @ 0x0
  1779                           
  1780     0020                     ___fpclassifyf@e:	
  1781                           ; 2 bytes @ 0x0
  1782                           
  1783     0020                     ___fldiv@rem:	
  1784                           ; 2 bytes @ 0x0
  1785                           
  1786     0020                     ___flmul@b:	
  1787                           ; 4 bytes @ 0x0
  1788                           
  1789                           
  1790                           ; 4 bytes @ 0x0
  1791     0020                     	ds	1
  1792     0021                     read_prec_or_width@n:
  1793     0021                     fputs@i:	
  1794                           ; 2 bytes @ 0x1
  1795                           
  1796                           
  1797                           ; 2 bytes @ 0x1
  1798     0021                     	ds	1
  1799     0022                     ??_Display_Time:
  1800     0022                     ___fpclassifyf@u:	
  1801                           ; 1 bytes @ 0x2
  1802                           
  1803                           
  1804                           ; 4 bytes @ 0x2
  1805     0022                     	ds	1
  1806     0023                     read_prec_or_width@fmt:
  1807     0023                     fputs@s:	
  1808                           ; 1 bytes @ 0x3
  1809                           
  1810     0023                     Display_Time@minutes:	
  1811                           ; 1 bytes @ 0x3
  1812                           
  1813                           
  1814                           ; 2 bytes @ 0x3
  1815     0023                     	ds	1
  1816     0024                     ??_pad:
  1817     0024                     ___fldiv@sign:	
  1818                           ; 1 bytes @ 0x4
  1819                           
  1820     0024                     ___flmul@a:	
  1821                           ; 1 bytes @ 0x4
  1822                           
  1823                           
  1824                           ; 4 bytes @ 0x4
  1825     0024                     	ds	1
  1826     0025                     Display_Time@hours:
  1827     0025                     ___fldiv@new_exp:	
  1828                           ; 2 bytes @ 0x5
  1829                           
  1830     0025                     pad@i:	
  1831                           ; 2 bytes @ 0x5
  1832                           
  1833                           
  1834                           ; 2 bytes @ 0x5
  1835     0025                     	ds	2
  1836     0027                     pad@w:
  1837     0027                     ___fldiv@grs:	
  1838                           ; 2 bytes @ 0x7
  1839                           
  1840                           
  1841                           ; 4 bytes @ 0x7
  1842     0027                     	ds	1
  1843     0028                     ___flmul@sign:
  1844                           
  1845                           ; 1 bytes @ 0x8
  1846     0028                     	ds	1
  1847     0029                     pad@fp:
  1848     0029                     ___flmul@grs:	
  1849                           ; 1 bytes @ 0x9
  1850                           
  1851                           
  1852                           ; 4 bytes @ 0x9
  1853     0029                     	ds	1
  1854     002A                     ?_utoa:
  1855     002A                     utoa@d:	
  1856                           ; 1 bytes @ 0xA
  1857                           
  1858                           
  1859                           ; 2 bytes @ 0xA
  1860     002A                     	ds	1
  1861     002B                     ___fldiv@bexp:
  1862                           
  1863                           ; 1 bytes @ 0xB
  1864     002B                     	ds	1
  1865     002C                     ??_utoa:
  1866     002C                     ___fldiv@aexp:	
  1867                           ; 1 bytes @ 0xC
  1868                           
  1869                           
  1870                           ; 1 bytes @ 0xC
  1871     002C                     	ds	1
  1872     002D                     ?_floorf:
  1873     002D                     ___flmul@aexp:	
  1874                           ; 4 bytes @ 0xD
  1875                           
  1876     002D                     utoa@w:	
  1877                           ; 1 bytes @ 0xD
  1878                           
  1879     002D                     floorf@x:	
  1880                           ; 2 bytes @ 0xD
  1881                           
  1882                           
  1883                           ; 4 bytes @ 0xD
  1884     002D                     	ds	1
  1885     002E                     ___flmul@bexp:
  1886                           
  1887                           ; 1 bytes @ 0xE
  1888     002E                     	ds	1
  1889     002F                     utoa@fp:
  1890     002F                     ___flmul@prod:	
  1891                           ; 1 bytes @ 0xF
  1892                           
  1893                           
  1894                           ; 4 bytes @ 0xF
  1895     002F                     	ds	1
  1896     0030                     utoa@p:
  1897                           
  1898                           ; 2 bytes @ 0x10
  1899     0030                     	ds	1
  1900     0031                     ??_floorf:
  1901                           
  1902                           ; 1 bytes @ 0x11
  1903     0031                     	ds	1
  1904     0032                     utoa@i:
  1905                           
  1906                           ; 2 bytes @ 0x12
  1907     0032                     	ds	1
  1908     0033                     ___flmul@temp:
  1909                           
  1910                           ; 2 bytes @ 0x13
  1911     0033                     	ds	2
  1912     0035                     ?___flge:
  1913     0035                     ?___flsub:	
  1914                           ; 1 bit 
  1915                           
  1916     0035                     ___flge@ff1:	
  1917                           ; 4 bytes @ 0x15
  1918                           
  1919     0035                     ___flsub@a:	
  1920                           ; 4 bytes @ 0x15
  1921                           
  1922                           
  1923                           ; 4 bytes @ 0x15
  1924     0035                     	ds	2
  1925     0037                     floorf@m:
  1926                           
  1927                           ; 4 bytes @ 0x17
  1928     0037                     	ds	2
  1929     0039                     ___flge@ff2:
  1930     0039                     ___flsub@b:	
  1931                           ; 4 bytes @ 0x19
  1932                           
  1933                           
  1934                           ; 4 bytes @ 0x19
  1935     0039                     	ds	2
  1936     003B                     floorf@e:
  1937                           
  1938                           ; 2 bytes @ 0x1B
  1939     003B                     	ds	2
  1940     003D                     ??___flge:
  1941     003D                     floorf@u:	
  1942                           ; 1 bytes @ 0x1D
  1943                           
  1944                           
  1945                           ; 4 bytes @ 0x1D
  1946     003D                     	ds	4
  1947     0041                     ?_efgtoa:
  1948     0041                     efgtoa@f:	
  1949                           ; 1 bytes @ 0x21
  1950                           
  1951                           
  1952                           ; 4 bytes @ 0x21
  1953     0041                     	ds	4
  1954     0045                     efgtoa@c:
  1955                           
  1956                           ; 1 bytes @ 0x25
  1957     0045                     	ds	1
  1958     0046                     ??_efgtoa:
  1959                           
  1960                           ; 1 bytes @ 0x26
  1961     0046                     	ds	4
  1962     004A                     ??_vfpfcnvrt:
  1963                           
  1964                           ; 1 bytes @ 0x2A
  1965     004A                     	ds	4
  1966     004E                     vfpfcnvrt@convarg:
  1967                           
  1968                           ; 4 bytes @ 0x2E
  1969     004E                     	ds	4
  1970     0052                     vfpfcnvrt@c:
  1971                           
  1972                           ; 1 bytes @ 0x32
  1973     0052                     	ds	1
  1974     0053                     vfpfcnvrt@fp:
  1975                           
  1976                           ; 1 bytes @ 0x33
  1977     0053                     	ds	1
  1978     0054                     vfpfcnvrt@cp:
  1979                           
  1980                           ; 2 bytes @ 0x34
  1981     0054                     	ds	2
  1982     0056                     ??_vfprintf:
  1983                           
  1984                           ; 1 bytes @ 0x36
  1985     0056                     	ds	1
  1986     0057                     vfprintf@fp:
  1987                           
  1988                           ; 1 bytes @ 0x37
  1989     0057                     	ds	1
  1990     0058                     vfprintf@cfmt:
  1991                           
  1992                           ; 2 bytes @ 0x38
  1993     0058                     	ds	2
  1994     005A                     ??_sprintf:
  1995                           
  1996                           ; 1 bytes @ 0x3A
  1997     005A                     	ds	1
  1998     005B                     sprintf@s:
  1999                           
  2000                           ; 1 bytes @ 0x3B
  2001     005B                     	ds	1
  2002     005C                     sprintf@ap:
  2003                           
  2004                           ; 1 bytes @ 0x3C
  2005     005C                     	ds	1
  2006     005D                     sprintf@f:
  2007                           
  2008                           ; 11 bytes @ 0x3D
  2009     005D                     	ds	11
  2010     0068                     Display_Oxygen_Level@buffer:
  2011                           
  2012                           ; 5 bytes @ 0x48
  2013     0068                     	ds	5
  2014     006D                     ??_main:
  2015                           
  2016                           ; 1 bytes @ 0x4D
  2017     006D                     	ds	2
  2018                           
  2019                           	psect	maintext
  2020     14C4                     __pmaintext:	
  2021 ;;
  2022 ;;Main: autosize = 0, tempsize = 2, incstack = 0, save=0
  2023 ;;
  2024 ;; *************** function _main *****************
  2025 ;; Defined at:
  2026 ;;		line 87 in file "LCD_Analog_button.c"
  2027 ;; Parameters:    Size  Location     Type
  2028 ;;		None
  2029 ;; Auto vars:     Size  Location     Type
  2030 ;;		None
  2031 ;; Return value:  Size  Location     Type
  2032 ;;                  1    wreg      void 
  2033 ;; Registers used:
  2034 ;;		wreg, fsr0l, fsr0h, fsr1l, fsr1h, status,2, status,0, pclath, cstack
  2035 ;; Tracked objects:
  2036 ;;		On entry : B3F/0
  2037 ;;		On exit  : 0/0
  2038 ;;		Unchanged: 0/0
  2039 ;; Data sizes:     COMMON   BANK0   BANK1   BANK2   BANK3   BANK4   BANK5   BANK6   BANK7   BANK8   BANK9  BANK10  BANK1
      +1  BANK12  BANK13  BANK14  BANK15  BANK16  BANK17  BANK18  BANK19  BANK20  BANK21  BANK22  BANK23  BANK24  BANK25  BANK2
      +6  BANK27  BANK28  BANK29  BANK30  BANK31  BANK32  BANK33  BANK34  BANK35  BANK36  BANK37  BANK38  BANK39  BANK40  BANK4
      +1  BANK42  BANK43  BANK44  BANK45  BANK46  BANK47  BANK48  BANK49  BANK50
  2040 ;;      Params:         0       0       0       0       0       0       0       0       0       0       0       0       
      +0       0       0       0       0       0       0       0       0       0       0       0       0       0       0       
      +0       0       0       0       0       0       0       0       0       0       0       0       0       0       0       
      +0       0       0       0       0       0       0       0       0       0
  2041 ;;      Locals:         0       0       0       0       0       0       0       0       0       0       0       0       
      +0       0       0       0       0       0       0       0       0       0       0       0       0       0       0       
      +0       0       0       0       0       0       0       0       0       0       0       0       0       0       0       
      +0       0       0       0       0       0       0       0       0       0
  2042 ;;      Temps:          0       2       0       0       0       0       0       0       0       0       0       0       
      +0       0       0       0       0       0       0       0       0       0       0       0       0       0       0       
      +0       0       0       0       0       0       0       0       0       0       0       0       0       0       0       
      +0       0       0       0       0       0       0       0       0       0
  2043 ;;      Totals:         0       2       0       0       0       0       0       0       0       0       0       0       
      +0       0       0       0       0       0       0       0       0       0       0       0       0       0       0       
      +0       0       0       0       0       0       0       0       0       0       0       0       0       0       0       
      +0       0       0       0       0       0       0       0       0       0
  2044 ;;Total ram usage:        2 bytes
  2045 ;; Hardware stack levels required when called: 9
  2046 ;; This function calls:
  2047 ;;		_ADC_Read
  2048 ;;		_Display_Oxygen_Level
  2049 ;;		_Display_Time
  2050 ;;		_LCD_Clear
  2051 ;;		_LCD_Cmd
  2052 ;;		_LCD_Init
  2053 ;;		_LCD_String
  2054 ;; This function is called by:
  2055 ;;		Startup code after reset
  2056 ;; This function uses a non-reentrant model
  2057 ;;
  2058                           
  2059     14C4                     _main:	
  2060                           ;psect for function _main
  2061                           
  2062     14C4                     l3419:	
  2063                           ;incstack = 0
  2064                           ; Regs used in _main: [wreg-fsr1h+status,2+status,0+pclath+cstack]
  2065                           
  2066                           
  2067                           ;LCD_Analog_button.c: 89:     LCD_Init();
  2068     14C4  3193  23B7  3194   	fcall	_LCD_Init
  2069     14C7                     l3421:
  2070                           
  2071                           ;LCD_Analog_button.c: 95:     ADCON0bits.ADON = 1;
  2072     14C7  0141               	movlb	1	; select bank1
  2073     14C8  1793               	bsf	19,7	;volatile
  2074     14C9                     l3423:
  2075                           
  2076                           ;LCD_Analog_button.c: 100:     TMR1 = 0;
  2077     14C9  0144               	movlb	4	; select bank4
  2078     14CA  018C               	clrf	12	;volatile
  2079     14CB  018D               	clrf	13	;volatile
  2080     14CC                     l3425:
  2081                           
  2082                           ;LCD_Analog_button.c: 101:     T1CONbits.TMR1ON = 1;
  2083     14CC  140E               	bsf	14,0	;volatile
  2084     14CD                     l3427:
  2085                           
  2086                           ;LCD_Analog_button.c: 105:         oxygenLevel = ADC_Read(14);
  2087     14CD  300E               	movlw	14
  2088     14CE  3192  2285  3194   	fcall	_ADC_Read
  2089     14D1  0871               	movf	?_ADC_Read+1,w
  2090     14D2  0141               	movlb	1	; select bank1
  2091     14D3  00EB               	movwf	(_oxygenLevel+1)^(0+128)	;volatile
  2092     14D4  0870               	movf	?_ADC_Read,w
  2093     14D5  00EA               	movwf	_oxygenLevel^(0+128)	;volatile
  2094     14D6                     l3429:
  2095                           
  2096                           ;LCD_Analog_button.c: 108:         temperature = ADC_Read(2);
  2097     14D6  3002               	movlw	2
  2098     14D7  3192  2285  3194   	fcall	_ADC_Read
  2099     14DA  0871               	movf	?_ADC_Read+1,w
  2100     14DB  0141               	movlb	1	; select bank1
  2101     14DC  00E7               	movwf	(_temperature+1)^(0+128)	;volatile
  2102     14DD  0870               	movf	?_ADC_Read,w
  2103     14DE  00E6               	movwf	_temperature^(0+128)	;volatile
  2104     14DF                     l3431:
  2105                           
  2106                           ;LCD_Analog_button.c: 111:         LCD_Clear();
  2107     14DF  3192  229B  3194   	fcall	_LCD_Clear
  2108     14E2                     l3433:
  2109                           
  2110                           ;LCD_Analog_button.c: 112:         LCD_String(" Oxygen Level:");
  2111     14E2  3000               	movlw	low (STR_1| (0+32768))
  2112     14E3  00F3               	movwf	LCD_String@text
  2113     14E4  3098               	movlw	high (STR_1| (0+32768))
  2114     14E5  00F4               	movwf	LCD_String@text+1
  2115     14E6  3192  22BC  3194   	fcall	_LCD_String
  2116     14E9                     l3435:
  2117                           
  2118                           ;LCD_Analog_button.c: 113:         LCD_Cmd(0xC0);
  2119     14E9  30C0               	movlw	192
  2120     14EA  3194  2453  3194   	fcall	_LCD_Cmd
  2121     14ED                     l3437:
  2122                           
  2123                           ;LCD_Analog_button.c: 114:         Display_Oxygen_Level(oxygenLevel);
  2124     14ED  0141               	movlb	1	; select bank1
  2125     14EE  086B               	movf	(_oxygenLevel+1)^(0+128),w	;volatile
  2126     14EF  00D9               	movwf	(Display_Oxygen_Level@level+1)^(0+128)
  2127     14F0  086A               	movf	_oxygenLevel^(0+128),w	;volatile
  2128     14F1  00D8               	movwf	Display_Oxygen_Level@level^(0+128)
  2129     14F2  3192  22A7  3194   	fcall	_Display_Oxygen_Level
  2130     14F5                     l3439:
  2131                           
  2132                           ;LCD_Analog_button.c: 117:         Display_Time(13);
  2133     14F5  300D               	movlw	13
  2134     14F6  0140               	movlb	0	; select bank0
  2135     14F7  00A0               	movwf	Display_Time@seconds
  2136     14F8  3000               	movlw	0
  2137     14F9  00A1               	movwf	Display_Time@seconds+1
  2138     14FA  3189  2120  3194   	fcall	_Display_Time
  2139     14FD                     l3441:
  2140                           
  2141                           ;LCD_Analog_button.c: 125:         _delay((unsigned long)((500)*(4000000/4000.0)));
  2142     14FD  3003               	movlw	3
  2143     14FE  0140               	movlb	0	; select bank0
  2144     14FF  00EE               	movwf	??_main+1
  2145     1500  308A               	movlw	138
  2146     1501  00ED               	movwf	??_main
  2147     1502  3055               	movlw	85
  2148     1503                     u4357:
  2149     1503  0B89               	decfsz	9,f
  2150     1504  2D03               	goto	u4357
  2151     1505  0BED               	decfsz	??_main,f
  2152     1506  2D03               	goto	u4357
  2153     1507  0BEE               	decfsz	??_main+1,f
  2154     1508  2D03               	goto	u4357
  2155     1509  3200               	nop2
  2156     150A  2CCD               	goto	l3427
  2157     150B  3180  2802         	ljmp	start
  2158     150D                     __end_of_main:
  2159                           
  2160                           	psect	text1
  2161     13B7                     __ptext1:	
  2162 ;; *************** function _LCD_Init *****************
  2163 ;; Defined at:
  2164 ;;		line 131 in file "LCD_Analog_button.c"
  2165 ;; Parameters:    Size  Location     Type
  2166 ;;		None
  2167 ;; Auto vars:     Size  Location     Type
  2168 ;;		None
  2169 ;; Return value:  Size  Location     Type
  2170 ;;                  1    wreg      void 
  2171 ;; Registers used:
  2172 ;;		wreg, status,2, status,0, pclath, cstack
  2173 ;; Tracked objects:
  2174 ;;		On entry : 0/0
  2175 ;;		On exit  : 0/0
  2176 ;;		Unchanged: 0/0
  2177 ;; Data sizes:     COMMON   BANK0   BANK1   BANK2   BANK3   BANK4   BANK5   BANK6   BANK7   BANK8   BANK9  BANK10  BANK1
      +1  BANK12  BANK13  BANK14  BANK15  BANK16  BANK17  BANK18  BANK19  BANK20  BANK21  BANK22  BANK23  BANK24  BANK25  BANK2
      +6  BANK27  BANK28  BANK29  BANK30  BANK31  BANK32  BANK33  BANK34  BANK35  BANK36  BANK37  BANK38  BANK39  BANK40  BANK4
      +1  BANK42  BANK43  BANK44  BANK45  BANK46  BANK47  BANK48  BANK49  BANK50
  2178 ;;      Params:         0       0       0       0       0       0       0       0       0       0       0       0       
      +0       0       0       0       0       0       0       0       0       0       0       0       0       0       0       
      +0       0       0       0       0       0       0       0       0       0       0       0       0       0       0       
      +0       0       0       0       0       0       0       0       0       0
  2179 ;;      Locals:         0       0       0       0       0       0       0       0       0       0       0       0       
      +0       0       0       0       0       0       0       0       0       0       0       0       0       0       0       
      +0       0       0       0       0       0       0       0       0       0       0       0       0       0       0       
      +0       0       0       0       0       0       0       0       0       0
  2180 ;;      Temps:          1       0       0       0       0       0       0       0       0       0       0       0       
      +0       0       0       0       0       0       0       0       0       0       0       0       0       0       0       
      +0       0       0       0       0       0       0       0       0       0       0       0       0       0       0       
      +0       0       0       0       0       0       0       0       0       0
  2181 ;;      Totals:         1       0       0       0       0       0       0       0       0       0       0       0       
      +0       0       0       0       0       0       0       0       0       0       0       0       0       0       0       
      +0       0       0       0       0       0       0       0       0       0       0       0       0       0       0       
      +0       0       0       0       0       0       0       0       0       0
  2182 ;;Total ram usage:        1 bytes
  2183 ;; Hardware stack levels used: 1
  2184 ;; Hardware stack levels required when called: 1
  2185 ;; This function calls:
  2186 ;;		_LCD_Cmd
  2187 ;; This function is called by:
  2188 ;;		_main
  2189 ;; This function uses a non-reentrant model
  2190 ;;
  2191                           
  2192     13B7                     _LCD_Init:	
  2193                           ;psect for function _LCD_Init
  2194                           
  2195     13B7                     l3389:	
  2196                           ;incstack = 0
  2197                           ; Regs used in _LCD_Init: [wreg+status,2+status,0+pclath+cstack]
  2198                           
  2199                           
  2200                           ;LCD_Analog_button.c: 133:     TRISEbits.TRISE0 = 0;
  2201     13B7  0140               	movlb	0	; select bank0
  2202     13B8  1015               	bcf	21,0	;volatile
  2203                           
  2204                           ;LCD_Analog_button.c: 134:     TRISCbits.TRISC0 = 0;
  2205     13B9  1013               	bcf	19,0	;volatile
  2206                           
  2207                           ;LCD_Analog_button.c: 135:     TRISCbits.TRISC1 = 0;
  2208     13BA  1093               	bcf	19,1	;volatile
  2209                           
  2210                           ;LCD_Analog_button.c: 136:     TRISCbits.TRISC4 = 0;
  2211     13BB  1213               	bcf	19,4	;volatile
  2212                           
  2213                           ;LCD_Analog_button.c: 137:     TRISCbits.TRISC5 = 0;
  2214     13BC  1293               	bcf	19,5	;volatile
  2215                           
  2216                           ;LCD_Analog_button.c: 138:     TRISCbits.TRISC6 = 0;
  2217     13BD  1313               	bcf	19,6	;volatile
  2218                           
  2219                           ;LCD_Analog_button.c: 139:     TRISCbits.TRISC7 = 0;
  2220     13BE  1393               	bcf	19,7	;volatile
  2221     13BF                     l3391:
  2222                           
  2223                           ;LCD_Analog_button.c: 141:     _delay((unsigned long)((15)*(4000000/4000.0)));
  2224     13BF  3014               	movlw	20
  2225     13C0  00F3               	movwf	??_LCD_Init
  2226     13C1  307A               	movlw	122
  2227     13C2                     u4367:
  2228     13C2  0B89               	decfsz	9,f
  2229     13C3  2BC2               	goto	u4367
  2230     13C4  0BF3               	decfsz	??_LCD_Init,f
  2231     13C5  2BC2               	goto	u4367
  2232     13C6                     l3393:
  2233                           
  2234                           ;LCD_Analog_button.c: 143:     LCD_Cmd(0x02);
  2235     13C6  3002               	movlw	2
  2236     13C7  3194  2453  3193   	fcall	_LCD_Cmd
  2237     13CA                     l3395:
  2238                           
  2239                           ;LCD_Analog_button.c: 144:     LCD_Cmd(0x28);
  2240     13CA  3028               	movlw	40
  2241     13CB  3194  2453  3193   	fcall	_LCD_Cmd
  2242     13CE                     l3397:
  2243                           
  2244                           ;LCD_Analog_button.c: 145:     LCD_Cmd(0x0C);
  2245     13CE  300C               	movlw	12
  2246     13CF  3194  2453  3193   	fcall	_LCD_Cmd
  2247     13D2                     l3399:
  2248                           
  2249                           ;LCD_Analog_button.c: 146:     LCD_Cmd(0x06);
  2250     13D2  3006               	movlw	6
  2251     13D3  3194  2453  3193   	fcall	_LCD_Cmd
  2252     13D6                     l3401:
  2253                           
  2254                           ;LCD_Analog_button.c: 147:     LCD_Cmd(0x80);
  2255     13D6  3080               	movlw	128
  2256     13D7  3194  2453  3193   	fcall	_LCD_Cmd
  2257     13DA                     l57:
  2258     13DA  0008               	return
  2259     13DB                     __end_of_LCD_Init:
  2260                           
  2261                           	psect	text2
  2262     129B                     __ptext2:	
  2263 ;; *************** function _LCD_Clear *****************
  2264 ;; Defined at:
  2265 ;;		line 184 in file "LCD_Analog_button.c"
  2266 ;; Parameters:    Size  Location     Type
  2267 ;;		None
  2268 ;; Auto vars:     Size  Location     Type
  2269 ;;		None
  2270 ;; Return value:  Size  Location     Type
  2271 ;;                  1    wreg      void 
  2272 ;; Registers used:
  2273 ;;		wreg, status,2, status,0, pclath, cstack
  2274 ;; Tracked objects:
  2275 ;;		On entry : 0/0
  2276 ;;		On exit  : 0/0
  2277 ;;		Unchanged: 0/0
  2278 ;; Data sizes:     COMMON   BANK0   BANK1   BANK2   BANK3   BANK4   BANK5   BANK6   BANK7   BANK8   BANK9  BANK10  BANK1
      +1  BANK12  BANK13  BANK14  BANK15  BANK16  BANK17  BANK18  BANK19  BANK20  BANK21  BANK22  BANK23  BANK24  BANK25  BANK2
      +6  BANK27  BANK28  BANK29  BANK30  BANK31  BANK32  BANK33  BANK34  BANK35  BANK36  BANK37  BANK38  BANK39  BANK40  BANK4
      +1  BANK42  BANK43  BANK44  BANK45  BANK46  BANK47  BANK48  BANK49  BANK50
  2279 ;;      Params:         0       0       0       0       0       0       0       0       0       0       0       0       
      +0       0       0       0       0       0       0       0       0       0       0       0       0       0       0       
      +0       0       0       0       0       0       0       0       0       0       0       0       0       0       0       
      +0       0       0       0       0       0       0       0       0       0
  2280 ;;      Locals:         0       0       0       0       0       0       0       0       0       0       0       0       
      +0       0       0       0       0       0       0       0       0       0       0       0       0       0       0       
      +0       0       0       0       0       0       0       0       0       0       0       0       0       0       0       
      +0       0       0       0       0       0       0       0       0       0
  2281 ;;      Temps:          1       0       0       0       0       0       0       0       0       0       0       0       
      +0       0       0       0       0       0       0       0       0       0       0       0       0       0       0       
      +0       0       0       0       0       0       0       0       0       0       0       0       0       0       0       
      +0       0       0       0       0       0       0       0       0       0
  2282 ;;      Totals:         1       0       0       0       0       0       0       0       0       0       0       0       
      +0       0       0       0       0       0       0       0       0       0       0       0       0       0       0       
      +0       0       0       0       0       0       0       0       0       0       0       0       0       0       0       
      +0       0       0       0       0       0       0       0       0       0
  2283 ;;Total ram usage:        1 bytes
  2284 ;; Hardware stack levels used: 1
  2285 ;; Hardware stack levels required when called: 1
  2286 ;; This function calls:
  2287 ;;		_LCD_Cmd
  2288 ;; This function is called by:
  2289 ;;		_main
  2290 ;; This function uses a non-reentrant model
  2291 ;;
  2292                           
  2293     129B                     _LCD_Clear:	
  2294                           ;psect for function _LCD_Clear
  2295                           
  2296     129B                     l3409:	
  2297                           ;incstack = 0
  2298                           ; Regs used in _LCD_Clear: [wreg+status,2+status,0+pclath+cstack]
  2299                           
  2300                           
  2301                           ;LCD_Analog_button.c: 185:     LCD_Cmd(0x01);
  2302     129B  3001               	movlw	1
  2303     129C  3194  2453  3192   	fcall	_LCD_Cmd
  2304     129F                     l3411:
  2305                           
  2306                           ;LCD_Analog_button.c: 186:     _delay((unsigned long)((2)*(4000000/4000.0)));
  2307     129F  3003               	movlw	3
  2308     12A0  00F3               	movwf	??_LCD_Clear
  2309     12A1  3098               	movlw	152
  2310     12A2                     u4377:
  2311     12A2  0B89               	decfsz	9,f
  2312     12A3  2AA2               	goto	u4377
  2313     12A4  0BF3               	decfsz	??_LCD_Clear,f
  2314     12A5  2AA2               	goto	u4377
  2315     12A6                     l72:
  2316     12A6  0008               	return
  2317     12A7                     __end_of_LCD_Clear:
  2318                           
  2319                           	psect	text3
  2320     1453                     __ptext3:	
  2321 ;; *************** function _LCD_Cmd *****************
  2322 ;; Defined at:
  2323 ;;		line 150 in file "LCD_Analog_button.c"
  2324 ;; Parameters:    Size  Location     Type
  2325 ;;  command         1    wreg     unsigned char 
  2326 ;; Auto vars:     Size  Location     Type
  2327 ;;  command         1    2[COMMON] unsigned char 
  2328 ;; Return value:  Size  Location     Type
  2329 ;;                  1    wreg      void 
  2330 ;; Registers used:
  2331 ;;		wreg, status,2, status,0
  2332 ;; Tracked objects:
  2333 ;;		On entry : 0/0
  2334 ;;		On exit  : 0/0
  2335 ;;		Unchanged: 0/0
  2336 ;; Data sizes:     COMMON   BANK0   BANK1   BANK2   BANK3   BANK4   BANK5   BANK6   BANK7   BANK8   BANK9  BANK10  BANK1
      +1  BANK12  BANK13  BANK14  BANK15  BANK16  BANK17  BANK18  BANK19  BANK20  BANK21  BANK22  BANK23  BANK24  BANK25  BANK2
      +6  BANK27  BANK28  BANK29  BANK30  BANK31  BANK32  BANK33  BANK34  BANK35  BANK36  BANK37  BANK38  BANK39  BANK40  BANK4
      +1  BANK42  BANK43  BANK44  BANK45  BANK46  BANK47  BANK48  BANK49  BANK50
  2337 ;;      Params:         0       0       0       0       0       0       0       0       0       0       0       0       
      +0       0       0       0       0       0       0       0       0       0       0       0       0       0       0       
      +0       0       0       0       0       0       0       0       0       0       0       0       0       0       0       
      +0       0       0       0       0       0       0       0       0       0
  2338 ;;      Locals:         1       0       0       0       0       0       0       0       0       0       0       0       
      +0       0       0       0       0       0       0       0       0       0       0       0       0       0       0       
      +0       0       0       0       0       0       0       0       0       0       0       0       0       0       0       
      +0       0       0       0       0       0       0       0       0       0
  2339 ;;      Temps:          2       0       0       0       0       0       0       0       0       0       0       0       
      +0       0       0       0       0       0       0       0       0       0       0       0       0       0       0       
      +0       0       0       0       0       0       0       0       0       0       0       0       0       0       0       
      +0       0       0       0       0       0       0       0       0       0
  2340 ;;      Totals:         3       0       0       0       0       0       0       0       0       0       0       0       
      +0       0       0       0       0       0       0       0       0       0       0       0       0       0       0       
      +0       0       0       0       0       0       0       0       0       0       0       0       0       0       0       
      +0       0       0       0       0       0       0       0       0       0
  2341 ;;Total ram usage:        3 bytes
  2342 ;; Hardware stack levels used: 1
  2343 ;; This function calls:
  2344 ;;		Nothing
  2345 ;; This function is called by:
  2346 ;;		_main
  2347 ;;		_LCD_Init
  2348 ;;		_LCD_Clear
  2349 ;; This function uses a non-reentrant model
  2350 ;;
  2351                           
  2352     1453                     _LCD_Cmd:	
  2353                           ;psect for function _LCD_Cmd
  2354                           
  2355                           
  2356                           ;incstack = 0
  2357                           ; Regs used in _LCD_Cmd: [wreg+status,2+status,0]
  2358                           ;LCD_Cmd@command stored from wreg
  2359     1453  00F2               	movwf	LCD_Cmd@command
  2360     1454                     l3357:
  2361                           
  2362                           ;LCD_Analog_button.c: 151:     PORTCbits.RC0 = 0;
  2363     1454  0140               	movlb	0	; select bank0
  2364     1455  100E               	bcf	14,0	;volatile
  2365     1456                     l3359:
  2366                           
  2367                           ;LCD_Analog_button.c: 152:     PORTC = (PORTC & 0x0F) | (command & 0xF0);
  2368     1456  30F0               	movlw	240
  2369     1457  0572               	andwf	LCD_Cmd@command,w
  2370     1458  00F0               	movwf	??_LCD_Cmd
  2371     1459  080E               	movf	14,w	;volatile
  2372     145A  390F               	andlw	15
  2373     145B  0470               	iorwf	??_LCD_Cmd,w
  2374     145C  008E               	movwf	14	;volatile
  2375     145D                     l3361:
  2376                           
  2377                           ;LCD_Analog_button.c: 153:     PORTEbits.RE0 = 1;
  2378     145D  1410               	bsf	16,0	;volatile
  2379     145E                     l3363:
  2380                           
  2381                           ;LCD_Analog_button.c: 154:     _delay((unsigned long)((1)*(4000000/4000000.0)));
  2382     145E  0000               	nop
  2383     145F                     l3365:
  2384                           
  2385                           ;LCD_Analog_button.c: 155:     PORTEbits.RE0 = 0;
  2386     145F  0140               	movlb	0	; select bank0
  2387     1460  1010               	bcf	16,0	;volatile
  2388     1461                     l3367:
  2389                           
  2390                           ;LCD_Analog_button.c: 156:     _delay((unsigned long)((200)*(4000000/4000000.0)));
  2391     1461  3042               	movlw	66
  2392     1462                     u4387:
  2393     1462  0B89               	decfsz	9,f
  2394     1463  2C62               	goto	u4387
  2395     1464  3200               	nop2
  2396     1465                     l3369:
  2397                           
  2398                           ;LCD_Analog_button.c: 157:     PORTC = (PORTC & 0x0F) | ((command << 4) & 0xF0);
  2399     1465  0872               	movf	LCD_Cmd@command,w
  2400     1466  00F0               	movwf	??_LCD_Cmd
  2401     1467  3004               	movlw	4
  2402     1468                     u4335:
  2403     1468  35F0               	lslf	??_LCD_Cmd,f
  2404     1469  0B89               	decfsz	9,f
  2405     146A  2C68               	goto	u4335
  2406     146B  30F0               	movlw	240
  2407     146C  0570               	andwf	??_LCD_Cmd,w
  2408     146D  00F1               	movwf	??_LCD_Cmd+1
  2409     146E  0140               	movlb	0	; select bank0
  2410     146F  080E               	movf	14,w	;volatile
  2411     1470  390F               	andlw	15
  2412     1471  0471               	iorwf	??_LCD_Cmd+1,w
  2413     1472  008E               	movwf	14	;volatile
  2414     1473                     l3371:
  2415                           
  2416                           ;LCD_Analog_button.c: 158:     PORTEbits.RE0 = 1;
  2417     1473  1410               	bsf	16,0	;volatile
  2418     1474                     l3373:
  2419                           
  2420                           ;LCD_Analog_button.c: 159:     _delay((unsigned long)((1)*(4000000/4000000.0)));
  2421     1474  0000               	nop
  2422     1475                     l3375:
  2423                           
  2424                           ;LCD_Analog_button.c: 160:     PORTEbits.RE0 = 0;
  2425     1475  0140               	movlb	0	; select bank0
  2426     1476  1010               	bcf	16,0	;volatile
  2427                           
  2428                           ;LCD_Analog_button.c: 161:     _delay((unsigned long)((2)*(4000000/4000.0)));
  2429     1477  3003               	movlw	3
  2430     1478  00F0               	movwf	??_LCD_Cmd
  2431     1479  3098               	movlw	152
  2432     147A                     u4397:
  2433     147A  0B89               	decfsz	9,f
  2434     147B  2C7A               	goto	u4397
  2435     147C  0BF0               	decfsz	??_LCD_Cmd,f
  2436     147D  2C7A               	goto	u4397
  2437     147E                     l60:
  2438     147E  0008               	return
  2439     147F                     __end_of_LCD_Cmd:
  2440                           
  2441                           	psect	text4
  2442     0920                     __ptext4:	
  2443 ;; *************** function _Display_Time *****************
  2444 ;; Defined at:
  2445 ;;		line 195 in file "LCD_Analog_button.c"
  2446 ;; Parameters:    Size  Location     Type
  2447 ;;  seconds         2    0[BANK0 ] unsigned short 
  2448 ;; Auto vars:     Size  Location     Type
  2449 ;;  hours           2    5[BANK0 ] unsigned short 
  2450 ;;  minutes         2    3[BANK0 ] unsigned short 
  2451 ;; Return value:  Size  Location     Type
  2452 ;;                  1    wreg      void 
  2453 ;; Registers used:
  2454 ;;		wreg, status,2, status,0, pclath, cstack
  2455 ;; Tracked objects:
  2456 ;;		On entry : 0/0
  2457 ;;		On exit  : 0/0
  2458 ;;		Unchanged: 0/0
  2459 ;; Data sizes:     COMMON   BANK0   BANK1   BANK2   BANK3   BANK4   BANK5   BANK6   BANK7   BANK8   BANK9  BANK10  BANK1
      +1  BANK12  BANK13  BANK14  BANK15  BANK16  BANK17  BANK18  BANK19  BANK20  BANK21  BANK22  BANK23  BANK24  BANK25  BANK2
      +6  BANK27  BANK28  BANK29  BANK30  BANK31  BANK32  BANK33  BANK34  BANK35  BANK36  BANK37  BANK38  BANK39  BANK40  BANK4
      +1  BANK42  BANK43  BANK44  BANK45  BANK46  BANK47  BANK48  BANK49  BANK50
  2460 ;;      Params:         0       2       0       0       0       0       0       0       0       0       0       0       
      +0       0       0       0       0       0       0       0       0       0       0       0       0       0       0       
      +0       0       0       0       0       0       0       0       0       0       0       0       0       0       0       
      +0       0       0       0       0       0       0       0       0       0
  2461 ;;      Locals:         0       4       0       0       0       0       0       0       0       0       0       0       
      +0       0       0       0       0       0       0       0       0       0       0       0       0       0       0       
      +0       0       0       0       0       0       0       0       0       0       0       0       0       0       0       
      +0       0       0       0       0       0       0       0       0       0
  2462 ;;      Temps:          0       1       0       0       0       0       0       0       0       0       0       0       
      +0       0       0       0       0       0       0       0       0       0       0       0       0       0       0       
      +0       0       0       0       0       0       0       0       0       0       0       0       0       0       0       
      +0       0       0       0       0       0       0       0       0       0
  2463 ;;      Totals:         0       7       0       0       0       0       0       0       0       0       0       0       
      +0       0       0       0       0       0       0       0       0       0       0       0       0       0       0       
      +0       0       0       0       0       0       0       0       0       0       0       0       0       0       0       
      +0       0       0       0       0       0       0       0       0       0
  2464 ;;Total ram usage:        7 bytes
  2465 ;; Hardware stack levels used: 1
  2466 ;; Hardware stack levels required when called: 1
  2467 ;; This function calls:
  2468 ;;		___lwdiv
  2469 ;;		___lwmod
  2470 ;; This function is called by:
  2471 ;;		_main
  2472 ;; This function uses a non-reentrant model
  2473 ;;
  2474                           
  2475     0920                     _Display_Time:	
  2476                           ;psect for function _Display_Time
  2477                           
  2478     0920                     l3417:	
  2479                           ;incstack = 0
  2480                           ; Regs used in _Display_Time: [wreg+status,2+status,0+pclath+cstack]
  2481                           
  2482                           
  2483                           ;LCD_Analog_button.c: 196:     uint16_t hours = seconds / 3600;
  2484     0920  3010               	movlw	16
  2485     0921  00F6               	movwf	___lwdiv@divisor
  2486     0922  300E               	movlw	14
  2487     0923  00F7               	movwf	___lwdiv@divisor+1
  2488     0924  0140               	movlb	0	; select bank0
  2489     0925  0821               	movf	Display_Time@seconds+1,w
  2490     0926  00F9               	movwf	___lwdiv@dividend+1
  2491     0927  0820               	movf	Display_Time@seconds,w
  2492     0928  00F8               	movwf	___lwdiv@dividend
  2493     0929  3180  2005  3189   	fcall	___lwdiv
  2494     092C  0877               	movf	?___lwdiv+1,w
  2495     092D  0140               	movlb	0	; select bank0
  2496     092E  00A6               	movwf	Display_Time@hours+1
  2497     092F  0876               	movf	?___lwdiv,w
  2498     0930  00A5               	movwf	Display_Time@hours
  2499                           
  2500                           ;LCD_Analog_button.c: 197:     uint16_t minutes = (seconds % 3600) / 60;
  2501     0931  303C               	movlw	60
  2502     0932  00F6               	movwf	___lwdiv@divisor
  2503     0933  3000               	movlw	0
  2504     0934  00F7               	movwf	___lwdiv@divisor+1
  2505     0935  0821               	movf	Display_Time@seconds+1,w
  2506     0936  00F3               	movwf	___lwmod@dividend+1
  2507     0937  0820               	movf	Display_Time@seconds,w
  2508     0938  00F2               	movwf	___lwmod@dividend
  2509     0939  3010               	movlw	16
  2510     093A  00F0               	movwf	___lwmod@divisor
  2511     093B  300E               	movlw	14
  2512     093C  00F1               	movwf	___lwmod@divisor+1
  2513     093D  3188  2001  3189   	fcall	___lwmod
  2514     0940  0871               	movf	?___lwmod+1,w
  2515     0941  00F9               	movwf	___lwdiv@dividend+1
  2516     0942  0870               	movf	?___lwmod,w
  2517     0943  00F8               	movwf	___lwdiv@dividend
  2518     0944  3180  2005  3189   	fcall	___lwdiv
  2519     0947  0877               	movf	?___lwdiv+1,w
  2520     0948  0140               	movlb	0	; select bank0
  2521     0949  00A4               	movwf	Display_Time@minutes+1
  2522     094A  0876               	movf	?___lwdiv,w
  2523     094B  00A3               	movwf	Display_Time@minutes
  2524                           
  2525                           ;LCD_Analog_button.c: 198:     seconds = seconds % 60;
  2526     094C  303C               	movlw	60
  2527     094D  00F0               	movwf	___lwmod@divisor
  2528     094E  3000               	movlw	0
  2529     094F  00F1               	movwf	___lwmod@divisor+1
  2530     0950  0821               	movf	Display_Time@seconds+1,w
  2531     0951  00F3               	movwf	___lwmod@dividend+1
  2532     0952  0820               	movf	Display_Time@seconds,w
  2533     0953  00F2               	movwf	___lwmod@dividend
  2534     0954  3188  2001  3189   	fcall	___lwmod
  2535     0957  0871               	movf	?___lwmod+1,w
  2536     0958  0140               	movlb	0	; select bank0
  2537     0959  00A1               	movwf	Display_Time@seconds+1
  2538     095A  0870               	movf	?___lwmod,w
  2539     095B  00A0               	movwf	Display_Time@seconds
  2540                           
  2541                           ;LCD_Analog_button.c: 201:     PORTBbits.RB0 = hours % 10;
  2542     095C  300A               	movlw	10
  2543     095D  00F0               	movwf	___lwmod@divisor
  2544     095E  3000               	movlw	0
  2545     095F  00F1               	movwf	___lwmod@divisor+1
  2546     0960  0826               	movf	Display_Time@hours+1,w
  2547     0961  00F3               	movwf	___lwmod@dividend+1
  2548     0962  0825               	movf	Display_Time@hours,w
  2549     0963  00F2               	movwf	___lwmod@dividend
  2550     0964  3188  2001  3189   	fcall	___lwmod
  2551     0967  0140               	movlb	0	; select bank0
  2552     0968  080D               	movf	13,w	;volatile
  2553     0969  0670               	xorwf	?___lwmod,w
  2554     096A  39FE               	andlw	-2
  2555     096B  0670               	xorwf	?___lwmod,w
  2556     096C  008D               	movwf	13	;volatile
  2557                           
  2558                           ;LCD_Analog_button.c: 202:     PORTBbits.RB1 = (hours / 10) % 10;
  2559     096D  300A               	movlw	10
  2560     096E  00F0               	movwf	___lwmod@divisor
  2561     096F  3000               	movlw	0
  2562     0970  00F1               	movwf	___lwmod@divisor+1
  2563     0971  300A               	movlw	10
  2564     0972  00F6               	movwf	___lwdiv@divisor
  2565     0973  3000               	movlw	0
  2566     0974  00F7               	movwf	___lwdiv@divisor+1
  2567     0975  0826               	movf	Display_Time@hours+1,w
  2568     0976  00F9               	movwf	___lwdiv@dividend+1
  2569     0977  0825               	movf	Display_Time@hours,w
  2570     0978  00F8               	movwf	___lwdiv@dividend
  2571     0979  3180  2005  3189   	fcall	___lwdiv
  2572     097C  0877               	movf	?___lwdiv+1,w
  2573     097D  00F3               	movwf	___lwmod@dividend+1
  2574     097E  0876               	movf	?___lwdiv,w
  2575     097F  00F2               	movwf	___lwmod@dividend
  2576     0980  3188  2001  3189   	fcall	___lwmod
  2577     0983  0870               	movf	?___lwmod,w
  2578     0984  0140               	movlb	0	; select bank0
  2579     0985  00A2               	movwf	??_Display_Time
  2580     0986  0DA2               	rlf	??_Display_Time,f
  2581     0987  080D               	movf	13,w	;volatile
  2582     0988  0622               	xorwf	??_Display_Time,w
  2583     0989  39FD               	andlw	-3
  2584     098A  0622               	xorwf	??_Display_Time,w
  2585     098B  008D               	movwf	13	;volatile
  2586                           
  2587                           ;LCD_Analog_button.c: 203:     PORTBbits.RB2 = (hours / 100) % 10;
  2588     098C  300A               	movlw	10
  2589     098D  00F0               	movwf	___lwmod@divisor
  2590     098E  3000               	movlw	0
  2591     098F  00F1               	movwf	___lwmod@divisor+1
  2592     0990  3064               	movlw	100
  2593     0991  00F6               	movwf	___lwdiv@divisor
  2594     0992  3000               	movlw	0
  2595     0993  00F7               	movwf	___lwdiv@divisor+1
  2596     0994  0826               	movf	Display_Time@hours+1,w
  2597     0995  00F9               	movwf	___lwdiv@dividend+1
  2598     0996  0825               	movf	Display_Time@hours,w
  2599     0997  00F8               	movwf	___lwdiv@dividend
  2600     0998  3180  2005  3189   	fcall	___lwdiv
  2601     099B  0877               	movf	?___lwdiv+1,w
  2602     099C  00F3               	movwf	___lwmod@dividend+1
  2603     099D  0876               	movf	?___lwdiv,w
  2604     099E  00F2               	movwf	___lwmod@dividend
  2605     099F  3188  2001  3189   	fcall	___lwmod
  2606     09A2  0870               	movf	?___lwmod,w
  2607     09A3  0140               	movlb	0	; select bank0
  2608     09A4  00A2               	movwf	??_Display_Time
  2609     09A5  0DA2               	rlf	??_Display_Time,f
  2610     09A6  0DA2               	rlf	??_Display_Time,f
  2611     09A7  080D               	movf	13,w	;volatile
  2612     09A8  0622               	xorwf	??_Display_Time,w
  2613     09A9  39FB               	andlw	-5
  2614     09AA  0622               	xorwf	??_Display_Time,w
  2615     09AB  008D               	movwf	13	;volatile
  2616                           
  2617                           ;LCD_Analog_button.c: 204:     PORTBbits.RB3 = (hours / 1000) % 10;
  2618     09AC  300A               	movlw	10
  2619     09AD  00F0               	movwf	___lwmod@divisor
  2620     09AE  3000               	movlw	0
  2621     09AF  00F1               	movwf	___lwmod@divisor+1
  2622     09B0  30E8               	movlw	232
  2623     09B1  00F6               	movwf	___lwdiv@divisor
  2624     09B2  3003               	movlw	3
  2625     09B3  00F7               	movwf	___lwdiv@divisor+1
  2626     09B4  0826               	movf	Display_Time@hours+1,w
  2627     09B5  00F9               	movwf	___lwdiv@dividend+1
  2628     09B6  0825               	movf	Display_Time@hours,w
  2629     09B7  00F8               	movwf	___lwdiv@dividend
  2630     09B8  3180  2005  3189   	fcall	___lwdiv
  2631     09BB  0877               	movf	?___lwdiv+1,w
  2632     09BC  00F3               	movwf	___lwmod@dividend+1
  2633     09BD  0876               	movf	?___lwdiv,w
  2634     09BE  00F2               	movwf	___lwmod@dividend
  2635     09BF  3188  2001  3189   	fcall	___lwmod
  2636     09C2  0870               	movf	?___lwmod,w
  2637     09C3  0140               	movlb	0	; select bank0
  2638     09C4  00A2               	movwf	??_Display_Time
  2639     09C5  0DA2               	rlf	??_Display_Time,f
  2640     09C6  0DA2               	rlf	??_Display_Time,f
  2641     09C7  0DA2               	rlf	??_Display_Time,f
  2642     09C8  080D               	movf	13,w	;volatile
  2643     09C9  0622               	xorwf	??_Display_Time,w
  2644     09CA  39F7               	andlw	-9
  2645     09CB  0622               	xorwf	??_Display_Time,w
  2646     09CC  008D               	movwf	13	;volatile
  2647                           
  2648                           ;LCD_Analog_button.c: 208:     PORTBbits.RB4 = minutes % 10;
  2649     09CD  300A               	movlw	10
  2650     09CE  00F0               	movwf	___lwmod@divisor
  2651     09CF  3000               	movlw	0
  2652     09D0  00F1               	movwf	___lwmod@divisor+1
  2653     09D1  0824               	movf	Display_Time@minutes+1,w
  2654     09D2  00F3               	movwf	___lwmod@dividend+1
  2655     09D3  0823               	movf	Display_Time@minutes,w
  2656     09D4  00F2               	movwf	___lwmod@dividend
  2657     09D5  3188  2001  3189   	fcall	___lwmod
  2658     09D8  0870               	movf	?___lwmod,w
  2659     09D9  0140               	movlb	0	; select bank0
  2660     09DA  00A2               	movwf	??_Display_Time
  2661     09DB  0EA2               	swapf	??_Display_Time,f
  2662     09DC  080D               	movf	13,w	;volatile
  2663     09DD  0622               	xorwf	??_Display_Time,w
  2664     09DE  39EF               	andlw	-17
  2665     09DF  0622               	xorwf	??_Display_Time,w
  2666     09E0  008D               	movwf	13	;volatile
  2667                           
  2668                           ;LCD_Analog_button.c: 209:     PORTBbits.RB5 = (minutes / 10) % 10;
  2669     09E1  300A               	movlw	10
  2670     09E2  00F0               	movwf	___lwmod@divisor
  2671     09E3  3000               	movlw	0
  2672     09E4  00F1               	movwf	___lwmod@divisor+1
  2673     09E5  300A               	movlw	10
  2674     09E6  00F6               	movwf	___lwdiv@divisor
  2675     09E7  3000               	movlw	0
  2676     09E8  00F7               	movwf	___lwdiv@divisor+1
  2677     09E9  0824               	movf	Display_Time@minutes+1,w
  2678     09EA  00F9               	movwf	___lwdiv@dividend+1
  2679     09EB  0823               	movf	Display_Time@minutes,w
  2680     09EC  00F8               	movwf	___lwdiv@dividend
  2681     09ED  3180  2005  3189   	fcall	___lwdiv
  2682     09F0  0877               	movf	?___lwdiv+1,w
  2683     09F1  00F3               	movwf	___lwmod@dividend+1
  2684     09F2  0876               	movf	?___lwdiv,w
  2685     09F3  00F2               	movwf	___lwmod@dividend
  2686     09F4  3188  2001  3189   	fcall	___lwmod
  2687     09F7  0870               	movf	?___lwmod,w
  2688     09F8  0140               	movlb	0	; select bank0
  2689     09F9  00A2               	movwf	??_Display_Time
  2690     09FA  0EA2               	swapf	??_Display_Time,f
  2691     09FB  0DA2               	rlf	??_Display_Time,f
  2692     09FC  080D               	movf	13,w	;volatile
  2693     09FD  0622               	xorwf	??_Display_Time,w
  2694     09FE  39DF               	andlw	-33
  2695     09FF  0622               	xorwf	??_Display_Time,w
  2696     0A00  008D               	movwf	13	;volatile
  2697                           
  2698                           ;LCD_Analog_button.c: 213:     PORTBbits.RB6 = seconds % 10;
  2699     0A01  300A               	movlw	10
  2700     0A02  00F0               	movwf	___lwmod@divisor
  2701     0A03  3000               	movlw	0
  2702     0A04  00F1               	movwf	___lwmod@divisor+1
  2703     0A05  0821               	movf	Display_Time@seconds+1,w
  2704     0A06  00F3               	movwf	___lwmod@dividend+1
  2705     0A07  0820               	movf	Display_Time@seconds,w
  2706     0A08  00F2               	movwf	___lwmod@dividend
  2707     0A09  3188  2001  3189   	fcall	___lwmod
  2708     0A0C  0870               	movf	?___lwmod,w
  2709     0A0D  0140               	movlb	0	; select bank0
  2710     0A0E  00A2               	movwf	??_Display_Time
  2711     0A0F  0EA2               	swapf	??_Display_Time,f
  2712     0A10  0DA2               	rlf	??_Display_Time,f
  2713     0A11  0DA2               	rlf	??_Display_Time,f
  2714     0A12  080D               	movf	13,w	;volatile
  2715     0A13  0622               	xorwf	??_Display_Time,w
  2716     0A14  39BF               	andlw	-65
  2717     0A15  0622               	xorwf	??_Display_Time,w
  2718     0A16  008D               	movwf	13	;volatile
  2719     0A17                     l78:
  2720     0A17  0008               	return
  2721     0A18                     __end_of_Display_Time:
  2722                           
  2723                           	psect	text5
  2724     12A7                     __ptext5:	
  2725 ;; *************** function _Display_Oxygen_Level *****************
  2726 ;; Defined at:
  2727 ;;		line 189 in file "LCD_Analog_button.c"
  2728 ;; Parameters:    Size  Location     Type
  2729 ;;  level           2   56[BANK1 ] unsigned short 
  2730 ;; Auto vars:     Size  Location     Type
  2731 ;;  buffer          5   72[BANK0 ] unsigned char [5]
  2732 ;; Return value:  Size  Location     Type
  2733 ;;                  1    wreg      void 
  2734 ;; Registers used:
  2735 ;;		wreg, fsr0l, fsr0h, fsr1l, fsr1h, status,2, status,0, pclath, cstack
  2736 ;; Tracked objects:
  2737 ;;		On entry : 0/0
  2738 ;;		On exit  : 0/0
  2739 ;;		Unchanged: 0/0
  2740 ;; Data sizes:     COMMON   BANK0   BANK1   BANK2   BANK3   BANK4   BANK5   BANK6   BANK7   BANK8   BANK9  BANK10  BANK1
      +1  BANK12  BANK13  BANK14  BANK15  BANK16  BANK17  BANK18  BANK19  BANK20  BANK21  BANK22  BANK23  BANK24  BANK25  BANK2
      +6  BANK27  BANK28  BANK29  BANK30  BANK31  BANK32  BANK33  BANK34  BANK35  BANK36  BANK37  BANK38  BANK39  BANK40  BANK4
      +1  BANK42  BANK43  BANK44  BANK45  BANK46  BANK47  BANK48  BANK49  BANK50
  2741 ;;      Params:         0       0       2       0       0       0       0       0       0       0       0       0       
      +0       0       0       0       0       0       0       0       0       0       0       0       0       0       0       
      +0       0       0       0       0       0       0       0       0       0       0       0       0       0       0       
      +0       0       0       0       0       0       0       0       0       0
  2742 ;;      Locals:         0       5       0       0       0       0       0       0       0       0       0       0       
      +0       0       0       0       0       0       0       0       0       0       0       0       0       0       0       
      +0       0       0       0       0       0       0       0       0       0       0       0       0       0       0       
      +0       0       0       0       0       0       0       0       0       0
  2743 ;;      Temps:          0       0       0       0       0       0       0       0       0       0       0       0       
      +0       0       0       0       0       0       0       0       0       0       0       0       0       0       0       
      +0       0       0       0       0       0       0       0       0       0       0       0       0       0       0       
      +0       0       0       0       0       0       0       0       0       0
  2744 ;;      Totals:         0       5       2       0       0       0       0       0       0       0       0       0       
      +0       0       0       0       0       0       0       0       0       0       0       0       0       0       0       
      +0       0       0       0       0       0       0       0       0       0       0       0       0       0       0       
      +0       0       0       0       0       0       0       0       0       0
  2745 ;;Total ram usage:        7 bytes
  2746 ;; Hardware stack levels used: 1
  2747 ;; Hardware stack levels required when called: 8
  2748 ;; This function calls:
  2749 ;;		_LCD_String
  2750 ;;		_sprintf
  2751 ;; This function is called by:
  2752 ;;		_main
  2753 ;; This function uses a non-reentrant model
  2754 ;;
  2755                           
  2756     12A7                     _Display_Oxygen_Level:	
  2757                           ;psect for function _Display_Oxygen_Level
  2758                           
  2759     12A7                     l3413:	
  2760                           ;incstack = 0
  2761                           ; Regs used in _Display_Oxygen_Level: [wreg-fsr1h+status,2+status,0+pclath+cstack]
  2762                           
  2763                           
  2764                           ;LCD_Analog_button.c: 190:     char buffer[5];;LCD_Analog_button.c: 191:     sprintf(buf
      +                          fer, "%3u%%", level);
  2765     12A7  300F               	movlw	low (STR_2| (0+32768))
  2766     12A8  0141               	movlb	1	; select bank1
  2767     12A9  00D2               	movwf	sprintf@fmt^(0+128)
  2768     12AA  3098               	movlw	high (STR_2| (0+32768))
  2769     12AB  00D3               	movwf	(sprintf@fmt^(0+128)+1)
  2770     12AC  0859               	movf	(Display_Oxygen_Level@level+1)^(0+128),w
  2771     12AD  00D5               	movwf	((?_sprintf+1)^(0+128)+2)
  2772     12AE  0858               	movf	Display_Oxygen_Level@level^(0+128),w
  2773     12AF  00D4               	movwf	(?_sprintf^(0+128)+2)
  2774     12B0  3068               	movlw	(low (Display_Oxygen_Level@buffer| 0))& (0+255)
  2775     12B1  3192  22D3  3192   	fcall	_sprintf
  2776     12B4                     l3415:
  2777                           
  2778                           ;LCD_Analog_button.c: 192:     LCD_String(buffer);
  2779     12B4  3068               	movlw	low Display_Oxygen_Level@buffer
  2780     12B5  00F3               	movwf	LCD_String@text
  2781     12B6  3000               	movlw	high Display_Oxygen_Level@buffer
  2782     12B7  00F4               	movwf	LCD_String@text+1
  2783     12B8  3192  22BC  3192   	fcall	_LCD_String
  2784     12BB                     l75:
  2785     12BB  0008               	return
  2786     12BC                     __end_of_Display_Oxygen_Level:
  2787                           
  2788                           	psect	text6
  2789     12D3                     __ptext6:	
  2790 ;; *************** function _sprintf *****************
  2791 ;; Defined at:
  2792 ;;		line 9 in file "C:\Program Files\Microchip\xc8\v2.41\pic\sources\c99\common\nf_sprintf.c"
  2793 ;; Parameters:    Size  Location     Type
  2794 ;;  s               1    wreg     PTR unsigned char 
  2795 ;;		 -> Display_Temperature@buffer(6), Display_Oxygen_Level@buffer(5), 
  2796 ;;  fmt             2   50[BANK1 ] PTR const unsigned char 
  2797 ;;		 -> STR_3(6), STR_2(6), 
  2798 ;; Auto vars:     Size  Location     Type
  2799 ;;  s               1   59[BANK0 ] PTR unsigned char 
  2800 ;;		 -> Display_Temperature@buffer(6), Display_Oxygen_Level@buffer(5), 
  2801 ;;  f              11   61[BANK0 ] struct _IO_FILE
  2802 ;;  ret             2    0        int 
  2803 ;;  ap              1   60[BANK0 ] PTR void [1]
  2804 ;;		 -> ?_sprintf(2), 
  2805 ;; Return value:  Size  Location     Type
  2806 ;;                  2   50[BANK1 ] int 
  2807 ;; Registers used:
  2808 ;;		wreg, fsr0l, fsr0h, fsr1l, fsr1h, status,2, status,0, pclath, cstack
  2809 ;; Tracked objects:
  2810 ;;		On entry : 0/0
  2811 ;;		On exit  : 0/0
  2812 ;;		Unchanged: 0/0
  2813 ;; Data sizes:     COMMON   BANK0   BANK1   BANK2   BANK3   BANK4   BANK5   BANK6   BANK7   BANK8   BANK9  BANK10  BANK1
      +1  BANK12  BANK13  BANK14  BANK15  BANK16  BANK17  BANK18  BANK19  BANK20  BANK21  BANK22  BANK23  BANK24  BANK25  BANK2
      +6  BANK27  BANK28  BANK29  BANK30  BANK31  BANK32  BANK33  BANK34  BANK35  BANK36  BANK37  BANK38  BANK39  BANK40  BANK4
      +1  BANK42  BANK43  BANK44  BANK45  BANK46  BANK47  BANK48  BANK49  BANK50
  2814 ;;      Params:         0       0       6       0       0       0       0       0       0       0       0       0       
      +0       0       0       0       0       0       0       0       0       0       0       0       0       0       0       
      +0       0       0       0       0       0       0       0       0       0       0       0       0       0       0       
      +0       0       0       0       0       0       0       0       0       0
  2815 ;;      Locals:         0      13       0       0       0       0       0       0       0       0       0       0       
      +0       0       0       0       0       0       0       0       0       0       0       0       0       0       0       
      +0       0       0       0       0       0       0       0       0       0       0       0       0       0       0       
      +0       0       0       0       0       0       0       0       0       0
  2816 ;;      Temps:          0       1       0       0       0       0       0       0       0       0       0       0       
      +0       0       0       0       0       0       0       0       0       0       0       0       0       0       0       
      +0       0       0       0       0       0       0       0       0       0       0       0       0       0       0       
      +0       0       0       0       0       0       0       0       0       0
  2817 ;;      Totals:         0      14       6       0       0       0       0       0       0       0       0       0       
      +0       0       0       0       0       0       0       0       0       0       0       0       0       0       0       
      +0       0       0       0       0       0       0       0       0       0       0       0       0       0       0       
      +0       0       0       0       0       0       0       0       0       0
  2818 ;;Total ram usage:       20 bytes
  2819 ;; Hardware stack levels used: 1
  2820 ;; Hardware stack levels required when called: 7
  2821 ;; This function calls:
  2822 ;;		_vfprintf
  2823 ;; This function is called by:
  2824 ;;		_Display_Oxygen_Level
  2825 ;;		_Display_Temperature
  2826 ;; This function uses a non-reentrant model
  2827 ;;
  2828                           
  2829     12D3                     _sprintf:	
  2830                           ;psect for function _sprintf
  2831                           
  2832                           
  2833                           ;incstack = 0
  2834                           ; Regs used in _sprintf: [wreg-fsr1h+status,2+status,0+pclath+cstack]
  2835                           ;sprintf@s stored from wreg
  2836     12D3  0140               	movlb	0	; select bank0
  2837     12D4  00DB               	movwf	sprintf@s
  2838     12D5                     l3377:
  2839     12D5  30D4               	movlw	(low ((?_sprintf| 0+2)))& (0+255)
  2840     12D6  00DC               	movwf	sprintf@ap
  2841     12D7  085B               	movf	sprintf@s,w
  2842     12D8  00DD               	movwf	sprintf@f
  2843     12D9                     l3379:
  2844     12D9  01DF               	clrf	sprintf@f+2
  2845     12DA  01E0               	clrf	sprintf@f+3
  2846     12DB                     l3381:
  2847     12DB  01E6               	clrf	sprintf@f+9
  2848     12DC  01E7               	clrf	sprintf@f+10
  2849     12DD                     l3383:
  2850     12DD  0141               	movlb	1	; select bank1
  2851     12DE  0853               	movf	(sprintf@fmt+1)^(0+128),w
  2852     12DF  00D0               	movwf	(vfprintf@fmt+1)^(0+128)
  2853     12E0  0852               	movf	sprintf@fmt^(0+128),w
  2854     12E1  00CF               	movwf	vfprintf@fmt^(0+128)
  2855     12E2  305C               	movlw	(low (sprintf@ap| 0))& (0+255)
  2856     12E3  00D1               	movwf	vfprintf@ap^(0+128)
  2857     12E4  305D               	movlw	(low (sprintf@f| 0))& (0+255)
  2858     12E5  3193  2394  3192   	fcall	_vfprintf
  2859     12E8                     l3385:
  2860     12E8  0140               	movlb	0	; select bank0
  2861     12E9  085F               	movf	sprintf@f+2,w
  2862     12EA  075B               	addwf	sprintf@s,w
  2863     12EB  00DA               	movwf	??_sprintf
  2864     12EC  085A               	movf	??_sprintf,w
  2865     12ED  0086               	movwf	6
  2866     12EE  0187               	clrf	7
  2867     12EF  0181               	clrf	1
  2868     12F0                     l702:
  2869     12F0  0008               	return
  2870     12F1                     __end_of_sprintf:
  2871                           
  2872                           	psect	text7
  2873     1394                     __ptext7:	
  2874 ;; *************** function _vfprintf *****************
  2875 ;; Defined at:
  2876 ;;		line 1546 in file "C:\Program Files\Microchip\xc8\v2.41\pic\sources\c99\common\doprnt.c"
  2877 ;; Parameters:    Size  Location     Type
  2878 ;;  fp              1    wreg     PTR struct _IO_FILE
  2879 ;;		 -> sprintf@f(11), 
  2880 ;;  fmt             2   47[BANK1 ] PTR const unsigned char 
  2881 ;;		 -> STR_3(6), STR_2(6), 
  2882 ;;  ap              1   49[BANK1 ] PTR PTR void 
  2883 ;;		 -> sprintf@ap(1), 
  2884 ;; Auto vars:     Size  Location     Type
  2885 ;;  fp              1   55[BANK0 ] PTR struct _IO_FILE
  2886 ;;		 -> sprintf@f(11), 
  2887 ;;  cfmt            2   56[BANK0 ] PTR unsigned char 
  2888 ;;		 -> STR_3(6), STR_2(6), 
  2889 ;; Return value:  Size  Location     Type
  2890 ;;                  2   47[BANK1 ] int 
  2891 ;; Registers used:
  2892 ;;		wreg, fsr0l, fsr0h, fsr1l, fsr1h, status,2, status,0, pclath, cstack
  2893 ;; Tracked objects:
  2894 ;;		On entry : 0/0
  2895 ;;		On exit  : 0/0
  2896 ;;		Unchanged: 0/0
  2897 ;; Data sizes:     COMMON   BANK0   BANK1   BANK2   BANK3   BANK4   BANK5   BANK6   BANK7   BANK8   BANK9  BANK10  BANK1
      +1  BANK12  BANK13  BANK14  BANK15  BANK16  BANK17  BANK18  BANK19  BANK20  BANK21  BANK22  BANK23  BANK24  BANK25  BANK2
      +6  BANK27  BANK28  BANK29  BANK30  BANK31  BANK32  BANK33  BANK34  BANK35  BANK36  BANK37  BANK38  BANK39  BANK40  BANK4
      +1  BANK42  BANK43  BANK44  BANK45  BANK46  BANK47  BANK48  BANK49  BANK50
  2898 ;;      Params:         0       0       3       0       0       0       0       0       0       0       0       0       
      +0       0       0       0       0       0       0       0       0       0       0       0       0       0       0       
      +0       0       0       0       0       0       0       0       0       0       0       0       0       0       0       
      +0       0       0       0       0       0       0       0       0       0
  2899 ;;      Locals:         0       3       0       0       0       0       0       0       0       0       0       0       
      +0       0       0       0       0       0       0       0       0       0       0       0       0       0       0       
      +0       0       0       0       0       0       0       0       0       0       0       0       0       0       0       
      +0       0       0       0       0       0       0       0       0       0
  2900 ;;      Temps:          0       1       0       0       0       0       0       0       0       0       0       0       
      +0       0       0       0       0       0       0       0       0       0       0       0       0       0       0       
      +0       0       0       0       0       0       0       0       0       0       0       0       0       0       0       
      +0       0       0       0       0       0       0       0       0       0
  2901 ;;      Totals:         0       4       3       0       0       0       0       0       0       0       0       0       
      +0       0       0       0       0       0       0       0       0       0       0       0       0       0       0       
      +0       0       0       0       0       0       0       0       0       0       0       0       0       0       0       
      +0       0       0       0       0       0       0       0       0       0
  2902 ;;Total ram usage:        7 bytes
  2903 ;; Hardware stack levels used: 1
  2904 ;; Hardware stack levels required when called: 6
  2905 ;; This function calls:
  2906 ;;		_vfpfcnvrt
  2907 ;; This function is called by:
  2908 ;;		_sprintf
  2909 ;; This function uses a non-reentrant model
  2910 ;;
  2911                           
  2912     1394                     _vfprintf:	
  2913                           ;psect for function _vfprintf
  2914                           
  2915                           
  2916                           ;incstack = 0
  2917                           ; Regs used in _vfprintf: [wreg-fsr1h+status,2+status,0+pclath+cstack]
  2918                           ;vfprintf@fp stored from wreg
  2919     1394  0140               	movlb	0	; select bank0
  2920     1395  00D7               	movwf	vfprintf@fp
  2921     1396                     l3339:
  2922                           
  2923                           ;C:\Program Files\Microchip\xc8\v2.41\pic\sources\c99\common\doprnt.c: 1546: int vfprint
      +                          f(FILE *fp, const char *fmt, va_list ap);C:\Program Files\Microchip\xc8\v2.41\pic\source
      +                          s\c99\common\doprnt.c: 1547: {;C:\Program Files\Microchip\xc8\v2.41\pic\sources\c99\comm
      +                          on\doprnt.c: 1549:     char *cfmt;;C:\Program Files\Microchip\xc8\v2.41\pic\sources\c99\
      +                          common\doprnt.c: 1551:     cfmt = (char *)fmt;
  2924     1396  0141               	movlb	1	; select bank1
  2925     1397  0850               	movf	(vfprintf@fmt+1)^(0+128),w
  2926     1398  0140               	movlb	0	; select bank0
  2927     1399  00D9               	movwf	vfprintf@cfmt+1
  2928     139A  0141               	movlb	1	; select bank1
  2929     139B  084F               	movf	vfprintf@fmt^(0+128),w
  2930     139C  0140               	movlb	0	; select bank0
  2931     139D  00D8               	movwf	vfprintf@cfmt
  2932                           
  2933                           ;C:\Program Files\Microchip\xc8\v2.41\pic\sources\c99\common\doprnt.c: 1555:     while (
      +                          *cfmt) {
  2934     139E  2BA9               	goto	l3343
  2935     139F                     l3341:
  2936                           
  2937                           ;C:\Program Files\Microchip\xc8\v2.41\pic\sources\c99\common\doprnt.c: 1559:    vfpfcnvr
      +                          t(fp, &cfmt, ap);
  2938     139F  3058               	movlw	(low (vfprintf@cfmt| 0))& (0+255)
  2939     13A0  0141               	movlb	1	; select bank1
  2940     13A1  00CD               	movwf	vfpfcnvrt@fmt^(0+128)
  2941     13A2  0851               	movf	vfprintf@ap^(0+128),w
  2942     13A3  00CE               	movwf	vfpfcnvrt@ap^(0+128)
  2943     13A4  0140               	movlb	0	; select bank0
  2944     13A5  0857               	movf	vfprintf@fp,w
  2945     13A6  318A  2218  3193   	fcall	_vfpfcnvrt
  2946     13A9                     l3343:
  2947                           
  2948                           ;C:\Program Files\Microchip\xc8\v2.41\pic\sources\c99\common\doprnt.c: 1555:     while (
      +                          *cfmt) {
  2949     13A9  0140               	movlb	0	; select bank0
  2950     13AA  0858               	movf	vfprintf@cfmt,w
  2951     13AB  0084               	movwf	4
  2952     13AC  0859               	movf	vfprintf@cfmt+1,w
  2953     13AD  0085               	movwf	5
  2954     13AE  0012               	moviw fsr0++
  2955     13AF  1D03               	btfss	3,2
  2956     13B0  2BB2               	goto	u4311
  2957     13B1  2BB3               	goto	u4310
  2958     13B2                     u4311:
  2959     13B2  2B9F               	goto	l3341
  2960     13B3                     u4310:
  2961     13B3                     l3345:
  2962                           
  2963                           ;C:\Program Files\Microchip\xc8\v2.41\pic\sources\c99\common\doprnt.c: 1564:  return 0;
  2964     13B3  0141               	movlb	1	; select bank1
  2965     13B4  01CF               	clrf	?_vfprintf^(0+128)
  2966     13B5  01D0               	clrf	(?_vfprintf+1)^(0+128)
  2967     13B6                     l845:
  2968     13B6  0008               	return
  2969     13B7                     __end_of_vfprintf:
  2970                           
  2971                           	psect	text8
  2972     0A18                     __ptext8:	
  2973 ;; *************** function _vfpfcnvrt *****************
  2974 ;; Defined at:
  2975 ;;		line 1048 in file "C:\Program Files\Microchip\xc8\v2.41\pic\sources\c99\common\doprnt.c"
  2976 ;; Parameters:    Size  Location     Type
  2977 ;;  fp              1    wreg     PTR struct _IO_FILE
  2978 ;;		 -> sprintf@f(11), 
  2979 ;;  fmt             1   45[BANK1 ] PTR PTR unsigned char 
  2980 ;;		 -> vfprintf@cfmt(2), 
  2981 ;;  ap              1   46[BANK1 ] PTR PTR void 
  2982 ;;		 -> sprintf@ap(1), 
  2983 ;; Auto vars:     Size  Location     Type
  2984 ;;  fp              1   51[BANK0 ] PTR struct _IO_FILE
  2985 ;;		 -> sprintf@f(11), 
  2986 ;;  convarg         4   46[BANK0 ] struct .
  2987 ;;  cp              2   52[BANK0 ] PTR unsigned char 
  2988 ;;		 -> STR_3(6), STR_2(6), 
  2989 ;;  i               2    0        int 
  2990 ;;  done            2    0        int 
  2991 ;;  c               1   50[BANK0 ] unsigned char 
  2992 ;; Return value:  Size  Location     Type
  2993 ;;                  1    wreg      void 
  2994 ;; Registers used:
  2995 ;;		wreg, fsr0l, fsr0h, fsr1l, fsr1h, status,2, status,0, pclath, cstack
  2996 ;; Tracked objects:
  2997 ;;		On entry : 0/0
  2998 ;;		On exit  : 0/0
  2999 ;;		Unchanged: 0/0
  3000 ;; Data sizes:     COMMON   BANK0   BANK1   BANK2   BANK3   BANK4   BANK5   BANK6   BANK7   BANK8   BANK9  BANK10  BANK1
      +1  BANK12  BANK13  BANK14  BANK15  BANK16  BANK17  BANK18  BANK19  BANK20  BANK21  BANK22  BANK23  BANK24  BANK25  BANK2
      +6  BANK27  BANK28  BANK29  BANK30  BANK31  BANK32  BANK33  BANK34  BANK35  BANK36  BANK37  BANK38  BANK39  BANK40  BANK4
      +1  BANK42  BANK43  BANK44  BANK45  BANK46  BANK47  BANK48  BANK49  BANK50
  3001 ;;      Params:         0       0       2       0       0       0       0       0       0       0       0       0       
      +0       0       0       0       0       0       0       0       0       0       0       0       0       0       0       
      +0       0       0       0       0       0       0       0       0       0       0       0       0       0       0       
      +0       0       0       0       0       0       0       0       0       0
  3002 ;;      Locals:         0       8       0       0       0       0       0       0       0       0       0       0       
      +0       0       0       0       0       0       0       0       0       0       0       0       0       0       0       
      +0       0       0       0       0       0       0       0       0       0       0       0       0       0       0       
      +0       0       0       0       0       0       0       0       0       0
  3003 ;;      Temps:          0       4       0       0       0       0       0       0       0       0       0       0       
      +0       0       0       0       0       0       0       0       0       0       0       0       0       0       0       
      +0       0       0       0       0       0       0       0       0       0       0       0       0       0       0       
      +0       0       0       0       0       0       0       0       0       0
  3004 ;;      Totals:         0      12       2       0       0       0       0       0       0       0       0       0       
      +0       0       0       0       0       0       0       0       0       0       0       0       0       0       0       
      +0       0       0       0       0       0       0       0       0       0       0       0       0       0       0       
      +0       0       0       0       0       0       0       0       0       0
  3005 ;;Total ram usage:       14 bytes
  3006 ;; Hardware stack levels used: 1
  3007 ;; Hardware stack levels required when called: 5
  3008 ;; This function calls:
  3009 ;;		_efgtoa
  3010 ;;		_fputc
  3011 ;;		_read_prec_or_width
  3012 ;;		_utoa
  3013 ;; This function is called by:
  3014 ;;		_vfprintf
  3015 ;; This function uses a non-reentrant model
  3016 ;;
  3017                           
  3018     0A18                     _vfpfcnvrt:	
  3019                           ;psect for function _vfpfcnvrt
  3020                           
  3021                           
  3022                           ;incstack = 0
  3023                           ; Regs used in _vfpfcnvrt: [wreg-fsr1h+status,2+status,0+pclath+cstack]
  3024                           ;vfpfcnvrt@fp stored from wreg
  3025     0A18  0140               	movlb	0	; select bank0
  3026     0A19  00D3               	movwf	vfpfcnvrt@fp
  3027     0A1A                     l3213:
  3028                           
  3029                           ;C:\Program Files\Microchip\xc8\v2.41\pic\sources\c99\common\doprnt.c: 1048: vfpfcnvrt(F
      +                          ILE *fp, char *fmt[], va_list ap);C:\Program Files\Microchip\xc8\v2.41\pic\sources\c99\c
      +                          ommon\doprnt.c: 1049: {;C:\Program Files\Microchip\xc8\v2.41\pic\sources\c99\common\dopr
      +                          nt.c: 1050:     char c, *cp;;C:\Program Files\Microchip\xc8\v2.41\pic\sources\c99\common
      +                          \doprnt.c: 1051:     int done, i;;C:\Program Files\Microchip\xc8\v2.41\pic\sources\c99\c
      +                          ommon\doprnt.c: 1059:  } convarg;;C:\Program Files\Microchip\xc8\v2.41\pic\sources\c99\c
      +                          ommon\doprnt.c: 1062:     if ((*fmt)[0] == '%') {
  3030     0A1A  0141               	movlb	1	; select bank1
  3031     0A1B  084D               	movf	vfpfcnvrt@fmt^(0+128),w
  3032     0A1C  0086               	movwf	6
  3033     0A1D  0187               	clrf	7
  3034     0A1E  3F40               	moviw [0]fsr1
  3035     0A1F  0140               	movlb	0	; select bank0
  3036     0A20  00CA               	movwf	??_vfpfcnvrt
  3037     0A21  3F41               	moviw [1]fsr1
  3038     0A22  00CB               	movwf	??_vfpfcnvrt+1
  3039     0A23  084A               	movf	??_vfpfcnvrt,w
  3040     0A24  0084               	movwf	4
  3041     0A25  084B               	movf	??_vfpfcnvrt+1,w
  3042     0A26  0085               	movwf	5
  3043     0A27  0012               	moviw fsr0++
  3044     0A28  3A25               	xorlw	37
  3045     0A29  1D03               	btfss	3,2
  3046     0A2A  2A2C               	goto	u4241
  3047     0A2B  2A2D               	goto	u4240
  3048     0A2C                     u4241:
  3049     0A2C  2B9E               	goto	l3297
  3050     0A2D                     u4240:
  3051     0A2D                     l3215:
  3052                           
  3053                           ;C:\Program Files\Microchip\xc8\v2.41\pic\sources\c99\common\doprnt.c: 1063:         ++*
      +                          fmt;
  3054     0A2D  0141               	movlb	1	; select bank1
  3055     0A2E  084D               	movf	vfpfcnvrt@fmt^(0+128),w
  3056     0A2F  0086               	movwf	6
  3057     0A30  0187               	clrf	7
  3058     0A31  3001               	movlw	1
  3059     0A32  0781               	addwf	1,f
  3060     0A33  3141               	addfsr 1,1
  3061     0A34  1803               	skipnc
  3062     0A35  0A81               	incf	1,f
  3063     0A36                     l3217:
  3064                           
  3065                           ;C:\Program Files\Microchip\xc8\v2.41\pic\sources\c99\common\doprnt.c: 1065:         fla
      +                          gs = width = 0;
  3066     0A36  01E2               	clrf	_width^(0+128)
  3067     0A37  01E3               	clrf	(_width+1)^(0+128)
  3068     0A38  1003               	clrc
  3069     0A39  3000               	movlw	0
  3070     0A3A  1803               	btfsc	3,0
  3071     0A3B  3001               	movlw	1
  3072     0A3C  0140               	movlb	0	; select bank0
  3073     0A3D  00EF               	movwf	_flags
  3074     0A3E                     l3219:
  3075                           
  3076                           ;C:\Program Files\Microchip\xc8\v2.41\pic\sources\c99\common\doprnt.c: 1066:         pre
      +                          c = -1;
  3077     0A3E  30FF               	movlw	255
  3078     0A3F  0141               	movlb	1	; select bank1
  3079     0A40  00E4               	movwf	_prec^(0+128)
  3080     0A41  30FF               	movlw	255
  3081     0A42  00E5               	movwf	(_prec^(0+128)+1)
  3082     0A43                     l3221:
  3083                           
  3084                           ;C:\Program Files\Microchip\xc8\v2.41\pic\sources\c99\common\doprnt.c: 1117:   width = r
      +                          ead_prec_or_width(fmt, ap);
  3085     0A43  084E               	movf	vfpfcnvrt@ap^(0+128),w
  3086     0A44  00F6               	movwf	read_prec_or_width@ap
  3087     0A45  084D               	movf	vfpfcnvrt@fmt^(0+128),w
  3088     0A46  3195  25AB  318A   	fcall	_read_prec_or_width
  3089     0A49  0877               	movf	?_read_prec_or_width+1,w
  3090     0A4A  0141               	movlb	1	; select bank1
  3091     0A4B  00E3               	movwf	(_width+1)^(0+128)
  3092     0A4C  0876               	movf	?_read_prec_or_width,w
  3093     0A4D  00E2               	movwf	_width^(0+128)
  3094     0A4E                     l3223:
  3095                           
  3096                           ;C:\Program Files\Microchip\xc8\v2.41\pic\sources\c99\common\doprnt.c: 1118:   if (width
      +                           < 0) {
  3097     0A4E  1FE3               	btfss	(_width+1)^(0+128),7
  3098     0A4F  2A51               	goto	u4251
  3099     0A50  2A52               	goto	u4250
  3100     0A51                     u4251:
  3101     0A51  2A5A               	goto	l3229
  3102     0A52                     u4250:
  3103     0A52                     l3225:
  3104                           
  3105                           ;C:\Program Files\Microchip\xc8\v2.41\pic\sources\c99\common\doprnt.c: 1119:    flags |=
      +                           (1 << 0);
  3106     0A52  0140               	movlb	0	; select bank0
  3107     0A53  146F               	bsf	_flags,0
  3108     0A54                     l3227:
  3109                           
  3110                           ;C:\Program Files\Microchip\xc8\v2.41\pic\sources\c99\common\doprnt.c: 1120:    width = 
      +                          -width;
  3111     0A54  0141               	movlb	1	; select bank1
  3112     0A55  09E2               	comf	_width^(0+128),f
  3113     0A56  09E3               	comf	(_width+1)^(0+128),f
  3114     0A57  0AE2               	incf	_width^(0+128),f
  3115     0A58  1903               	skipnz
  3116     0A59  0AE3               	incf	(_width+1)^(0+128),f
  3117     0A5A                     l3229:
  3118                           
  3119                           ;C:\Program Files\Microchip\xc8\v2.41\pic\sources\c99\common\doprnt.c: 1126:         if 
      +                          ((*fmt)[0] == '.') {
  3120     0A5A  084D               	movf	vfpfcnvrt@fmt^(0+128),w
  3121     0A5B  0086               	movwf	6
  3122     0A5C  0187               	clrf	7
  3123     0A5D  3F40               	moviw [0]fsr1
  3124     0A5E  0140               	movlb	0	; select bank0
  3125     0A5F  00CA               	movwf	??_vfpfcnvrt
  3126     0A60  3F41               	moviw [1]fsr1
  3127     0A61  00CB               	movwf	??_vfpfcnvrt+1
  3128     0A62  084A               	movf	??_vfpfcnvrt,w
  3129     0A63  0084               	movwf	4
  3130     0A64  084B               	movf	??_vfpfcnvrt+1,w
  3131     0A65  0085               	movwf	5
  3132     0A66  0012               	moviw fsr0++
  3133     0A67  3A2E               	xorlw	46
  3134     0A68  1D03               	btfss	3,2
  3135     0A69  2A6B               	goto	u4261
  3136     0A6A  2A6C               	goto	u4260
  3137     0A6B                     u4261:
  3138     0A6B  2A80               	goto	l3235
  3139     0A6C                     u4260:
  3140     0A6C                     l3231:
  3141                           
  3142                           ;C:\Program Files\Microchip\xc8\v2.41\pic\sources\c99\common\doprnt.c: 1127:            
      +                           ++*fmt;
  3143     0A6C  0141               	movlb	1	; select bank1
  3144     0A6D  084D               	movf	vfpfcnvrt@fmt^(0+128),w
  3145     0A6E  0086               	movwf	6
  3146     0A6F  0187               	clrf	7
  3147     0A70  3001               	movlw	1
  3148     0A71  0781               	addwf	1,f
  3149     0A72  3141               	addfsr 1,1
  3150     0A73  1803               	skipnc
  3151     0A74  0A81               	incf	1,f
  3152     0A75                     l3233:
  3153                           
  3154                           ;C:\Program Files\Microchip\xc8\v2.41\pic\sources\c99\common\doprnt.c: 1128:    prec = r
      +                          ead_prec_or_width(fmt, ap);
  3155     0A75  084E               	movf	vfpfcnvrt@ap^(0+128),w
  3156     0A76  00F6               	movwf	read_prec_or_width@ap
  3157     0A77  084D               	movf	vfpfcnvrt@fmt^(0+128),w
  3158     0A78  3195  25AB  318A   	fcall	_read_prec_or_width
  3159     0A7B  0877               	movf	?_read_prec_or_width+1,w
  3160     0A7C  0141               	movlb	1	; select bank1
  3161     0A7D  00E5               	movwf	(_prec+1)^(0+128)
  3162     0A7E  0876               	movf	?_read_prec_or_width,w
  3163     0A7F  00E4               	movwf	_prec^(0+128)
  3164     0A80                     l3235:
  3165                           
  3166                           ;C:\Program Files\Microchip\xc8\v2.41\pic\sources\c99\common\doprnt.c: 1265:   if (0
  3167     0A80  0141               	movlb	1	; select bank1
  3168     0A81  084D               	movf	vfpfcnvrt@fmt^(0+128),w
  3169     0A82  0086               	movwf	6
  3170     0A83  0187               	clrf	7
  3171     0A84  3F40               	moviw [0]fsr1
  3172     0A85  0140               	movlb	0	; select bank0
  3173     0A86  00D4               	movwf	vfpfcnvrt@cp
  3174     0A87  3F41               	moviw [1]fsr1
  3175     0A88  00D5               	movwf	vfpfcnvrt@cp+1
  3176     0A89                     l3237:
  3177     0A89  0854               	movf	vfpfcnvrt@cp,w
  3178     0A8A  0084               	movwf	4
  3179     0A8B  0855               	movf	vfpfcnvrt@cp+1,w
  3180     0A8C  0085               	movwf	5
  3181     0A8D  0012               	moviw fsr0++
  3182     0A8E  3A75               	xorlw	117
  3183     0A8F  1D03               	btfss	3,2
  3184     0A90  2A92               	goto	u4271
  3185     0A91  2A93               	goto	u4270
  3186     0A92                     u4271:
  3187     0A92  2ACB               	goto	l3251
  3188     0A93                     u4270:
  3189     0A93                     l3239:
  3190                           
  3191                           ;C:\Program Files\Microchip\xc8\v2.41\pic\sources\c99\common\doprnt.c: 1278:     ) {;C:\
      +                          Program Files\Microchip\xc8\v2.41\pic\sources\c99\common\doprnt.c: 1321:    convarg.uint
      +                           = (vfpf_uint_t)(unsigned int)(*(unsigned int *)__va_arg(*(unsigned int **)ap, (unsigned
      +                           int)0));
  3192     0A93  0141               	movlb	1	; select bank1
  3193     0A94  084E               	movf	vfpfcnvrt@ap^(0+128),w
  3194     0A95  0086               	movwf	6
  3195     0A96  0187               	clrf	7
  3196     0A97  0801               	movf	1,w
  3197     0A98  0084               	movwf	4
  3198     0A99  0185               	clrf	5
  3199     0A9A  3002               	movlw	2
  3200     0A9B  0781               	addwf	1,f
  3201     0A9C  3F00               	moviw [0]fsr0
  3202     0A9D  0140               	movlb	0	; select bank0
  3203     0A9E  00CE               	movwf	vfpfcnvrt@convarg
  3204     0A9F  3F01               	moviw [1]fsr0
  3205     0AA0  00CF               	movwf	vfpfcnvrt@convarg+1
  3206     0AA1                     l3241:
  3207                           
  3208                           ;C:\Program Files\Microchip\xc8\v2.41\pic\sources\c99\common\doprnt.c: 1323:    *fmt = c
      +                          p+1;
  3209     0AA1  0854               	movf	vfpfcnvrt@cp,w
  3210     0AA2  3E01               	addlw	1
  3211     0AA3  00CA               	movwf	??_vfpfcnvrt
  3212     0AA4  3000               	movlw	0
  3213     0AA5  3D55               	addwfc	vfpfcnvrt@cp+1,w
  3214     0AA6  00CB               	movwf	??_vfpfcnvrt+1
  3215     0AA7  0141               	movlb	1	; select bank1
  3216     0AA8  084D               	movf	vfpfcnvrt@fmt^(0+128),w
  3217     0AA9  0086               	movwf	6
  3218     0AAA  0187               	clrf	7
  3219     0AAB  0140               	movlb	0	; select bank0
  3220     0AAC  084A               	movf	??_vfpfcnvrt,w
  3221     0AAD  3FC0               	movwi [0]fsr1
  3222     0AAE  084B               	movf	??_vfpfcnvrt+1,w
  3223     0AAF  3FC1               	movwi [1]fsr1
  3224                           
  3225                           ;C:\Program Files\Microchip\xc8\v2.41\pic\sources\c99\common\doprnt.c: 1324:    switch (
      +                          *cp) {
  3226     0AB0  2ABA               	goto	l3249
  3227     0AB1                     l3243:
  3228                           
  3229                           ;C:\Program Files\Microchip\xc8\v2.41\pic\sources\c99\common\doprnt.c: 1331:      return
      +                           (void) utoa(fp, convarg.uint);;	Return value of _vfpfcnvrt is never used
  3230     0AB1  084F               	movf	vfpfcnvrt@convarg+1,w
  3231     0AB2  00AB               	movwf	utoa@d+1
  3232     0AB3  084E               	movf	vfpfcnvrt@convarg,w
  3233     0AB4  00AA               	movwf	utoa@d
  3234     0AB5  0853               	movf	vfpfcnvrt@fp,w
  3235     0AB6  3196  267B  318A   	fcall	_utoa
  3236     0AB9  2BB8               	goto	l821
  3237     0ABA                     l3249:
  3238     0ABA  0854               	movf	vfpfcnvrt@cp,w
  3239     0ABB  0084               	movwf	4
  3240     0ABC  0855               	movf	vfpfcnvrt@cp+1,w
  3241     0ABD  0085               	movwf	5
  3242     0ABE  0800               	movf	0,w	;code access
  3243     0ABF  00CA               	movwf	??_vfpfcnvrt
  3244     0AC0  01CB               	clrf	??_vfpfcnvrt+1
  3245                           
  3246                           ; Switch on 2 bytes has been partitioned into a top level switch of size 1, and 1 sub-sw
      +                          itches
  3247                           ; Switch size 1, requested type "simple"
  3248                           ; Number of cases is 1, Range of values is 0 to 0
  3249                           ; switch strategies available:
  3250                           ; Name         Instructions Cycles
  3251                           ; simple_byte            4     3 (average)
  3252                           ; direct_byte            8     6 (fixed)
  3253                           ; jumptable            260     6 (fixed)
  3254                           ;	Chosen strategy is simple_byte
  3255     0AC1  084B               	movf	??_vfpfcnvrt+1,w
  3256     0AC2  3A00               	xorlw	0	; case 0
  3257     0AC3  1903               	skipnz
  3258     0AC4  2AC6               	goto	l3529
  3259     0AC5  2ACB               	goto	l3251
  3260     0AC6                     l3529:
  3261                           
  3262                           ; Switch size 1, requested type "simple"
  3263                           ; Number of cases is 1, Range of values is 117 to 117
  3264                           ; switch strategies available:
  3265                           ; Name         Instructions Cycles
  3266                           ; simple_byte            4     3 (average)
  3267                           ; direct_byte           11     9 (fixed)
  3268                           ; jumptable            263     9 (fixed)
  3269                           ;	Chosen strategy is simple_byte
  3270     0AC6  084A               	movf	??_vfpfcnvrt,w
  3271     0AC7  3A75               	xorlw	117	; case 117
  3272     0AC8  1903               	skipnz
  3273     0AC9  2AB1               	goto	l3243
  3274     0ACA  2ACB               	goto	l3251
  3275     0ACB                     l3251:
  3276                           
  3277                           ;C:\Program Files\Microchip\xc8\v2.41\pic\sources\c99\common\doprnt.c: 1418:   cp = *fmt
      +                          ;
  3278     0ACB  0141               	movlb	1	; select bank1
  3279     0ACC  084D               	movf	vfpfcnvrt@fmt^(0+128),w
  3280     0ACD  0086               	movwf	6
  3281     0ACE  0187               	clrf	7
  3282     0ACF  3F40               	moviw [0]fsr1
  3283     0AD0  0140               	movlb	0	; select bank0
  3284     0AD1  00D4               	movwf	vfpfcnvrt@cp
  3285     0AD2  3F41               	moviw [1]fsr1
  3286     0AD3  00D5               	movwf	vfpfcnvrt@cp+1
  3287     0AD4                     l3253:
  3288                           
  3289                           ;C:\Program Files\Microchip\xc8\v2.41\pic\sources\c99\common\doprnt.c: 1419:   c = *cp;
  3290     0AD4  0854               	movf	vfpfcnvrt@cp,w
  3291     0AD5  0084               	movwf	4
  3292     0AD6  0855               	movf	vfpfcnvrt@cp+1,w
  3293     0AD7  0085               	movwf	5
  3294     0AD8  0800               	movf	0,w	;code access
  3295     0AD9  00D2               	movwf	vfpfcnvrt@c
  3296                           
  3297                           ;C:\Program Files\Microchip\xc8\v2.41\pic\sources\c99\common\doprnt.c: 1420:   switch(c)
      +                           {
  3298     0ADA  2AE5               	goto	l3263
  3299     0ADB                     l3255:
  3300                           
  3301                           ;C:\Program Files\Microchip\xc8\v2.41\pic\sources\c99\common\doprnt.c: 1424:     cp++;
  3302     0ADB  3001               	movlw	1
  3303     0ADC  07D4               	addwf	vfpfcnvrt@cp,f
  3304     0ADD  3000               	movlw	0
  3305     0ADE  3DD5               	addwfc	vfpfcnvrt@cp+1,f
  3306                           
  3307                           ;C:\Program Files\Microchip\xc8\v2.41\pic\sources\c99\common\doprnt.c: 1425:     break;
  3308     0ADF  2AF8               	goto	l3265
  3309     0AE0                     l3257:
  3310                           
  3311                           ;C:\Program Files\Microchip\xc8\v2.41\pic\sources\c99\common\doprnt.c: 1450:     c = 'l'
      +                          ;
  3312     0AE0  306C               	movlw	108
  3313     0AE1  00D2               	movwf	vfpfcnvrt@c
  3314                           
  3315                           ;C:\Program Files\Microchip\xc8\v2.41\pic\sources\c99\common\doprnt.c: 1451:     break;
  3316     0AE2  2AF8               	goto	l3265
  3317     0AE3                     l3259:
  3318                           
  3319                           ;C:\Program Files\Microchip\xc8\v2.41\pic\sources\c99\common\doprnt.c: 1453:     c = 0;
  3320     0AE3  01D2               	clrf	vfpfcnvrt@c
  3321                           
  3322                           ;C:\Program Files\Microchip\xc8\v2.41\pic\sources\c99\common\doprnt.c: 1454:     break;
  3323     0AE4  2AF8               	goto	l3265
  3324     0AE5                     l3263:
  3325     0AE5  0852               	movf	vfpfcnvrt@c,w
  3326     0AE6  00CA               	movwf	??_vfpfcnvrt
  3327     0AE7  01CB               	clrf	??_vfpfcnvrt+1
  3328                           
  3329                           ; Switch on 2 bytes has been partitioned into a top level switch of size 1, and 1 sub-sw
      +                          itches
  3330                           ; Switch size 1, requested type "simple"
  3331                           ; Number of cases is 1, Range of values is 0 to 0
  3332                           ; switch strategies available:
  3333                           ; Name         Instructions Cycles
  3334                           ; simple_byte            4     3 (average)
  3335                           ; direct_byte            8     6 (fixed)
  3336                           ; jumptable            260     6 (fixed)
  3337                           ;	Chosen strategy is simple_byte
  3338     0AE8  084B               	movf	??_vfpfcnvrt+1,w
  3339     0AE9  3A00               	xorlw	0	; case 0
  3340     0AEA  1903               	skipnz
  3341     0AEB  2AED               	goto	l3531
  3342     0AEC  2AE3               	goto	l3259
  3343     0AED                     l3531:
  3344                           
  3345                           ; Switch size 1, requested type "simple"
  3346                           ; Number of cases is 3, Range of values is 76 to 108
  3347                           ; switch strategies available:
  3348                           ; Name         Instructions Cycles
  3349                           ; simple_byte           10     6 (average)
  3350                           ; direct_byte           75     9 (fixed)
  3351                           ; jumptable            263     9 (fixed)
  3352                           ;	Chosen strategy is simple_byte
  3353     0AED  084A               	movf	??_vfpfcnvrt,w
  3354     0AEE  3A4C               	xorlw	76	; case 76
  3355     0AEF  1903               	skipnz
  3356     0AF0  2ADB               	goto	l3255
  3357     0AF1  3A2A               	xorlw	42	; case 102
  3358     0AF2  1903               	skipnz
  3359     0AF3  2AE0               	goto	l3257
  3360     0AF4  3A0A               	xorlw	10	; case 108
  3361     0AF5  1903               	skipnz
  3362     0AF6  2ADB               	goto	l3255
  3363     0AF7  2AE3               	goto	l3259
  3364     0AF8                     l3265:
  3365     0AF8  0854               	movf	vfpfcnvrt@cp,w
  3366     0AF9  0084               	movwf	4
  3367     0AFA  0855               	movf	vfpfcnvrt@cp+1,w
  3368     0AFB  0085               	movwf	5
  3369     0AFC  0012               	moviw fsr0++
  3370     0AFD  3A66               	xorlw	102
  3371     0AFE  1D03               	btfss	3,2
  3372     0AFF  2B01               	goto	u4281
  3373     0B00  2B02               	goto	u4280
  3374     0B01                     u4281:
  3375     0B01  2B6D               	goto	l3285
  3376     0B02                     u4280:
  3377     0B02  2B29               	goto	l3273
  3378     0B03                     l3267:
  3379                           
  3380                           ;C:\Program Files\Microchip\xc8\v2.41\pic\sources\c99\common\doprnt.c: 1485:      convar
      +                          g.f = (long double)(*(double *)__va_arg(*(double **)ap, (double)0));
  3381     0B03  0141               	movlb	1	; select bank1
  3382     0B04  084E               	movf	vfpfcnvrt@ap^(0+128),w
  3383     0B05  0086               	movwf	6
  3384     0B06  0187               	clrf	7
  3385     0B07  0801               	movf	1,w
  3386     0B08  0084               	movwf	4
  3387     0B09  0185               	clrf	5
  3388     0B0A  3004               	movlw	4
  3389     0B0B  0781               	addwf	1,f
  3390     0B0C  3F00               	moviw [0]fsr0
  3391     0B0D  0140               	movlb	0	; select bank0
  3392     0B0E  00CE               	movwf	vfpfcnvrt@convarg
  3393     0B0F  3F01               	moviw [1]fsr0
  3394     0B10  00CF               	movwf	vfpfcnvrt@convarg+1
  3395     0B11  3F02               	moviw [2]fsr0
  3396     0B12  00D0               	movwf	vfpfcnvrt@convarg+2
  3397     0B13  3F03               	moviw [3]fsr0
  3398     0B14  00D1               	movwf	vfpfcnvrt@convarg+3
  3399                           
  3400                           ;C:\Program Files\Microchip\xc8\v2.41\pic\sources\c99\common\doprnt.c: 1486:      break;
  3401     0B15  2B39               	goto	l3275
  3402     0B16                     l3269:
  3403                           
  3404                           ;C:\Program Files\Microchip\xc8\v2.41\pic\sources\c99\common\doprnt.c: 1488:      convar
      +                          g.f = (long double)(*(long double *)__va_arg(*(long double **)ap, (long double)0));
  3405     0B16  0141               	movlb	1	; select bank1
  3406     0B17  084E               	movf	vfpfcnvrt@ap^(0+128),w
  3407     0B18  0086               	movwf	6
  3408     0B19  0187               	clrf	7
  3409     0B1A  0801               	movf	1,w
  3410     0B1B  0084               	movwf	4
  3411     0B1C  0185               	clrf	5
  3412     0B1D  3004               	movlw	4
  3413     0B1E  0781               	addwf	1,f
  3414     0B1F  3F00               	moviw [0]fsr0
  3415     0B20  0140               	movlb	0	; select bank0
  3416     0B21  00CE               	movwf	vfpfcnvrt@convarg
  3417     0B22  3F01               	moviw [1]fsr0
  3418     0B23  00CF               	movwf	vfpfcnvrt@convarg+1
  3419     0B24  3F02               	moviw [2]fsr0
  3420     0B25  00D0               	movwf	vfpfcnvrt@convarg+2
  3421     0B26  3F03               	moviw [3]fsr0
  3422     0B27  00D1               	movwf	vfpfcnvrt@convarg+3
  3423                           
  3424                           ;C:\Program Files\Microchip\xc8\v2.41\pic\sources\c99\common\doprnt.c: 1489:      break;
  3425     0B28  2B39               	goto	l3275
  3426     0B29                     l3273:
  3427     0B29  0852               	movf	vfpfcnvrt@c,w
  3428     0B2A  00CA               	movwf	??_vfpfcnvrt
  3429     0B2B  01CB               	clrf	??_vfpfcnvrt+1
  3430                           
  3431                           ; Switch on 2 bytes has been partitioned into a top level switch of size 1, and 1 sub-sw
      +                          itches
  3432                           ; Switch size 1, requested type "simple"
  3433                           ; Number of cases is 1, Range of values is 0 to 0
  3434                           ; switch strategies available:
  3435                           ; Name         Instructions Cycles
  3436                           ; simple_byte            4     3 (average)
  3437                           ; direct_byte            8     6 (fixed)
  3438                           ; jumptable            260     6 (fixed)
  3439                           ;	Chosen strategy is simple_byte
  3440     0B2C  084B               	movf	??_vfpfcnvrt+1,w
  3441     0B2D  3A00               	xorlw	0	; case 0
  3442     0B2E  1903               	skipnz
  3443     0B2F  2B31               	goto	l3533
  3444     0B30  2B39               	goto	l3275
  3445     0B31                     l3533:
  3446                           
  3447                           ; Switch size 1, requested type "simple"
  3448                           ; Number of cases is 2, Range of values is 76 to 108
  3449                           ; switch strategies available:
  3450                           ; Name         Instructions Cycles
  3451                           ; simple_byte            7     4 (average)
  3452                           ; direct_byte           75     9 (fixed)
  3453                           ; jumptable            263     9 (fixed)
  3454                           ;	Chosen strategy is simple_byte
  3455     0B31  084A               	movf	??_vfpfcnvrt,w
  3456     0B32  3A4C               	xorlw	76	; case 76
  3457     0B33  1903               	skipnz
  3458     0B34  2B16               	goto	l3269
  3459     0B35  3A20               	xorlw	32	; case 108
  3460     0B36  1903               	skipnz
  3461     0B37  2B03               	goto	l3267
  3462     0B38  2B39               	goto	l3275
  3463     0B39                     l3275:
  3464                           
  3465                           ;C:\Program Files\Microchip\xc8\v2.41\pic\sources\c99\common\doprnt.c: 1491:    *fmt = c
      +                          p+1;
  3466     0B39  0854               	movf	vfpfcnvrt@cp,w
  3467     0B3A  3E01               	addlw	1
  3468     0B3B  00CA               	movwf	??_vfpfcnvrt
  3469     0B3C  3000               	movlw	0
  3470     0B3D  3D55               	addwfc	vfpfcnvrt@cp+1,w
  3471     0B3E  00CB               	movwf	??_vfpfcnvrt+1
  3472     0B3F  0141               	movlb	1	; select bank1
  3473     0B40  084D               	movf	vfpfcnvrt@fmt^(0+128),w
  3474     0B41  0086               	movwf	6
  3475     0B42  0187               	clrf	7
  3476     0B43  0140               	movlb	0	; select bank0
  3477     0B44  084A               	movf	??_vfpfcnvrt,w
  3478     0B45  3FC0               	movwi [0]fsr1
  3479     0B46  084B               	movf	??_vfpfcnvrt+1,w
  3480     0B47  3FC1               	movwi [1]fsr1
  3481                           
  3482                           ;C:\Program Files\Microchip\xc8\v2.41\pic\sources\c99\common\doprnt.c: 1492:    switch (
      +                          *cp) {
  3483     0B48  2B5C               	goto	l3283
  3484     0B49                     l3277:
  3485                           
  3486                           ;C:\Program Files\Microchip\xc8\v2.41\pic\sources\c99\common\doprnt.c: 1519:      return
      +                           (void) efgtoa(fp, convarg.f, *cp);;	Return value of _vfpfcnvrt is never used
  3487     0B49  0851               	movf	vfpfcnvrt@convarg+3,w
  3488     0B4A  00C4               	movwf	efgtoa@f+3
  3489     0B4B  0850               	movf	vfpfcnvrt@convarg+2,w
  3490     0B4C  00C3               	movwf	efgtoa@f+2
  3491     0B4D  084F               	movf	vfpfcnvrt@convarg+1,w
  3492     0B4E  00C2               	movwf	efgtoa@f+1
  3493     0B4F  084E               	movf	vfpfcnvrt@convarg,w
  3494     0B50  00C1               	movwf	efgtoa@f
  3495     0B51  0854               	movf	vfpfcnvrt@cp,w
  3496     0B52  0084               	movwf	4
  3497     0B53  0855               	movf	vfpfcnvrt@cp+1,w
  3498     0B54  0085               	movwf	5
  3499     0B55  0800               	movf	0,w	;code access
  3500     0B56  00C5               	movwf	efgtoa@c
  3501     0B57  0853               	movf	vfpfcnvrt@fp,w
  3502     0B58  3181  21EB  318A   	fcall	_efgtoa
  3503     0B5B  2BB8               	goto	l821
  3504     0B5C                     l3283:
  3505     0B5C  0854               	movf	vfpfcnvrt@cp,w
  3506     0B5D  0084               	movwf	4
  3507     0B5E  0855               	movf	vfpfcnvrt@cp+1,w
  3508     0B5F  0085               	movwf	5
  3509     0B60  0800               	movf	0,w	;code access
  3510     0B61  00CA               	movwf	??_vfpfcnvrt
  3511     0B62  01CB               	clrf	??_vfpfcnvrt+1
  3512                           
  3513                           ; Switch on 2 bytes has been partitioned into a top level switch of size 1, and 1 sub-sw
      +                          itches
  3514                           ; Switch size 1, requested type "simple"
  3515                           ; Number of cases is 1, Range of values is 0 to 0
  3516                           ; switch strategies available:
  3517                           ; Name         Instructions Cycles
  3518                           ; simple_byte            4     3 (average)
  3519                           ; direct_byte            8     6 (fixed)
  3520                           ; jumptable            260     6 (fixed)
  3521                           ;	Chosen strategy is simple_byte
  3522     0B63  084B               	movf	??_vfpfcnvrt+1,w
  3523     0B64  3A00               	xorlw	0	; case 0
  3524     0B65  1903               	skipnz
  3525     0B66  2B68               	goto	l3535
  3526     0B67  2B6D               	goto	l3285
  3527     0B68                     l3535:
  3528                           
  3529                           ; Switch size 1, requested type "simple"
  3530                           ; Number of cases is 1, Range of values is 102 to 102
  3531                           ; switch strategies available:
  3532                           ; Name         Instructions Cycles
  3533                           ; simple_byte            4     3 (average)
  3534                           ; direct_byte           11     9 (fixed)
  3535                           ; jumptable            263     9 (fixed)
  3536                           ;	Chosen strategy is simple_byte
  3537     0B68  084A               	movf	??_vfpfcnvrt,w
  3538     0B69  3A66               	xorlw	102	; case 102
  3539     0B6A  1903               	skipnz
  3540     0B6B  2B49               	goto	l3277
  3541     0B6C  2B6D               	goto	l3285
  3542     0B6D                     l3285:
  3543                           
  3544                           ;C:\Program Files\Microchip\xc8\v2.41\pic\sources\c99\common\doprnt.c: 1527:         if 
      +                          ((*fmt)[0] == '%') {
  3545     0B6D  0141               	movlb	1	; select bank1
  3546     0B6E  084D               	movf	vfpfcnvrt@fmt^(0+128),w
  3547     0B6F  0086               	movwf	6
  3548     0B70  0187               	clrf	7
  3549     0B71  3F40               	moviw [0]fsr1
  3550     0B72  0140               	movlb	0	; select bank0
  3551     0B73  00CA               	movwf	??_vfpfcnvrt
  3552     0B74  3F41               	moviw [1]fsr1
  3553     0B75  00CB               	movwf	??_vfpfcnvrt+1
  3554     0B76  084A               	movf	??_vfpfcnvrt,w
  3555     0B77  0084               	movwf	4
  3556     0B78  084B               	movf	??_vfpfcnvrt+1,w
  3557     0B79  0085               	movwf	5
  3558     0B7A  0012               	moviw fsr0++
  3559     0B7B  3A25               	xorlw	37
  3560     0B7C  1D03               	btfss	3,2
  3561     0B7D  2B7F               	goto	u4291
  3562     0B7E  2B80               	goto	u4290
  3563     0B7F                     u4291:
  3564     0B7F  2B94               	goto	l3293
  3565     0B80                     u4290:
  3566     0B80                     l3287:
  3567                           
  3568                           ;C:\Program Files\Microchip\xc8\v2.41\pic\sources\c99\common\doprnt.c: 1528:            
      +                           ++*fmt;
  3569     0B80  0141               	movlb	1	; select bank1
  3570     0B81  084D               	movf	vfpfcnvrt@fmt^(0+128),w
  3571     0B82  0086               	movwf	6
  3572     0B83  0187               	clrf	7
  3573     0B84  3001               	movlw	1
  3574     0B85  0781               	addwf	1,f
  3575     0B86  3141               	addfsr 1,1
  3576     0B87  1803               	skipnc
  3577     0B88  0A81               	incf	1,f
  3578     0B89                     l3289:
  3579                           
  3580                           ;C:\Program Files\Microchip\xc8\v2.41\pic\sources\c99\common\doprnt.c: 1529:            
      +                           fputc((int)'%', fp);
  3581     0B89  3025               	movlw	37
  3582     0B8A  00F0               	movwf	fputc@c
  3583     0B8B  3000               	movlw	0
  3584     0B8C  00F1               	movwf	fputc@c+1
  3585     0B8D  0140               	movlb	0	; select bank0
  3586     0B8E  0853               	movf	vfpfcnvrt@fp,w
  3587     0B8F  00F2               	movwf	fputc@fp
  3588     0B90  3195  255B  318A   	fcall	_fputc
  3589     0B93  2BB8               	goto	l821
  3590     0B94                     l3293:
  3591                           
  3592                           ;C:\Program Files\Microchip\xc8\v2.41\pic\sources\c99\common\doprnt.c: 1535:         ++*
      +                          fmt;
  3593     0B94  0141               	movlb	1	; select bank1
  3594     0B95  084D               	movf	vfpfcnvrt@fmt^(0+128),w
  3595     0B96  0086               	movwf	6
  3596     0B97  0187               	clrf	7
  3597     0B98  3001               	movlw	1
  3598     0B99  0781               	addwf	1,f
  3599     0B9A  3141               	addfsr 1,1
  3600     0B9B  1803               	skipnc
  3601     0B9C  0A81               	incf	1,f
  3602     0B9D  2BB8               	goto	l821
  3603     0B9E                     l3297:
  3604                           
  3605                           ;C:\Program Files\Microchip\xc8\v2.41\pic\sources\c99\common\doprnt.c: 1540:     fputc((
      +                          int)(*fmt)[0], fp);
  3606     0B9E  0141               	movlb	1	; select bank1
  3607     0B9F  084D               	movf	vfpfcnvrt@fmt^(0+128),w
  3608     0BA0  0086               	movwf	6
  3609     0BA1  0187               	clrf	7
  3610     0BA2  3F40               	moviw [0]fsr1
  3611     0BA3  0140               	movlb	0	; select bank0
  3612     0BA4  00CA               	movwf	??_vfpfcnvrt
  3613     0BA5  3F41               	moviw [1]fsr1
  3614     0BA6  00CB               	movwf	??_vfpfcnvrt+1
  3615     0BA7  084A               	movf	??_vfpfcnvrt,w
  3616     0BA8  0084               	movwf	4
  3617     0BA9  084B               	movf	??_vfpfcnvrt+1,w
  3618     0BAA  0085               	movwf	5
  3619     0BAB  0800               	movf	0,w	;code access
  3620     0BAC  00CC               	movwf	??_vfpfcnvrt+2
  3621     0BAD  01CD               	clrf	??_vfpfcnvrt+3
  3622     0BAE  084C               	movf	??_vfpfcnvrt+2,w
  3623     0BAF  00F0               	movwf	fputc@c
  3624     0BB0  084D               	movf	??_vfpfcnvrt+3,w
  3625     0BB1  00F1               	movwf	fputc@c+1
  3626     0BB2  0853               	movf	vfpfcnvrt@fp,w
  3627     0BB3  00F2               	movwf	fputc@fp
  3628     0BB4  3195  255B  318A   	fcall	_fputc
  3629     0BB7  2B94               	goto	l3293
  3630     0BB8                     l821:
  3631     0BB8  0008               	return
  3632     0BB9                     __end_of_vfpfcnvrt:
  3633                           
  3634                           	psect	text9
  3635     167B                     __ptext9:	
  3636 ;; *************** function _utoa *****************
  3637 ;; Defined at:
  3638 ;;		line 917 in file "C:\Program Files\Microchip\xc8\v2.41\pic\sources\c99\common\doprnt.c"
  3639 ;; Parameters:    Size  Location     Type
  3640 ;;  fp              1    wreg     PTR struct _IO_FILE
  3641 ;;		 -> sprintf@f(11), 
  3642 ;;  d               2   10[BANK0 ] unsigned int 
  3643 ;; Auto vars:     Size  Location     Type
  3644 ;;  fp              1   15[BANK0 ] PTR struct _IO_FILE
  3645 ;;		 -> sprintf@f(11), 
  3646 ;;  i               2   18[BANK0 ] int 
  3647 ;;  p               2   16[BANK0 ] int 
  3648 ;;  w               2   13[BANK0 ] int 
  3649 ;; Return value:  Size  Location     Type
  3650 ;;                  1    wreg      void 
  3651 ;; Registers used:
  3652 ;;		wreg, fsr0l, fsr0h, fsr1l, fsr1h, status,2, status,0, pclath, cstack
  3653 ;; Tracked objects:
  3654 ;;		On entry : 0/0
  3655 ;;		On exit  : 0/0
  3656 ;;		Unchanged: 0/0
  3657 ;; Data sizes:     COMMON   BANK0   BANK1   BANK2   BANK3   BANK4   BANK5   BANK6   BANK7   BANK8   BANK9  BANK10  BANK1
      +1  BANK12  BANK13  BANK14  BANK15  BANK16  BANK17  BANK18  BANK19  BANK20  BANK21  BANK22  BANK23  BANK24  BANK25  BANK2
      +6  BANK27  BANK28  BANK29  BANK30  BANK31  BANK32  BANK33  BANK34  BANK35  BANK36  BANK37  BANK38  BANK39  BANK40  BANK4
      +1  BANK42  BANK43  BANK44  BANK45  BANK46  BANK47  BANK48  BANK49  BANK50
  3658 ;;      Params:         0       2       0       0       0       0       0       0       0       0       0       0       
      +0       0       0       0       0       0       0       0       0       0       0       0       0       0       0       
      +0       0       0       0       0       0       0       0       0       0       0       0       0       0       0       
      +0       0       0       0       0       0       0       0       0       0
  3659 ;;      Locals:         0       7       0       0       0       0       0       0       0       0       0       0       
      +0       0       0       0       0       0       0       0       0       0       0       0       0       0       0       
      +0       0       0       0       0       0       0       0       0       0       0       0       0       0       0       
      +0       0       0       0       0       0       0       0       0       0
  3660 ;;      Temps:          0       1       0       0       0       0       0       0       0       0       0       0       
      +0       0       0       0       0       0       0       0       0       0       0       0       0       0       0       
      +0       0       0       0       0       0       0       0       0       0       0       0       0       0       0       
      +0       0       0       0       0       0       0       0       0       0
  3661 ;;      Totals:         0      10       0       0       0       0       0       0       0       0       0       0       
      +0       0       0       0       0       0       0       0       0       0       0       0       0       0       0       
      +0       0       0       0       0       0       0       0       0       0       0       0       0       0       0       
      +0       0       0       0       0       0       0       0       0       0
  3662 ;;Total ram usage:       10 bytes
  3663 ;; Hardware stack levels used: 1
  3664 ;; Hardware stack levels required when called: 4
  3665 ;; This function calls:
  3666 ;;		___lwdiv
  3667 ;;		___lwmod
  3668 ;;		_pad
  3669 ;; This function is called by:
  3670 ;;		_vfpfcnvrt
  3671 ;; This function uses a non-reentrant model
  3672 ;;
  3673                           
  3674     167B                     _utoa:	
  3675                           ;psect for function _utoa
  3676                           
  3677                           
  3678                           ;incstack = 0
  3679                           ; Regs used in _utoa: [wreg-fsr1h+status,2+status,0+pclath+cstack]
  3680                           ;utoa@fp stored from wreg
  3681     167B  0140               	movlb	0	; select bank0
  3682     167C  00AF               	movwf	utoa@fp
  3683     167D                     l3167:
  3684                           
  3685                           ;C:\Program Files\Microchip\xc8\v2.41\pic\sources\c99\common\doprnt.c: 917: static void 
      +                          utoa(FILE *fp, vfpf_uint_t d);C:\Program Files\Microchip\xc8\v2.41\pic\sources\c99\commo
      +                          n\doprnt.c: 918: {;C:\Program Files\Microchip\xc8\v2.41\pic\sources\c99\common\doprnt.c:
      +                           919:     int i, p, w;;C:\Program Files\Microchip\xc8\v2.41\pic\sources\c99\common\doprn
      +                          t.c: 927:     p = (0 <= prec) ? prec : 1;
  3686     167D  0141               	movlb	1	; select bank1
  3687     167E  1FE5               	btfss	(_prec+1)^(0+128),7
  3688     167F  2E81               	goto	u4181
  3689     1680  2E82               	goto	u4180
  3690     1681                     u4181:
  3691     1681  2E88               	goto	l3171
  3692     1682                     u4180:
  3693     1682                     l3169:
  3694     1682  3001               	movlw	1
  3695     1683  0140               	movlb	0	; select bank0
  3696     1684  00B0               	movwf	utoa@p
  3697     1685  3000               	movlw	0
  3698     1686  00B1               	movwf	utoa@p+1
  3699     1687  2E8F               	goto	l796
  3700     1688                     l3171:
  3701     1688  0865               	movf	(_prec+1)^(0+128),w
  3702     1689  0140               	movlb	0	; select bank0
  3703     168A  00B1               	movwf	utoa@p+1
  3704     168B  0141               	movlb	1	; select bank1
  3705     168C  0864               	movf	_prec^(0+128),w
  3706     168D  0140               	movlb	0	; select bank0
  3707     168E  00B0               	movwf	utoa@p
  3708     168F                     l796:
  3709                           
  3710                           ;C:\Program Files\Microchip\xc8\v2.41\pic\sources\c99\common\doprnt.c: 928:     w = widt
      +                          h;
  3711     168F  0141               	movlb	1	; select bank1
  3712     1690  0863               	movf	(_width+1)^(0+128),w
  3713     1691  0140               	movlb	0	; select bank0
  3714     1692  00AE               	movwf	utoa@w+1
  3715     1693  0141               	movlb	1	; select bank1
  3716     1694  0862               	movf	_width^(0+128),w
  3717     1695  0140               	movlb	0	; select bank0
  3718     1696  00AD               	movwf	utoa@w
  3719                           
  3720                           ;C:\Program Files\Microchip\xc8\v2.41\pic\sources\c99\common\doprnt.c: 931:     i = size
      +                          of(dbuf) - 1;
  3721     1697  304F               	movlw	79
  3722     1698  00B2               	movwf	utoa@i
  3723     1699  3000               	movlw	0
  3724     169A  00B3               	movwf	utoa@i+1
  3725     169B                     l3173:
  3726                           
  3727                           ;C:\Program Files\Microchip\xc8\v2.41\pic\sources\c99\common\doprnt.c: 932:     dbuf[i] 
      +                          = '\0';
  3728     169B  0142               	movlb	2	; select bank2
  3729     169C  01EF               	clrf	(_dbuf^(0+256)+79)
  3730                           
  3731                           ;C:\Program Files\Microchip\xc8\v2.41\pic\sources\c99\common\doprnt.c: 933:     while (i
      +                           && (d || (0 < p)
  3732     169D  2ECF               	goto	l3185
  3733     169E                     l3175:
  3734                           
  3735                           ;C:\Program Files\Microchip\xc8\v2.41\pic\sources\c99\common\doprnt.c: 937:     )) {;C:\
      +                          Program Files\Microchip\xc8\v2.41\pic\sources\c99\common\doprnt.c: 938:         --i;
  3736     169E  30FF               	movlw	255
  3737     169F  0140               	movlb	0	; select bank0
  3738     16A0  07B2               	addwf	utoa@i,f
  3739     16A1  30FF               	movlw	255
  3740     16A2  3DB3               	addwfc	utoa@i+1,f
  3741     16A3                     l3177:
  3742                           
  3743                           ;C:\Program Files\Microchip\xc8\v2.41\pic\sources\c99\common\doprnt.c: 939:         dbuf
      +                          [i] = '0' + (d % 10);
  3744     16A3  0832               	movf	utoa@i,w
  3745     16A4  3E20               	addlw	(low (_dbuf| (0+256)))& (0+255)
  3746     16A5  0086               	movwf	6
  3747     16A6  3001               	movlw	1	; select bank2/3
  3748     16A7  0087               	movwf	7
  3749     16A8  300A               	movlw	10
  3750     16A9  00F0               	movwf	___lwmod@divisor
  3751     16AA  3000               	movlw	0
  3752     16AB  00F1               	movwf	___lwmod@divisor+1
  3753     16AC  082B               	movf	utoa@d+1,w
  3754     16AD  00F3               	movwf	___lwmod@dividend+1
  3755     16AE  082A               	movf	utoa@d,w
  3756     16AF  00F2               	movwf	___lwmod@dividend
  3757     16B0  3188  2001  3196   	fcall	___lwmod
  3758     16B3  0870               	movf	?___lwmod,w
  3759     16B4  3E30               	addlw	48
  3760     16B5  0081               	movwf	1
  3761     16B6                     l3179:
  3762                           
  3763                           ;C:\Program Files\Microchip\xc8\v2.41\pic\sources\c99\common\doprnt.c: 940:         --p;
  3764     16B6  30FF               	movlw	255
  3765     16B7  0140               	movlb	0	; select bank0
  3766     16B8  07B0               	addwf	utoa@p,f
  3767     16B9  30FF               	movlw	255
  3768     16BA  3DB1               	addwfc	utoa@p+1,f
  3769     16BB                     l3181:
  3770                           
  3771                           ;C:\Program Files\Microchip\xc8\v2.41\pic\sources\c99\common\doprnt.c: 941:         --w;
  3772     16BB  30FF               	movlw	255
  3773     16BC  07AD               	addwf	utoa@w,f
  3774     16BD  30FF               	movlw	255
  3775     16BE  3DAE               	addwfc	utoa@w+1,f
  3776     16BF                     l3183:
  3777                           
  3778                           ;C:\Program Files\Microchip\xc8\v2.41\pic\sources\c99\common\doprnt.c: 942:         d = 
      +                          d / 10;
  3779     16BF  300A               	movlw	10
  3780     16C0  00F6               	movwf	___lwdiv@divisor
  3781     16C1  3000               	movlw	0
  3782     16C2  00F7               	movwf	___lwdiv@divisor+1
  3783     16C3  082B               	movf	utoa@d+1,w
  3784     16C4  00F9               	movwf	___lwdiv@dividend+1
  3785     16C5  082A               	movf	utoa@d,w
  3786     16C6  00F8               	movwf	___lwdiv@dividend
  3787     16C7  3180  2005  3196   	fcall	___lwdiv
  3788     16CA  0877               	movf	?___lwdiv+1,w
  3789     16CB  0140               	movlb	0	; select bank0
  3790     16CC  00AB               	movwf	utoa@d+1
  3791     16CD  0876               	movf	?___lwdiv,w
  3792     16CE  00AA               	movwf	utoa@d
  3793     16CF                     l3185:
  3794                           
  3795                           ;C:\Program Files\Microchip\xc8\v2.41\pic\sources\c99\common\doprnt.c: 933:     while (i
      +                           && (d || (0 < p)
  3796     16CF  0140               	movlb	0	; select bank0
  3797     16D0  0832               	movf	utoa@i,w
  3798     16D1  0433               	iorwf	utoa@i+1,w
  3799     16D2  1903               	btfsc	3,2
  3800     16D3  2ED5               	goto	u4191
  3801     16D4  2ED6               	goto	u4190
  3802     16D5                     u4191:
  3803     16D5  2EE9               	goto	l3191
  3804     16D6                     u4190:
  3805     16D6                     l3187:
  3806     16D6  082A               	movf	utoa@d,w
  3807     16D7  042B               	iorwf	utoa@d+1,w
  3808     16D8  1D03               	btfss	3,2
  3809     16D9  2EDB               	goto	u4201
  3810     16DA  2EDC               	goto	u4200
  3811     16DB                     u4201:
  3812     16DB  2E9E               	goto	l3175
  3813     16DC                     u4200:
  3814     16DC                     l3189:
  3815     16DC  0831               	movf	utoa@p+1,w
  3816     16DD  3A80               	xorlw	128
  3817     16DE  00AC               	movwf	??_utoa
  3818     16DF  3080               	movlw	128
  3819     16E0  022C               	subwf	??_utoa,w
  3820     16E1  1D03               	skipz
  3821     16E2  2EE5               	goto	u4215
  3822     16E3  3001               	movlw	1
  3823     16E4  0230               	subwf	utoa@p,w
  3824     16E5                     u4215:
  3825     16E5  1803               	skipnc
  3826     16E6  2EE8               	goto	u4211
  3827     16E7  2EE9               	goto	u4210
  3828     16E8                     u4211:
  3829     16E8  2E9E               	goto	l3175
  3830     16E9                     u4210:
  3831     16E9                     l3191:
  3832                           
  3833                           ;C:\Program Files\Microchip\xc8\v2.41\pic\sources\c99\common\doprnt.c: 946:     return (
      +                          void) pad(fp, &dbuf[i], w);
  3834     16E9  0140               	movlb	0	; select bank0
  3835     16EA  0832               	movf	utoa@i,w
  3836     16EB  3E20               	addlw	(low (_dbuf| (0+256)))& (0+255)
  3837     16EC  00FB               	movwf	pad@buf
  3838     16ED  082E               	movf	utoa@w+1,w
  3839     16EE  00FD               	movwf	pad@p+1
  3840     16EF  082D               	movf	utoa@w,w
  3841     16F0  00FC               	movwf	pad@p
  3842     16F1  082F               	movf	utoa@fp,w
  3843     16F2  3194  247F  3196   	fcall	_pad
  3844     16F5                     l802:
  3845     16F5  0008               	return
  3846     16F6                     __end_of_utoa:
  3847                           
  3848                           	psect	text10
  3849     0801                     __ptext10:	
  3850 ;; *************** function ___lwmod *****************
  3851 ;; Defined at:
  3852 ;;		line 5 in file "C:\Program Files\Microchip\xc8\v2.41\pic\sources\c99\common\lwmod.c"
  3853 ;; Parameters:    Size  Location     Type
  3854 ;;  divisor         2    0[COMMON] unsigned int 
  3855 ;;  dividend        2    2[COMMON] unsigned int 
  3856 ;; Auto vars:     Size  Location     Type
  3857 ;;  counter         1    5[COMMON] unsigned char 
  3858 ;; Return value:  Size  Location     Type
  3859 ;;                  2    0[COMMON] unsigned int 
  3860 ;; Registers used:
  3861 ;;		wreg, status,2, status,0
  3862 ;; Tracked objects:
  3863 ;;		On entry : 0/0
  3864 ;;		On exit  : 0/0
  3865 ;;		Unchanged: 0/0
  3866 ;; Data sizes:     COMMON   BANK0   BANK1   BANK2   BANK3   BANK4   BANK5   BANK6   BANK7   BANK8   BANK9  BANK10  BANK1
      +1  BANK12  BANK13  BANK14  BANK15  BANK16  BANK17  BANK18  BANK19  BANK20  BANK21  BANK22  BANK23  BANK24  BANK25  BANK2
      +6  BANK27  BANK28  BANK29  BANK30  BANK31  BANK32  BANK33  BANK34  BANK35  BANK36  BANK37  BANK38  BANK39  BANK40  BANK4
      +1  BANK42  BANK43  BANK44  BANK45  BANK46  BANK47  BANK48  BANK49  BANK50
  3867 ;;      Params:         4       0       0       0       0       0       0       0       0       0       0       0       
      +0       0       0       0       0       0       0       0       0       0       0       0       0       0       0       
      +0       0       0       0       0       0       0       0       0       0       0       0       0       0       0       
      +0       0       0       0       0       0       0       0       0       0
  3868 ;;      Locals:         1       0       0       0       0       0       0       0       0       0       0       0       
      +0       0       0       0       0       0       0       0       0       0       0       0       0       0       0       
      +0       0       0       0       0       0       0       0       0       0       0       0       0       0       0       
      +0       0       0       0       0       0       0       0       0       0
  3869 ;;      Temps:          1       0       0       0       0       0       0       0       0       0       0       0       
      +0       0       0       0       0       0       0       0       0       0       0       0       0       0       0       
      +0       0       0       0       0       0       0       0       0       0       0       0       0       0       0       
      +0       0       0       0       0       0       0       0       0       0
  3870 ;;      Totals:         6       0       0       0       0       0       0       0       0       0       0       0       
      +0       0       0       0       0       0       0       0       0       0       0       0       0       0       0       
      +0       0       0       0       0       0       0       0       0       0       0       0       0       0       0       
      +0       0       0       0       0       0       0       0       0       0
  3871 ;;Total ram usage:        6 bytes
  3872 ;; Hardware stack levels used: 1
  3873 ;; This function calls:
  3874 ;;		Nothing
  3875 ;; This function is called by:
  3876 ;;		_Display_Time
  3877 ;;		_utoa
  3878 ;; This function uses a non-reentrant model
  3879 ;;
  3880                           
  3881     0801                     ___lwmod:	
  3882                           ;psect for function ___lwmod
  3883                           
  3884     0801                     l2569:	
  3885                           ;incstack = 0
  3886                           ; Regs used in ___lwmod: [wreg+status,2+status,0]
  3887                           
  3888     0801  0870               	movf	___lwmod@divisor,w
  3889     0802  0471               	iorwf	___lwmod@divisor+1,w
  3890     0803  1903               	btfsc	3,2
  3891     0804  2806               	goto	u2991
  3892     0805  2807               	goto	u2990
  3893     0806                     u2991:
  3894     0806  2830               	goto	l2587
  3895     0807                     u2990:
  3896     0807                     l2571:
  3897     0807  01F5               	clrf	___lwmod@counter
  3898     0808  0AF5               	incf	___lwmod@counter,f
  3899     0809  2813               	goto	l2577
  3900     080A                     l2573:
  3901     080A  3001               	movlw	1
  3902     080B                     u3005:
  3903     080B  35F0               	lslf	___lwmod@divisor,f
  3904     080C  0DF1               	rlf	___lwmod@divisor+1,f
  3905     080D  0B89               	decfsz	9,f
  3906     080E  280B               	goto	u3005
  3907     080F                     l2575:
  3908     080F  3001               	movlw	1
  3909     0810  00F4               	movwf	??___lwmod
  3910     0811  0874               	movf	??___lwmod,w
  3911     0812  07F5               	addwf	___lwmod@counter,f
  3912     0813                     l2577:
  3913     0813  1FF1               	btfss	___lwmod@divisor+1,7
  3914     0814  2816               	goto	u3011
  3915     0815  2817               	goto	u3010
  3916     0816                     u3011:
  3917     0816  280A               	goto	l2573
  3918     0817                     u3010:
  3919     0817                     l2579:
  3920     0817  0871               	movf	___lwmod@divisor+1,w
  3921     0818  0273               	subwf	___lwmod@dividend+1,w
  3922     0819  1D03               	skipz
  3923     081A  281D               	goto	u3025
  3924     081B  0870               	movf	___lwmod@divisor,w
  3925     081C  0272               	subwf	___lwmod@dividend,w
  3926     081D                     u3025:
  3927     081D  1C03               	skipc
  3928     081E  2820               	goto	u3021
  3929     081F  2821               	goto	u3020
  3930     0820                     u3021:
  3931     0820  2825               	goto	l2583
  3932     0821                     u3020:
  3933     0821                     l2581:
  3934     0821  0870               	movf	___lwmod@divisor,w
  3935     0822  02F2               	subwf	___lwmod@dividend,f
  3936     0823  0871               	movf	___lwmod@divisor+1,w
  3937     0824  3BF3               	subwfb	___lwmod@dividend+1,f
  3938     0825                     l2583:
  3939     0825  3001               	movlw	1
  3940     0826                     u3035:
  3941     0826  36F1               	lsrf	___lwmod@divisor+1,f
  3942     0827  0CF0               	rrf	___lwmod@divisor,f
  3943     0828  0B89               	decfsz	9,f
  3944     0829  2826               	goto	u3035
  3945     082A                     l2585:
  3946     082A  3001               	movlw	1
  3947     082B  02F5               	subwf	___lwmod@counter,f
  3948     082C  1D03               	btfss	3,2
  3949     082D  282F               	goto	u3041
  3950     082E  2830               	goto	u3040
  3951     082F                     u3041:
  3952     082F  2817               	goto	l2579
  3953     0830                     u3040:
  3954     0830                     l2587:
  3955     0830  0873               	movf	___lwmod@dividend+1,w
  3956     0831  00F1               	movwf	?___lwmod+1
  3957     0832  0872               	movf	___lwmod@dividend,w
  3958     0833  00F0               	movwf	?___lwmod
  3959     0834                     l529:
  3960     0834  0008               	return
  3961     0835                     __end_of___lwmod:
  3962                           
  3963                           	psect	text11
  3964     0005                     __ptext11:	
  3965 ;; *************** function ___lwdiv *****************
  3966 ;; Defined at:
  3967 ;;		line 5 in file "C:\Program Files\Microchip\xc8\v2.41\pic\sources\c99\common\lwdiv.c"
  3968 ;; Parameters:    Size  Location     Type
  3969 ;;  divisor         2    6[COMMON] unsigned int 
  3970 ;;  dividend        2    8[COMMON] unsigned int 
  3971 ;; Auto vars:     Size  Location     Type
  3972 ;;  quotient        2   11[COMMON] unsigned int 
  3973 ;;  counter         1   13[COMMON] unsigned char 
  3974 ;; Return value:  Size  Location     Type
  3975 ;;                  2    6[COMMON] unsigned int 
  3976 ;; Registers used:
  3977 ;;		wreg, status,2, status,0
  3978 ;; Tracked objects:
  3979 ;;		On entry : 0/0
  3980 ;;		On exit  : 0/0
  3981 ;;		Unchanged: 0/0
  3982 ;; Data sizes:     COMMON   BANK0   BANK1   BANK2   BANK3   BANK4   BANK5   BANK6   BANK7   BANK8   BANK9  BANK10  BANK1
      +1  BANK12  BANK13  BANK14  BANK15  BANK16  BANK17  BANK18  BANK19  BANK20  BANK21  BANK22  BANK23  BANK24  BANK25  BANK2
      +6  BANK27  BANK28  BANK29  BANK30  BANK31  BANK32  BANK33  BANK34  BANK35  BANK36  BANK37  BANK38  BANK39  BANK40  BANK4
      +1  BANK42  BANK43  BANK44  BANK45  BANK46  BANK47  BANK48  BANK49  BANK50
  3983 ;;      Params:         4       0       0       0       0       0       0       0       0       0       0       0       
      +0       0       0       0       0       0       0       0       0       0       0       0       0       0       0       
      +0       0       0       0       0       0       0       0       0       0       0       0       0       0       0       
      +0       0       0       0       0       0       0       0       0       0
  3984 ;;      Locals:         3       0       0       0       0       0       0       0       0       0       0       0       
      +0       0       0       0       0       0       0       0       0       0       0       0       0       0       0       
      +0       0       0       0       0       0       0       0       0       0       0       0       0       0       0       
      +0       0       0       0       0       0       0       0       0       0
  3985 ;;      Temps:          1       0       0       0       0       0       0       0       0       0       0       0       
      +0       0       0       0       0       0       0       0       0       0       0       0       0       0       0       
      +0       0       0       0       0       0       0       0       0       0       0       0       0       0       0       
      +0       0       0       0       0       0       0       0       0       0
  3986 ;;      Totals:         8       0       0       0       0       0       0       0       0       0       0       0       
      +0       0       0       0       0       0       0       0       0       0       0       0       0       0       0       
      +0       0       0       0       0       0       0       0       0       0       0       0       0       0       0       
      +0       0       0       0       0       0       0       0       0       0
  3987 ;;Total ram usage:        8 bytes
  3988 ;; Hardware stack levels used: 1
  3989 ;; This function calls:
  3990 ;;		Nothing
  3991 ;; This function is called by:
  3992 ;;		_Display_Time
  3993 ;;		_utoa
  3994 ;; This function uses a non-reentrant model
  3995 ;;
  3996                           
  3997     0005                     ___lwdiv:	
  3998                           ;psect for function ___lwdiv
  3999                           
  4000     0005                     l2543:	
  4001                           ;incstack = 0
  4002                           ; Regs used in ___lwdiv: [wreg+status,2+status,0]
  4003                           
  4004     0005  01FB               	clrf	___lwdiv@quotient
  4005     0006  01FC               	clrf	___lwdiv@quotient+1
  4006     0007                     l2545:
  4007     0007  0876               	movf	___lwdiv@divisor,w
  4008     0008  0477               	iorwf	___lwdiv@divisor+1,w
  4009     0009  1903               	btfsc	3,2
  4010     000A  280C               	goto	u2921
  4011     000B  280D               	goto	u2920
  4012     000C                     u2921:
  4013     000C  283C               	goto	l2565
  4014     000D                     u2920:
  4015     000D                     l2547:
  4016     000D  01FD               	clrf	___lwdiv@counter
  4017     000E  0AFD               	incf	___lwdiv@counter,f
  4018     000F  2819               	goto	l2553
  4019     0010                     l2549:
  4020     0010  3001               	movlw	1
  4021     0011                     u2935:
  4022     0011  35F6               	lslf	___lwdiv@divisor,f
  4023     0012  0DF7               	rlf	___lwdiv@divisor+1,f
  4024     0013  0B89               	decfsz	9,f
  4025     0014  2811               	goto	u2935
  4026     0015                     l2551:
  4027     0015  3001               	movlw	1
  4028     0016  00FA               	movwf	??___lwdiv
  4029     0017  087A               	movf	??___lwdiv,w
  4030     0018  07FD               	addwf	___lwdiv@counter,f
  4031     0019                     l2553:
  4032     0019  1FF7               	btfss	___lwdiv@divisor+1,7
  4033     001A  281C               	goto	u2941
  4034     001B  281D               	goto	u2940
  4035     001C                     u2941:
  4036     001C  2810               	goto	l2549
  4037     001D                     u2940:
  4038     001D                     l2555:
  4039     001D  3001               	movlw	1
  4040     001E                     u2955:
  4041     001E  35FB               	lslf	___lwdiv@quotient,f
  4042     001F  0DFC               	rlf	___lwdiv@quotient+1,f
  4043     0020  0B89               	decfsz	9,f
  4044     0021  281E               	goto	u2955
  4045     0022  0877               	movf	___lwdiv@divisor+1,w
  4046     0023  0279               	subwf	___lwdiv@dividend+1,w
  4047     0024  1D03               	skipz
  4048     0025  2828               	goto	u2965
  4049     0026  0876               	movf	___lwdiv@divisor,w
  4050     0027  0278               	subwf	___lwdiv@dividend,w
  4051     0028                     u2965:
  4052     0028  1C03               	skipc
  4053     0029  282B               	goto	u2961
  4054     002A  282C               	goto	u2960
  4055     002B                     u2961:
  4056     002B  2831               	goto	l2561
  4057     002C                     u2960:
  4058     002C                     l2557:
  4059     002C  0876               	movf	___lwdiv@divisor,w
  4060     002D  02F8               	subwf	___lwdiv@dividend,f
  4061     002E  0877               	movf	___lwdiv@divisor+1,w
  4062     002F  3BF9               	subwfb	___lwdiv@dividend+1,f
  4063     0030                     l2559:
  4064     0030  147B               	bsf	___lwdiv@quotient,0
  4065     0031                     l2561:
  4066     0031  3001               	movlw	1
  4067     0032                     u2975:
  4068     0032  36F7               	lsrf	___lwdiv@divisor+1,f
  4069     0033  0CF6               	rrf	___lwdiv@divisor,f
  4070     0034  0B89               	decfsz	9,f
  4071     0035  2832               	goto	u2975
  4072     0036                     l2563:
  4073     0036  3001               	movlw	1
  4074     0037  02FD               	subwf	___lwdiv@counter,f
  4075     0038  1D03               	btfss	3,2
  4076     0039  283B               	goto	u2981
  4077     003A  283C               	goto	u2980
  4078     003B                     u2981:
  4079     003B  281D               	goto	l2555
  4080     003C                     u2980:
  4081     003C                     l2565:
  4082     003C  087C               	movf	___lwdiv@quotient+1,w
  4083     003D  00F7               	movwf	?___lwdiv+1
  4084     003E  087B               	movf	___lwdiv@quotient,w
  4085     003F  00F6               	movwf	?___lwdiv
  4086     0040                     l519:
  4087     0040  0008               	return
  4088     0041                     __end_of___lwdiv:
  4089                           
  4090                           	psect	text12
  4091     15AB                     __ptext12:	
  4092 ;; *************** function _read_prec_or_width *****************
  4093 ;; Defined at:
  4094 ;;		line 1029 in file "C:\Program Files\Microchip\xc8\v2.41\pic\sources\c99\common\doprnt.c"
  4095 ;; Parameters:    Size  Location     Type
  4096 ;;  fmt             1    wreg     PTR PTR const unsigned c
  4097 ;;		 -> vfprintf@cfmt(2), 
  4098 ;;  ap              1    6[COMMON] PTR PTR void [1]
  4099 ;;		 -> sprintf@ap(1), 
  4100 ;; Auto vars:     Size  Location     Type
  4101 ;;  fmt             1    3[BANK0 ] PTR PTR const unsigned c
  4102 ;;		 -> vfprintf@cfmt(2), 
  4103 ;;  c               1    0[BANK0 ] unsigned char 
  4104 ;;  n               2    1[BANK0 ] int 
  4105 ;; Return value:  Size  Location     Type
  4106 ;;                  2    6[COMMON] int 
  4107 ;; Registers used:
  4108 ;;		wreg, fsr0l, fsr0h, fsr1l, fsr1h, status,2, status,0, pclath, cstack
  4109 ;; Tracked objects:
  4110 ;;		On entry : 0/0
  4111 ;;		On exit  : 0/0
  4112 ;;		Unchanged: 0/0
  4113 ;; Data sizes:     COMMON   BANK0   BANK1   BANK2   BANK3   BANK4   BANK5   BANK6   BANK7   BANK8   BANK9  BANK10  BANK1
      +1  BANK12  BANK13  BANK14  BANK15  BANK16  BANK17  BANK18  BANK19  BANK20  BANK21  BANK22  BANK23  BANK24  BANK25  BANK2
      +6  BANK27  BANK28  BANK29  BANK30  BANK31  BANK32  BANK33  BANK34  BANK35  BANK36  BANK37  BANK38  BANK39  BANK40  BANK4
      +1  BANK42  BANK43  BANK44  BANK45  BANK46  BANK47  BANK48  BANK49  BANK50
  4114 ;;      Params:         2       0       0       0       0       0       0       0       0       0       0       0       
      +0       0       0       0       0       0       0       0       0       0       0       0       0       0       0       
      +0       0       0       0       0       0       0       0       0       0       0       0       0       0       0       
      +0       0       0       0       0       0       0       0       0       0
  4115 ;;      Locals:         0       4       0       0       0       0       0       0       0       0       0       0       
      +0       0       0       0       0       0       0       0       0       0       0       0       0       0       0       
      +0       0       0       0       0       0       0       0       0       0       0       0       0       0       0       
      +0       0       0       0       0       0       0       0       0       0
  4116 ;;      Temps:          3       0       0       0       0       0       0       0       0       0       0       0       
      +0       0       0       0       0       0       0       0       0       0       0       0       0       0       0       
      +0       0       0       0       0       0       0       0       0       0       0       0       0       0       0       
      +0       0       0       0       0       0       0       0       0       0
  4117 ;;      Totals:         5       4       0       0       0       0       0       0       0       0       0       0       
      +0       0       0       0       0       0       0       0       0       0       0       0       0       0       0       
      +0       0       0       0       0       0       0       0       0       0       0       0       0       0       0       
      +0       0       0       0       0       0       0       0       0       0
  4118 ;;Total ram usage:        9 bytes
  4119 ;; Hardware stack levels used: 1
  4120 ;; Hardware stack levels required when called: 1
  4121 ;; This function calls:
  4122 ;;		___wmul
  4123 ;; This function is called by:
  4124 ;;		_vfpfcnvrt
  4125 ;; This function uses a non-reentrant model
  4126 ;;
  4127                           
  4128     15AB                     _read_prec_or_width:	
  4129                           ;psect for function _read_prec_or_width
  4130                           
  4131                           
  4132                           ;incstack = 0
  4133                           ; Regs used in _read_prec_or_width: [wreg-fsr1h+status,2+status,0+pclath+cstack]
  4134                           ;read_prec_or_width@fmt stored from wreg
  4135     15AB  0140               	movlb	0	; select bank0
  4136     15AC  00A3               	movwf	read_prec_or_width@fmt
  4137     15AD                     l3195:
  4138                           
  4139                           ;C:\Program Files\Microchip\xc8\v2.41\pic\sources\c99\common\doprnt.c: 1030:     int n =
      +                           0;
  4140     15AD  01A1               	clrf	read_prec_or_width@n
  4141     15AE  01A2               	clrf	read_prec_or_width@n+1
  4142     15AF                     l3197:
  4143                           
  4144                           ;C:\Program Files\Microchip\xc8\v2.41\pic\sources\c99\common\doprnt.c: 1031:     if ((*f
      +                          mt)[0] == '*') {
  4145     15AF  0823               	movf	read_prec_or_width@fmt,w
  4146     15B0  0086               	movwf	6
  4147     15B1  0187               	clrf	7
  4148     15B2  3F40               	moviw [0]fsr1
  4149     15B3  00F8               	movwf	??_read_prec_or_width
  4150     15B4  3F41               	moviw [1]fsr1
  4151     15B5  00F9               	movwf	??_read_prec_or_width+1
  4152     15B6  0878               	movf	??_read_prec_or_width,w
  4153     15B7  0084               	movwf	4
  4154     15B8  0879               	movf	??_read_prec_or_width+1,w
  4155     15B9  0085               	movwf	5
  4156     15BA  0012               	moviw fsr0++
  4157     15BB  3A2A               	xorlw	42
  4158     15BC  1D03               	btfss	3,2
  4159     15BD  2DBF               	goto	u4221
  4160     15BE  2DC0               	goto	u4220
  4161     15BF                     u4221:
  4162     15BF  2DF2               	goto	l3207
  4163     15C0                     u4220:
  4164     15C0                     l3199:
  4165                           
  4166                           ;C:\Program Files\Microchip\xc8\v2.41\pic\sources\c99\common\doprnt.c: 1032:         ++*
      +                          fmt;
  4167     15C0  0823               	movf	read_prec_or_width@fmt,w
  4168     15C1  0086               	movwf	6
  4169     15C2  0187               	clrf	7
  4170     15C3  3001               	movlw	1
  4171     15C4  0781               	addwf	1,f
  4172     15C5  3141               	addfsr 1,1
  4173     15C6  1803               	skipnc
  4174     15C7  0A81               	incf	1,f
  4175     15C8                     l3201:
  4176                           
  4177                           ;C:\Program Files\Microchip\xc8\v2.41\pic\sources\c99\common\doprnt.c: 1033:         n =
      +                           (*(int *)__va_arg(*(int **)*ap, (int)0));
  4178     15C8  0876               	movf	read_prec_or_width@ap,w
  4179     15C9  0086               	movwf	6
  4180     15CA  0187               	clrf	7
  4181     15CB  0801               	movf	1,w
  4182     15CC  0084               	movwf	4
  4183     15CD  0185               	clrf	5
  4184     15CE  3002               	movlw	2
  4185     15CF  0781               	addwf	1,f
  4186     15D0  3F00               	moviw [0]fsr0
  4187     15D1  00A1               	movwf	read_prec_or_width@n
  4188     15D2  3F01               	moviw [1]fsr0
  4189     15D3  00A2               	movwf	read_prec_or_width@n+1
  4190                           
  4191                           ;C:\Program Files\Microchip\xc8\v2.41\pic\sources\c99\common\doprnt.c: 1034:     } else 
      +                          {
  4192     15D4  2E06               	goto	l3209
  4193     15D5                     l3203:
  4194                           
  4195                           ;C:\Program Files\Microchip\xc8\v2.41\pic\sources\c99\common\doprnt.c: 1037:            
      +                           n = n * 10 + c;
  4196     15D5  0820               	movf	read_prec_or_width@c,w
  4197     15D6  00F8               	movwf	??_read_prec_or_width
  4198     15D7  01F9               	clrf	??_read_prec_or_width+1
  4199     15D8  0822               	movf	read_prec_or_width@n+1,w
  4200     15D9  00F1               	movwf	___wmul@multiplier+1
  4201     15DA  0821               	movf	read_prec_or_width@n,w
  4202     15DB  00F0               	movwf	___wmul@multiplier
  4203     15DC  300A               	movlw	10
  4204     15DD  00F2               	movwf	___wmul@multiplicand
  4205     15DE  3000               	movlw	0
  4206     15DF  00F3               	movwf	___wmul@multiplicand+1
  4207     15E0  3193  2310  3195   	fcall	___wmul
  4208     15E3  0878               	movf	??_read_prec_or_width,w
  4209     15E4  0770               	addwf	?___wmul,w
  4210     15E5  0140               	movlb	0	; select bank0
  4211     15E6  00A1               	movwf	read_prec_or_width@n
  4212     15E7  0879               	movf	??_read_prec_or_width+1,w
  4213     15E8  3D71               	addwfc	?___wmul+1,w
  4214     15E9  00A2               	movwf	read_prec_or_width@n+1
  4215     15EA                     l3205:
  4216                           
  4217                           ;C:\Program Files\Microchip\xc8\v2.41\pic\sources\c99\common\doprnt.c: 1038:            
      +                           ++*fmt;
  4218     15EA  0823               	movf	read_prec_or_width@fmt,w
  4219     15EB  0086               	movwf	6
  4220     15EC  0187               	clrf	7
  4221     15ED  3001               	movlw	1
  4222     15EE  0781               	addwf	1,f
  4223     15EF  3141               	addfsr 1,1
  4224     15F0  1803               	skipnc
  4225     15F1  0A81               	incf	1,f
  4226     15F2                     l3207:
  4227                           
  4228                           ;C:\Program Files\Microchip\xc8\v2.41\pic\sources\c99\common\doprnt.c: 1036:         whi
      +                          le ((c = ((unsigned)(*fmt)[0]) - '0') < 10) {
  4229     15F2  0823               	movf	read_prec_or_width@fmt,w
  4230     15F3  0086               	movwf	6
  4231     15F4  0187               	clrf	7
  4232     15F5  3F40               	moviw [0]fsr1
  4233     15F6  00F8               	movwf	??_read_prec_or_width
  4234     15F7  3F41               	moviw [1]fsr1
  4235     15F8  00F9               	movwf	??_read_prec_or_width+1
  4236     15F9  0878               	movf	??_read_prec_or_width,w
  4237     15FA  0084               	movwf	4
  4238     15FB  0879               	movf	??_read_prec_or_width+1,w
  4239     15FC  0085               	movwf	5
  4240     15FD  0800               	movf	0,w	;code access
  4241     15FE  3ED0               	addlw	208
  4242     15FF  00A0               	movwf	read_prec_or_width@c
  4243     1600  300A               	movlw	10
  4244     1601  0220               	subwf	read_prec_or_width@c,w
  4245     1602  1C03               	skipc
  4246     1603  2E05               	goto	u4231
  4247     1604  2E06               	goto	u4230
  4248     1605                     u4231:
  4249     1605  2DD5               	goto	l3203
  4250     1606                     u4230:
  4251     1606                     l3209:
  4252                           
  4253                           ;C:\Program Files\Microchip\xc8\v2.41\pic\sources\c99\common\doprnt.c: 1041:     return 
      +                          n;
  4254     1606  0822               	movf	read_prec_or_width@n+1,w
  4255     1607  00F7               	movwf	?_read_prec_or_width+1
  4256     1608  0821               	movf	read_prec_or_width@n,w
  4257     1609  00F6               	movwf	?_read_prec_or_width
  4258     160A                     l810:
  4259     160A  0008               	return
  4260     160B                     __end_of_read_prec_or_width:
  4261                           
  4262                           	psect	text13
  4263     1310                     __ptext13:	
  4264 ;; *************** function ___wmul *****************
  4265 ;; Defined at:
  4266 ;;		line 15 in file "C:\Program Files\Microchip\xc8\v2.41\pic\sources\c99\common\Umul16.c"
  4267 ;; Parameters:    Size  Location     Type
  4268 ;;  multiplier      2    0[COMMON] unsigned int 
  4269 ;;  multiplicand    2    2[COMMON] unsigned int 
  4270 ;; Auto vars:     Size  Location     Type
  4271 ;;  product         2    4[COMMON] unsigned int 
  4272 ;; Return value:  Size  Location     Type
  4273 ;;                  2    0[COMMON] unsigned int 
  4274 ;; Registers used:
  4275 ;;		wreg, status,2, status,0
  4276 ;; Tracked objects:
  4277 ;;		On entry : 0/0
  4278 ;;		On exit  : 0/0
  4279 ;;		Unchanged: 0/0
  4280 ;; Data sizes:     COMMON   BANK0   BANK1   BANK2   BANK3   BANK4   BANK5   BANK6   BANK7   BANK8   BANK9  BANK10  BANK1
      +1  BANK12  BANK13  BANK14  BANK15  BANK16  BANK17  BANK18  BANK19  BANK20  BANK21  BANK22  BANK23  BANK24  BANK25  BANK2
      +6  BANK27  BANK28  BANK29  BANK30  BANK31  BANK32  BANK33  BANK34  BANK35  BANK36  BANK37  BANK38  BANK39  BANK40  BANK4
      +1  BANK42  BANK43  BANK44  BANK45  BANK46  BANK47  BANK48  BANK49  BANK50
  4281 ;;      Params:         4       0       0       0       0       0       0       0       0       0       0       0       
      +0       0       0       0       0       0       0       0       0       0       0       0       0       0       0       
      +0       0       0       0       0       0       0       0       0       0       0       0       0       0       0       
      +0       0       0       0       0       0       0       0       0       0
  4282 ;;      Locals:         2       0       0       0       0       0       0       0       0       0       0       0       
      +0       0       0       0       0       0       0       0       0       0       0       0       0       0       0       
      +0       0       0       0       0       0       0       0       0       0       0       0       0       0       0       
      +0       0       0       0       0       0       0       0       0       0
  4283 ;;      Temps:          0       0       0       0       0       0       0       0       0       0       0       0       
      +0       0       0       0       0       0       0       0       0       0       0       0       0       0       0       
      +0       0       0       0       0       0       0       0       0       0       0       0       0       0       0       
      +0       0       0       0       0       0       0       0       0       0
  4284 ;;      Totals:         6       0       0       0       0       0       0       0       0       0       0       0       
      +0       0       0       0       0       0       0       0       0       0       0       0       0       0       0       
      +0       0       0       0       0       0       0       0       0       0       0       0       0       0       0       
      +0       0       0       0       0       0       0       0       0       0
  4285 ;;Total ram usage:        6 bytes
  4286 ;; Hardware stack levels used: 1
  4287 ;; This function calls:
  4288 ;;		Nothing
  4289 ;; This function is called by:
  4290 ;;		_read_prec_or_width
  4291 ;; This function uses a non-reentrant model
  4292 ;;
  4293                           
  4294     1310                     ___wmul:	
  4295                           ;psect for function ___wmul
  4296                           
  4297     1310                     l2453:	
  4298                           ;incstack = 0
  4299                           ; Regs used in ___wmul: [wreg+status,2+status,0]
  4300                           
  4301     1310  01F4               	clrf	___wmul@product
  4302     1311  01F5               	clrf	___wmul@product+1
  4303     1312                     l2455:
  4304     1312  1C70               	btfss	___wmul@multiplier,0
  4305     1313  2B15               	goto	u2691
  4306     1314  2B16               	goto	u2690
  4307     1315                     u2691:
  4308     1315  2B1A               	goto	l239
  4309     1316                     u2690:
  4310     1316                     l2457:
  4311     1316  0872               	movf	___wmul@multiplicand,w
  4312     1317  07F4               	addwf	___wmul@product,f
  4313     1318  0873               	movf	___wmul@multiplicand+1,w
  4314     1319  3DF5               	addwfc	___wmul@product+1,f
  4315     131A                     l239:
  4316     131A  3001               	movlw	1
  4317     131B                     u2705:
  4318     131B  35F2               	lslf	___wmul@multiplicand,f
  4319     131C  0DF3               	rlf	___wmul@multiplicand+1,f
  4320     131D  0B89               	decfsz	9,f
  4321     131E  2B1B               	goto	u2705
  4322     131F                     l2459:
  4323     131F  3001               	movlw	1
  4324     1320                     u2715:
  4325     1320  36F1               	lsrf	___wmul@multiplier+1,f
  4326     1321  0CF0               	rrf	___wmul@multiplier,f
  4327     1322  0B89               	decfsz	9,f
  4328     1323  2B20               	goto	u2715
  4329     1324                     l2461:
  4330     1324  0870               	movf	___wmul@multiplier,w
  4331     1325  0471               	iorwf	___wmul@multiplier+1,w
  4332     1326  1D03               	btfss	3,2
  4333     1327  2B29               	goto	u2721
  4334     1328  2B2A               	goto	u2720
  4335     1329                     u2721:
  4336     1329  2B12               	goto	l2455
  4337     132A                     u2720:
  4338     132A                     l2463:
  4339     132A  0875               	movf	___wmul@product+1,w
  4340     132B  00F1               	movwf	?___wmul+1
  4341     132C  0874               	movf	___wmul@product,w
  4342     132D  00F0               	movwf	?___wmul
  4343     132E                     l241:
  4344     132E  0008               	return
  4345     132F                     __end_of___wmul:
  4346                           
  4347                           	psect	text14
  4348     01EB                     __ptext14:	
  4349 ;; *************** function _efgtoa *****************
  4350 ;; Defined at:
  4351 ;;		line 531 in file "C:\Program Files\Microchip\xc8\v2.41\pic\sources\c99\common\doprnt.c"
  4352 ;; Parameters:    Size  Location     Type
  4353 ;;  fp              1    wreg     PTR struct _IO_FILE
  4354 ;;		 -> sprintf@f(11), 
  4355 ;;  f               4   33[BANK0 ] PTR struct _IO_FILE
  4356 ;;  c               1   37[BANK0 ] unsigned char 
  4357 ;; Auto vars:     Size  Location     Type
  4358 ;;  fp              1   15[BANK1 ] PTR struct _IO_FILE
  4359 ;;		 -> sprintf@f(11), 
  4360 ;;  u               4   41[BANK1 ] struct flui
  4361 ;;  g               4   37[BANK1 ] struct flui
  4362 ;;  l               4   30[BANK1 ] struct flui
  4363 ;;  h               4   26[BANK1 ] struct flui
  4364 ;;  ou              4   20[BANK1 ] struct flui
  4365 ;;  n               2   35[BANK1 ] int 
  4366 ;;  i               2   24[BANK1 ] int 
  4367 ;;  w               2   18[BANK1 ] int 
  4368 ;;  e               2   16[BANK1 ] int 
  4369 ;;  m               2   13[BANK1 ] int 
  4370 ;;  d               2   11[BANK1 ] int 
  4371 ;;  t               2    4[BANK1 ] int 
  4372 ;;  p               2    2[BANK1 ] int 
  4373 ;;  ne              2    0[BANK1 ] int 
  4374 ;;  sign            1   34[BANK1 ] unsigned char 
  4375 ;;  nmode           1   10[BANK1 ] unsigned char 
  4376 ;;  mode            1    9[BANK1 ] unsigned char 
  4377 ;;  pp              1    8[BANK1 ] unsigned char 
  4378 ;;  esign           1    0        unsigned char 
  4379 ;; Return value:  Size  Location     Type
  4380 ;;                  1    wreg      void 
  4381 ;; Registers used:
  4382 ;;		wreg, fsr0l, fsr0h, fsr1l, fsr1h, status,2, status,0, pclath, cstack
  4383 ;; Tracked objects:
  4384 ;;		On entry : 0/0
  4385 ;;		On exit  : 0/0
  4386 ;;		Unchanged: 0/0
  4387 ;; Data sizes:     COMMON   BANK0   BANK1   BANK2   BANK3   BANK4   BANK5   BANK6   BANK7   BANK8   BANK9  BANK10  BANK1
      +1  BANK12  BANK13  BANK14  BANK15  BANK16  BANK17  BANK18  BANK19  BANK20  BANK21  BANK22  BANK23  BANK24  BANK25  BANK2
      +6  BANK27  BANK28  BANK29  BANK30  BANK31  BANK32  BANK33  BANK34  BANK35  BANK36  BANK37  BANK38  BANK39  BANK40  BANK4
      +1  BANK42  BANK43  BANK44  BANK45  BANK46  BANK47  BANK48  BANK49  BANK50
  4388 ;;      Params:         0       5       0       0       0       0       0       0       0       0       0       0       
      +0       0       0       0       0       0       0       0       0       0       0       0       0       0       0       
      +0       0       0       0       0       0       0       0       0       0       0       0       0       0       0       
      +0       0       0       0       0       0       0       0       0       0
  4389 ;;      Locals:         0       0      45       0       0       0       0       0       0       0       0       0       
      +0       0       0       0       0       0       0       0       0       0       0       0       0       0       0       
      +0       0       0       0       0       0       0       0       0       0       0       0       0       0       0       
      +0       0       0       0       0       0       0       0       0       0
  4390 ;;      Temps:          0       4       0       0       0       0       0       0       0       0       0       0       
      +0       0       0       0       0       0       0       0       0       0       0       0       0       0       0       
      +0       0       0       0       0       0       0       0       0       0       0       0       0       0       0       
      +0       0       0       0       0       0       0       0       0       0
  4391 ;;      Totals:         0       9      45       0       0       0       0       0       0       0       0       0       
      +0       0       0       0       0       0       0       0       0       0       0       0       0       0       0       
      +0       0       0       0       0       0       0       0       0       0       0       0       0       0       0       
      +0       0       0       0       0       0       0       0       0       0
  4392 ;;Total ram usage:       54 bytes
  4393 ;; Hardware stack levels used: 1
  4394 ;; Hardware stack levels required when called: 4
  4395 ;; This function calls:
  4396 ;;		___fladd
  4397 ;;		___fldiv
  4398 ;;		___fleq
  4399 ;;		___flge
  4400 ;;		___flmul
  4401 ;;		___flneg
  4402 ;;		___flsub
  4403 ;;		___fltol
  4404 ;;		___fpclassifyf
  4405 ;;		_floorf
  4406 ;;		_labs
  4407 ;;		_memcpy
  4408 ;;		_pad
  4409 ;;		_strcpy
  4410 ;; This function is called by:
  4411 ;;		_vfpfcnvrt
  4412 ;; This function uses a non-reentrant model
  4413 ;;
  4414                           
  4415     01EB                     _efgtoa:	
  4416                           ;psect for function _efgtoa
  4417                           
  4418                           
  4419                           ;incstack = 0
  4420                           ; Regs used in _efgtoa: [wreg-fsr1h+status,2+status,0+pclath+cstack]
  4421                           ;efgtoa@fp stored from wreg
  4422     01EB  0141               	movlb	1	; select bank1
  4423     01EC  00AF               	movwf	efgtoa@fp^(0+128)
  4424     01ED                     l2965:
  4425                           
  4426                           ;C:\Program Files\Microchip\xc8\v2.41\pic\sources\c99\common\doprnt.c: 531: static void 
      +                          efgtoa(FILE *fp, long double f, char c);C:\Program Files\Microchip\xc8\v2.41\pic\sources
      +                          \c99\common\doprnt.c: 532: {;C:\Program Files\Microchip\xc8\v2.41\pic\sources\c99\common
      +                          \doprnt.c: 533:     char mode, nmode, pp, sign, esign;;C:\Program Files\Microchip\xc8\v2
      +                          .41\pic\sources\c99\common\doprnt.c: 534:     int d, e, i, m, n, ne, p, t, w;;C:\Program
      +                           Files\Microchip\xc8\v2.41\pic\sources\c99\common\doprnt.c: 535:     long double h, l;
  4427     01ED  01C2               	clrf	efgtoa@sign^(0+128)
  4428     01EE                     l2967:
  4429                           
  4430                           ;C:\Program Files\Microchip\xc8\v2.41\pic\sources\c99\common\doprnt.c: 540:     g.f = f;
  4431     01EE  0140               	movlb	0	; select bank0
  4432     01EF  0844               	movf	efgtoa@f+3,w
  4433     01F0  0141               	movlb	1	; select bank1
  4434     01F1  00C8               	movwf	(efgtoa@g+3)^(0+128)
  4435     01F2  0140               	movlb	0	; select bank0
  4436     01F3  0843               	movf	efgtoa@f+2,w
  4437     01F4  0141               	movlb	1	; select bank1
  4438     01F5  00C7               	movwf	(efgtoa@g+2)^(0+128)
  4439     01F6  0140               	movlb	0	; select bank0
  4440     01F7  0842               	movf	efgtoa@f+1,w
  4441     01F8  0141               	movlb	1	; select bank1
  4442     01F9  00C6               	movwf	(efgtoa@g+1)^(0+128)
  4443     01FA  0140               	movlb	0	; select bank0
  4444     01FB  0841               	movf	efgtoa@f,w
  4445     01FC  0141               	movlb	1	; select bank1
  4446     01FD  00C5               	movwf	efgtoa@g^(0+128)
  4447     01FE                     l2969:
  4448                           
  4449                           ;C:\Program Files\Microchip\xc8\v2.41\pic\sources\c99\common\doprnt.c: 541:     if (g.f 
      +                          < 0.0) {
  4450     01FE  0848               	movf	(efgtoa@g+3)^(0+128),w
  4451     01FF  0140               	movlb	0	; select bank0
  4452     0200  00B8               	movwf	___flge@ff1+3
  4453     0201  0141               	movlb	1	; select bank1
  4454     0202  0847               	movf	(efgtoa@g+2)^(0+128),w
  4455     0203  0140               	movlb	0	; select bank0
  4456     0204  00B7               	movwf	___flge@ff1+2
  4457     0205  0141               	movlb	1	; select bank1
  4458     0206  0846               	movf	(efgtoa@g+1)^(0+128),w
  4459     0207  0140               	movlb	0	; select bank0
  4460     0208  00B6               	movwf	___flge@ff1+1
  4461     0209  0141               	movlb	1	; select bank1
  4462     020A  0845               	movf	efgtoa@g^(0+128),w
  4463     020B  0140               	movlb	0	; select bank0
  4464     020C  00B5               	movwf	___flge@ff1
  4465     020D  3000               	movlw	0
  4466     020E  00BC               	movwf	___flge@ff2+3
  4467     020F  3000               	movlw	0
  4468     0210  00BB               	movwf	___flge@ff2+2
  4469     0211  3000               	movlw	0
  4470     0212  00BA               	movwf	___flge@ff2+1
  4471     0213  3000               	movlw	0
  4472     0214  00B9               	movwf	___flge@ff2
  4473     0215  3197  2775  3181   	fcall	___flge
  4474     0218  1803               	btfsc	3,0
  4475     0219  2A1B               	goto	u3861
  4476     021A  2A1C               	goto	u3860
  4477     021B                     u3861:
  4478     021B  2A33               	goto	l2975
  4479     021C                     u3860:
  4480     021C                     l2971:
  4481                           
  4482                           ;C:\Program Files\Microchip\xc8\v2.41\pic\sources\c99\common\doprnt.c: 542:         sign
      +                           = 1;
  4483     021C  0141               	movlb	1	; select bank1
  4484     021D  01C2               	clrf	efgtoa@sign^(0+128)
  4485     021E  0AC2               	incf	efgtoa@sign^(0+128),f
  4486     021F                     l2973:
  4487                           
  4488                           ;C:\Program Files\Microchip\xc8\v2.41\pic\sources\c99\common\doprnt.c: 543:         g.f 
      +                          = -g.f;
  4489     021F  0848               	movf	(efgtoa@g+3)^(0+128),w
  4490     0220  00F3               	movwf	___flneg@f1+3
  4491     0221  0847               	movf	(efgtoa@g+2)^(0+128),w
  4492     0222  00F2               	movwf	___flneg@f1+2
  4493     0223  0846               	movf	(efgtoa@g+1)^(0+128),w
  4494     0224  00F1               	movwf	___flneg@f1+1
  4495     0225  0845               	movf	efgtoa@g^(0+128),w
  4496     0226  00F0               	movwf	___flneg@f1
  4497     0227  3192  2290  3181   	fcall	___flneg
  4498     022A  0873               	movf	?___flneg+3,w
  4499     022B  0141               	movlb	1	; select bank1
  4500     022C  00C8               	movwf	(efgtoa@g+3)^(0+128)
  4501     022D  0872               	movf	?___flneg+2,w
  4502     022E  00C7               	movwf	(efgtoa@g+2)^(0+128)
  4503     022F  0871               	movf	?___flneg+1,w
  4504     0230  00C6               	movwf	(efgtoa@g+1)^(0+128)
  4505     0231  0870               	movf	?___flneg,w
  4506     0232  00C5               	movwf	efgtoa@g^(0+128)
  4507     0233                     l2975:
  4508                           
  4509                           ;C:\Program Files\Microchip\xc8\v2.41\pic\sources\c99\common\doprnt.c: 547:     n = 0;
  4510     0233  0141               	movlb	1	; select bank1
  4511     0234  01C3               	clrf	efgtoa@n^(0+128)
  4512     0235  01C4               	clrf	(efgtoa@n+1)^(0+128)
  4513     0236                     l2977:
  4514                           
  4515                           ;C:\Program Files\Microchip\xc8\v2.41\pic\sources\c99\common\doprnt.c: 548:     w = widt
      +                          h;
  4516     0236  0863               	movf	(_width+1)^(0+128),w
  4517     0237  00B3               	movwf	(efgtoa@w+1)^(0+128)
  4518     0238  0862               	movf	_width^(0+128),w
  4519     0239  00B2               	movwf	efgtoa@w^(0+128)
  4520     023A                     l2979:
  4521                           
  4522                           ;C:\Program Files\Microchip\xc8\v2.41\pic\sources\c99\common\doprnt.c: 549:     if (sign
  4523     023A  0842               	movf	efgtoa@sign^(0+128),w
  4524     023B  1903               	btfsc	3,2
  4525     023C  2A3E               	goto	u3871
  4526     023D  2A3F               	goto	u3870
  4527     023E                     u3871:
  4528     023E  2A4F               	goto	l2987
  4529     023F                     u3870:
  4530     023F                     l2981:
  4531                           
  4532                           ;C:\Program Files\Microchip\xc8\v2.41\pic\sources\c99\common\doprnt.c: 553:    ) {;C:\Pr
      +                          ogram Files\Microchip\xc8\v2.41\pic\sources\c99\common\doprnt.c: 554:   sign = sign ? '-
      +                          ' : '+';
  4533     023F  0842               	movf	efgtoa@sign^(0+128),w
  4534     0240  1D03               	btfss	3,2
  4535     0241  2A43               	goto	u3881
  4536     0242  2A44               	goto	u3880
  4537     0243                     u3881:
  4538     0243  2A49               	goto	l2985
  4539     0244                     u3880:
  4540     0244                     l2983:
  4541     0244  302B               	movlw	43
  4542     0245  00A6               	movwf	_efgtoa$902^(0+128)
  4543     0246  3000               	movlw	0
  4544     0247  00A7               	movwf	(_efgtoa$902^(0+128)+1)
  4545     0248  2A4D               	goto	l746
  4546     0249                     l2985:
  4547     0249  302D               	movlw	45
  4548     024A  00A6               	movwf	_efgtoa$902^(0+128)
  4549     024B  3000               	movlw	0
  4550     024C  00A7               	movwf	(_efgtoa$902^(0+128)+1)
  4551     024D                     l746:
  4552     024D  0826               	movf	_efgtoa$902^(0+128),w
  4553     024E  00C2               	movwf	efgtoa@sign^(0+128)
  4554     024F                     l2987:
  4555                           
  4556                           ;C:\Program Files\Microchip\xc8\v2.41\pic\sources\c99\common\doprnt.c: 563:     if (( __
      +                          fpclassifyf(g.f) == 1 )) {
  4557     024F  0848               	movf	(efgtoa@g+3)^(0+128),w
  4558     0250  00F3               	movwf	___fpclassifyf@x+3
  4559     0251  0847               	movf	(efgtoa@g+2)^(0+128),w
  4560     0252  00F2               	movwf	___fpclassifyf@x+2
  4561     0253  0846               	movf	(efgtoa@g+1)^(0+128),w
  4562     0254  00F1               	movwf	___fpclassifyf@x+1
  4563     0255  0845               	movf	efgtoa@g^(0+128),w
  4564     0256  00F0               	movwf	___fpclassifyf@x
  4565     0257  3196  26F6  3181   	fcall	___fpclassifyf
  4566     025A  0370               	decf	?___fpclassifyf,w
  4567     025B  0471               	iorwf	?___fpclassifyf+1,w
  4568     025C  1D03               	btfss	3,2
  4569     025D  2A5F               	goto	u3891
  4570     025E  2A60               	goto	u3890
  4571     025F                     u3891:
  4572     025F  2A8B               	goto	l2999
  4573     0260                     u3890:
  4574     0260                     l2989:
  4575                           
  4576                           ;C:\Program Files\Microchip\xc8\v2.41\pic\sources\c99\common\doprnt.c: 564:   if (sign) 
      +                          {
  4577     0260  0141               	movlb	1	; select bank1
  4578     0261  0842               	movf	efgtoa@sign^(0+128),w
  4579     0262  1903               	btfsc	3,2
  4580     0263  2A65               	goto	u3901
  4581     0264  2A66               	goto	u3900
  4582     0265                     u3901:
  4583     0265  2A72               	goto	l2993
  4584     0266                     u3900:
  4585     0266                     l2991:
  4586                           
  4587                           ;C:\Program Files\Microchip\xc8\v2.41\pic\sources\c99\common\doprnt.c: 565:    dbuf[0] =
      +                           sign;
  4588     0266  0842               	movf	efgtoa@sign^(0+128),w
  4589     0267  0142               	movlb	2	; select bank2
  4590     0268  00A0               	movwf	_dbuf^(0+256)
  4591                           
  4592                           ;C:\Program Files\Microchip\xc8\v2.41\pic\sources\c99\common\doprnt.c: 566:    w--;
  4593     0269  30FF               	movlw	255
  4594     026A  0141               	movlb	1	; select bank1
  4595     026B  07B2               	addwf	efgtoa@w^(0+128),f
  4596     026C  30FF               	movlw	255
  4597     026D  3DB3               	addwfc	(efgtoa@w+1)^(0+128),f
  4598                           
  4599                           ;C:\Program Files\Microchip\xc8\v2.41\pic\sources\c99\common\doprnt.c: 567:    n = 1;
  4600     026E  3001               	movlw	1
  4601     026F  00C3               	movwf	efgtoa@n^(0+128)
  4602     0270  3000               	movlw	0
  4603     0271  00C4               	movwf	(efgtoa@n^(0+128)+1)
  4604     0272                     l2993:
  4605                           
  4606                           ;C:\Program Files\Microchip\xc8\v2.41\pic\sources\c99\common\doprnt.c: 575:   {;C:\Progr
      +                          am Files\Microchip\xc8\v2.41\pic\sources\c99\common\doprnt.c: 576:             strcpy(&d
      +                          buf[n], "inf");
  4607     0272  301B               	movlw	low (STR_4| (0+32768))
  4608     0273  00F0               	movwf	strcpy@src
  4609     0274  3098               	movlw	high (STR_4| (0+32768))
  4610     0275  00F1               	movwf	strcpy@src+1
  4611     0276  0843               	movf	efgtoa@n^(0+128),w
  4612     0277  3E20               	addlw	(low (_dbuf| (0+256)))& (0+255)
  4613     0278  3192  22F1  3181   	fcall	_strcpy
  4614     027B                     l2995:
  4615                           
  4616                           ;C:\Program Files\Microchip\xc8\v2.41\pic\sources\c99\common\doprnt.c: 577:         };C:
      +                          \Program Files\Microchip\xc8\v2.41\pic\sources\c99\common\doprnt.c: 578:         w -= ((
      +                          sizeof("inf")/sizeof("inf"[0]))-1);
  4617     027B  30FD               	movlw	253
  4618     027C  0141               	movlb	1	; select bank1
  4619     027D  07B2               	addwf	efgtoa@w^(0+128),f
  4620     027E  30FF               	movlw	255
  4621     027F  3DB3               	addwfc	(efgtoa@w+1)^(0+128),f
  4622                           
  4623                           ;C:\Program Files\Microchip\xc8\v2.41\pic\sources\c99\common\doprnt.c: 579:         retu
      +                          rn (void) pad(fp, &dbuf[0], w);
  4624     0280  3020               	movlw	(low (_dbuf| (0+256)))& (0+255)
  4625     0281  00FB               	movwf	pad@buf
  4626     0282  0833               	movf	(efgtoa@w+1)^(0+128),w
  4627     0283  00FD               	movwf	pad@p+1
  4628     0284  0832               	movf	efgtoa@w^(0+128),w
  4629     0285  00FC               	movwf	pad@p
  4630     0286  082F               	movf	efgtoa@fp^(0+128),w
  4631     0287  3194  247F  3181   	fcall	_pad
  4632     028A  2FEA               	goto	l749
  4633     028B                     l2999:
  4634                           
  4635                           ;C:\Program Files\Microchip\xc8\v2.41\pic\sources\c99\common\doprnt.c: 581:     if (( __
      +                          fpclassifyf(g.f) == 0 )) {
  4636     028B  0141               	movlb	1	; select bank1
  4637     028C  0848               	movf	(efgtoa@g+3)^(0+128),w
  4638     028D  00F3               	movwf	___fpclassifyf@x+3
  4639     028E  0847               	movf	(efgtoa@g+2)^(0+128),w
  4640     028F  00F2               	movwf	___fpclassifyf@x+2
  4641     0290  0846               	movf	(efgtoa@g+1)^(0+128),w
  4642     0291  00F1               	movwf	___fpclassifyf@x+1
  4643     0292  0845               	movf	efgtoa@g^(0+128),w
  4644     0293  00F0               	movwf	___fpclassifyf@x
  4645     0294  3196  26F6  3181   	fcall	___fpclassifyf
  4646     0297  0870               	movf	?___fpclassifyf,w
  4647     0298  0471               	iorwf	?___fpclassifyf+1,w
  4648     0299  1D03               	btfss	3,2
  4649     029A  2A9C               	goto	u3911
  4650     029B  2A9D               	goto	u3910
  4651     029C                     u3911:
  4652     029C  2AC8               	goto	l3011
  4653     029D                     u3910:
  4654     029D                     l3001:
  4655                           
  4656                           ;C:\Program Files\Microchip\xc8\v2.41\pic\sources\c99\common\doprnt.c: 582:   if (sign) 
      +                          {
  4657     029D  0141               	movlb	1	; select bank1
  4658     029E  0842               	movf	efgtoa@sign^(0+128),w
  4659     029F  1903               	btfsc	3,2
  4660     02A0  2AA2               	goto	u3921
  4661     02A1  2AA3               	goto	u3920
  4662     02A2                     u3921:
  4663     02A2  2AAF               	goto	l3005
  4664     02A3                     u3920:
  4665     02A3                     l3003:
  4666                           
  4667                           ;C:\Program Files\Microchip\xc8\v2.41\pic\sources\c99\common\doprnt.c: 583:    dbuf[0] =
      +                           sign;
  4668     02A3  0842               	movf	efgtoa@sign^(0+128),w
  4669     02A4  0142               	movlb	2	; select bank2
  4670     02A5  00A0               	movwf	_dbuf^(0+256)
  4671                           
  4672                           ;C:\Program Files\Microchip\xc8\v2.41\pic\sources\c99\common\doprnt.c: 584:    w--;
  4673     02A6  30FF               	movlw	255
  4674     02A7  0141               	movlb	1	; select bank1
  4675     02A8  07B2               	addwf	efgtoa@w^(0+128),f
  4676     02A9  30FF               	movlw	255
  4677     02AA  3DB3               	addwfc	(efgtoa@w+1)^(0+128),f
  4678                           
  4679                           ;C:\Program Files\Microchip\xc8\v2.41\pic\sources\c99\common\doprnt.c: 585:    n = 1;
  4680     02AB  3001               	movlw	1
  4681     02AC  00C3               	movwf	efgtoa@n^(0+128)
  4682     02AD  3000               	movlw	0
  4683     02AE  00C4               	movwf	(efgtoa@n^(0+128)+1)
  4684     02AF                     l3005:
  4685                           
  4686                           ;C:\Program Files\Microchip\xc8\v2.41\pic\sources\c99\common\doprnt.c: 593:   {;C:\Progr
      +                          am Files\Microchip\xc8\v2.41\pic\sources\c99\common\doprnt.c: 594:             strcpy(&d
      +                          buf[n], "nan");
  4687     02AF  301F               	movlw	low (STR_7| (0+32768))
  4688     02B0  00F0               	movwf	strcpy@src
  4689     02B1  3098               	movlw	high (STR_7| (0+32768))
  4690     02B2  00F1               	movwf	strcpy@src+1
  4691     02B3  0843               	movf	efgtoa@n^(0+128),w
  4692     02B4  3E20               	addlw	(low (_dbuf| (0+256)))& (0+255)
  4693     02B5  3192  22F1  3181   	fcall	_strcpy
  4694     02B8                     l3007:
  4695                           
  4696                           ;C:\Program Files\Microchip\xc8\v2.41\pic\sources\c99\common\doprnt.c: 595:         };C:
      +                          \Program Files\Microchip\xc8\v2.41\pic\sources\c99\common\doprnt.c: 596:         w -= ((
      +                          sizeof("nan")/sizeof("nan"[0]))-1);
  4697     02B8  30FD               	movlw	253
  4698     02B9  0141               	movlb	1	; select bank1
  4699     02BA  07B2               	addwf	efgtoa@w^(0+128),f
  4700     02BB  30FF               	movlw	255
  4701     02BC  3DB3               	addwfc	(efgtoa@w+1)^(0+128),f
  4702                           
  4703                           ;C:\Program Files\Microchip\xc8\v2.41\pic\sources\c99\common\doprnt.c: 597:         retu
      +                          rn (void) pad(fp, &dbuf[0], w);
  4704     02BD  3020               	movlw	(low (_dbuf| (0+256)))& (0+255)
  4705     02BE  00FB               	movwf	pad@buf
  4706     02BF  0833               	movf	(efgtoa@w+1)^(0+128),w
  4707     02C0  00FD               	movwf	pad@p+1
  4708     02C1  0832               	movf	efgtoa@w^(0+128),w
  4709     02C2  00FC               	movwf	pad@p
  4710     02C3  082F               	movf	efgtoa@fp^(0+128),w
  4711     02C4  3194  247F  3181   	fcall	_pad
  4712     02C7  2FEA               	goto	l749
  4713     02C8                     l3011:
  4714                           
  4715                           ;C:\Program Files\Microchip\xc8\v2.41\pic\sources\c99\common\doprnt.c: 601:     u.f = 1.
      +                          0;
  4716     02C8  303F               	movlw	63
  4717     02C9  0141               	movlb	1	; select bank1
  4718     02CA  00CC               	movwf	(efgtoa@u+3)^(0+128)
  4719     02CB  3080               	movlw	128
  4720     02CC  00CB               	movwf	(efgtoa@u+2)^(0+128)
  4721     02CD  3000               	movlw	0
  4722     02CE  00CA               	movwf	(efgtoa@u+1)^(0+128)
  4723     02CF  3000               	movlw	0
  4724     02D0  00C9               	movwf	efgtoa@u^(0+128)
  4725     02D1                     l3013:
  4726                           
  4727                           ;C:\Program Files\Microchip\xc8\v2.41\pic\sources\c99\common\doprnt.c: 602:     e = 0;
  4728     02D1  01B0               	clrf	efgtoa@e^(0+128)
  4729     02D2  01B1               	clrf	(efgtoa@e+1)^(0+128)
  4730     02D3                     l3015:
  4731                           
  4732                           ;C:\Program Files\Microchip\xc8\v2.41\pic\sources\c99\common\doprnt.c: 603:  if (!(g.f =
      +                          = 0.0)) {
  4733     02D3  0848               	movf	(efgtoa@g+3)^(0+128),w
  4734     02D4  00F3               	movwf	___fleq@ff1+3
  4735     02D5  0847               	movf	(efgtoa@g+2)^(0+128),w
  4736     02D6  00F2               	movwf	___fleq@ff1+2
  4737     02D7  0846               	movf	(efgtoa@g+1)^(0+128),w
  4738     02D8  00F1               	movwf	___fleq@ff1+1
  4739     02D9  0845               	movf	efgtoa@g^(0+128),w
  4740     02DA  00F0               	movwf	___fleq@ff1
  4741     02DB  3000               	movlw	0
  4742     02DC  00F7               	movwf	___fleq@ff2+3
  4743     02DD  3000               	movlw	0
  4744     02DE  00F6               	movwf	___fleq@ff2+2
  4745     02DF  3000               	movlw	0
  4746     02E0  00F5               	movwf	___fleq@ff2+1
  4747     02E1  3000               	movlw	0
  4748     02E2  00F4               	movwf	___fleq@ff2
  4749     02E3  3195  250D  3181   	fcall	___fleq
  4750     02E6  1803               	btfsc	3,0
  4751     02E7  2AE9               	goto	u3931
  4752     02E8  2AEA               	goto	u3930
  4753     02E9                     u3931:
  4754     02E9  2C2C               	goto	l3041
  4755     02EA                     u3930:
  4756     02EA  2AF8               	goto	l3021
  4757     02EB                     l3019:
  4758                           
  4759                           ;C:\Program Files\Microchip\xc8\v2.41\pic\sources\c99\common\doprnt.c: 605:    u = ou;
  4760     02EB  0141               	movlb	1	; select bank1
  4761     02EC  0837               	movf	(efgtoa@ou+3)^(0+128),w
  4762     02ED  00CC               	movwf	(efgtoa@u+3)^(0+128)
  4763     02EE  0836               	movf	(efgtoa@ou+2)^(0+128),w
  4764     02EF  00CB               	movwf	(efgtoa@u+2)^(0+128)
  4765     02F0  0835               	movf	(efgtoa@ou+1)^(0+128),w
  4766     02F1  00CA               	movwf	(efgtoa@u+1)^(0+128)
  4767     02F2  0834               	movf	efgtoa@ou^(0+128),w
  4768     02F3  00C9               	movwf	efgtoa@u^(0+128)
  4769                           
  4770                           ;C:\Program Files\Microchip\xc8\v2.41\pic\sources\c99\common\doprnt.c: 606:    ++e;
  4771     02F4  3001               	movlw	1
  4772     02F5  07B0               	addwf	efgtoa@e^(0+128),f
  4773     02F6  3000               	movlw	0
  4774     02F7  3DB1               	addwfc	(efgtoa@e+1)^(0+128),f
  4775     02F8                     l3021:
  4776                           
  4777                           ;C:\Program Files\Microchip\xc8\v2.41\pic\sources\c99\common\doprnt.c: 604:   while ((la
      +                          bs((g).u-((ou.f = u.f*10.0,ou)).u) <= 1) || g.f > ou.f) {
  4778     02F8  3041               	movlw	65
  4779     02F9  0140               	movlb	0	; select bank0
  4780     02FA  00A3               	movwf	___flmul@b+3
  4781     02FB  3020               	movlw	32
  4782     02FC  00A2               	movwf	___flmul@b+2
  4783     02FD  3000               	movlw	0
  4784     02FE  00A1               	movwf	___flmul@b+1
  4785     02FF  3000               	movlw	0
  4786     0300  00A0               	movwf	___flmul@b
  4787     0301  0141               	movlb	1	; select bank1
  4788     0302  084C               	movf	(efgtoa@u+3)^(0+128),w
  4789     0303  0140               	movlb	0	; select bank0
  4790     0304  00A7               	movwf	___flmul@a+3
  4791     0305  0141               	movlb	1	; select bank1
  4792     0306  084B               	movf	(efgtoa@u+2)^(0+128),w
  4793     0307  0140               	movlb	0	; select bank0
  4794     0308  00A6               	movwf	___flmul@a+2
  4795     0309  0141               	movlb	1	; select bank1
  4796     030A  084A               	movf	(efgtoa@u+1)^(0+128),w
  4797     030B  0140               	movlb	0	; select bank0
  4798     030C  00A5               	movwf	___flmul@a+1
  4799     030D  0141               	movlb	1	; select bank1
  4800     030E  0849               	movf	efgtoa@u^(0+128),w
  4801     030F  0140               	movlb	0	; select bank0
  4802     0310  00A4               	movwf	___flmul@a
  4803     0311  318D  25C5  3181   	fcall	___flmul
  4804     0314  0140               	movlb	0	; select bank0
  4805     0315  0823               	movf	?___flmul+3,w
  4806     0316  0141               	movlb	1	; select bank1
  4807     0317  00B7               	movwf	(efgtoa@ou+3)^(0+128)
  4808     0318  0140               	movlb	0	; select bank0
  4809     0319  0822               	movf	?___flmul+2,w
  4810     031A  0141               	movlb	1	; select bank1
  4811     031B  00B6               	movwf	(efgtoa@ou+2)^(0+128)
  4812     031C  0140               	movlb	0	; select bank0
  4813     031D  0821               	movf	?___flmul+1,w
  4814     031E  0141               	movlb	1	; select bank1
  4815     031F  00B5               	movwf	(efgtoa@ou+1)^(0+128)
  4816     0320  0140               	movlb	0	; select bank0
  4817     0321  0820               	movf	?___flmul,w
  4818     0322  0141               	movlb	1	; select bank1
  4819     0323  00B4               	movwf	efgtoa@ou^(0+128)
  4820     0324                     l3023:
  4821     0324  0834               	movf	efgtoa@ou^(0+128),w
  4822     0325  0245               	subwf	efgtoa@g^(0+128),w
  4823     0326  0140               	movlb	0	; select bank0
  4824     0327  00C6               	movwf	??_efgtoa
  4825     0328  0141               	movlb	1	; select bank1
  4826     0329  0835               	movf	(efgtoa@ou+1)^(0+128),w
  4827     032A  3B46               	subwfb	(efgtoa@g+1)^(0+128),w
  4828     032B  0140               	movlb	0	; select bank0
  4829     032C  00C7               	movwf	??_efgtoa+1
  4830     032D  0141               	movlb	1	; select bank1
  4831     032E  0836               	movf	(efgtoa@ou+2)^(0+128),w
  4832     032F  3B47               	subwfb	(efgtoa@g+2)^(0+128),w
  4833     0330  0140               	movlb	0	; select bank0
  4834     0331  00C8               	movwf	??_efgtoa+2
  4835     0332  0141               	movlb	1	; select bank1
  4836     0333  0837               	movf	(efgtoa@ou+3)^(0+128),w
  4837     0334  3B48               	subwfb	(efgtoa@g+3)^(0+128),w
  4838     0335  0140               	movlb	0	; select bank0
  4839     0336  00C9               	movwf	??_efgtoa+3
  4840     0337  0849               	movf	??_efgtoa+3,w
  4841     0338  00F3               	movwf	labs@a+3
  4842     0339  0848               	movf	??_efgtoa+2,w
  4843     033A  00F2               	movwf	labs@a+2
  4844     033B  0847               	movf	??_efgtoa+1,w
  4845     033C  00F1               	movwf	labs@a+1
  4846     033D  0846               	movf	??_efgtoa,w
  4847     033E  00F0               	movwf	labs@a
  4848     033F  3193  234F  3181   	fcall	_labs
  4849     0342  1BF3               	btfsc	?_labs+3,7
  4850     0343  2B52               	goto	u3941
  4851     0344  0873               	movf	?_labs+3,w
  4852     0345  1D03               	btfss	3,2
  4853     0346  2B53               	goto	u3940
  4854     0347  0872               	movf	?_labs+2,w
  4855     0348  1D03               	btfss	3,2
  4856     0349  2B53               	goto	u3940
  4857     034A  0871               	movf	?_labs+1,w
  4858     034B  1D03               	btfss	3,2
  4859     034C  2B53               	goto	u3940
  4860     034D  3002               	movlw	2
  4861     034E  0270               	subwf	?_labs,w
  4862     034F  1C03               	btfss	3,0
  4863     0350  2B52               	goto	u3941
  4864     0351  2B53               	goto	u3940
  4865     0352                     u3941:
  4866     0352  2AEB               	goto	l3019
  4867     0353                     u3940:
  4868     0353                     l3025:
  4869     0353  0141               	movlb	1	; select bank1
  4870     0354  0837               	movf	(efgtoa@ou+3)^(0+128),w
  4871     0355  0140               	movlb	0	; select bank0
  4872     0356  00B8               	movwf	___flge@ff1+3
  4873     0357  0141               	movlb	1	; select bank1
  4874     0358  0836               	movf	(efgtoa@ou+2)^(0+128),w
  4875     0359  0140               	movlb	0	; select bank0
  4876     035A  00B7               	movwf	___flge@ff1+2
  4877     035B  0141               	movlb	1	; select bank1
  4878     035C  0835               	movf	(efgtoa@ou+1)^(0+128),w
  4879     035D  0140               	movlb	0	; select bank0
  4880     035E  00B6               	movwf	___flge@ff1+1
  4881     035F  0141               	movlb	1	; select bank1
  4882     0360  0834               	movf	efgtoa@ou^(0+128),w
  4883     0361  0140               	movlb	0	; select bank0
  4884     0362  00B5               	movwf	___flge@ff1
  4885     0363  0141               	movlb	1	; select bank1
  4886     0364  0848               	movf	(efgtoa@g+3)^(0+128),w
  4887     0365  0140               	movlb	0	; select bank0
  4888     0366  00BC               	movwf	___flge@ff2+3
  4889     0367  0141               	movlb	1	; select bank1
  4890     0368  0847               	movf	(efgtoa@g+2)^(0+128),w
  4891     0369  0140               	movlb	0	; select bank0
  4892     036A  00BB               	movwf	___flge@ff2+2
  4893     036B  0141               	movlb	1	; select bank1
  4894     036C  0846               	movf	(efgtoa@g+1)^(0+128),w
  4895     036D  0140               	movlb	0	; select bank0
  4896     036E  00BA               	movwf	___flge@ff2+1
  4897     036F  0141               	movlb	1	; select bank1
  4898     0370  0845               	movf	efgtoa@g^(0+128),w
  4899     0371  0140               	movlb	0	; select bank0
  4900     0372  00B9               	movwf	___flge@ff2
  4901     0373  3197  2775  3181   	fcall	___flge
  4902     0376  1C03               	btfss	3,0
  4903     0377  2B79               	goto	u3951
  4904     0378  2B7A               	goto	u3950
  4905     0379                     u3951:
  4906     0379  2AEB               	goto	l3019
  4907     037A                     u3950:
  4908     037A                     l3027:
  4909                           
  4910                           ;C:\Program Files\Microchip\xc8\v2.41\pic\sources\c99\common\doprnt.c: 608:   if ((labs(
      +                          (g).u-(u).u) <= 1)) {
  4911     037A  0141               	movlb	1	; select bank1
  4912     037B  0849               	movf	efgtoa@u^(0+128),w
  4913     037C  0245               	subwf	efgtoa@g^(0+128),w
  4914     037D  0140               	movlb	0	; select bank0
  4915     037E  00C6               	movwf	??_efgtoa
  4916     037F  0141               	movlb	1	; select bank1
  4917     0380  084A               	movf	(efgtoa@u+1)^(0+128),w
  4918     0381  3B46               	subwfb	(efgtoa@g+1)^(0+128),w
  4919     0382  0140               	movlb	0	; select bank0
  4920     0383  00C7               	movwf	??_efgtoa+1
  4921     0384  0141               	movlb	1	; select bank1
  4922     0385  084B               	movf	(efgtoa@u+2)^(0+128),w
  4923     0386  3B47               	subwfb	(efgtoa@g+2)^(0+128),w
  4924     0387  0140               	movlb	0	; select bank0
  4925     0388  00C8               	movwf	??_efgtoa+2
  4926     0389  0141               	movlb	1	; select bank1
  4927     038A  084C               	movf	(efgtoa@u+3)^(0+128),w
  4928     038B  3B48               	subwfb	(efgtoa@g+3)^(0+128),w
  4929     038C  0140               	movlb	0	; select bank0
  4930     038D  00C9               	movwf	??_efgtoa+3
  4931     038E  0849               	movf	??_efgtoa+3,w
  4932     038F  00F3               	movwf	labs@a+3
  4933     0390  0848               	movf	??_efgtoa+2,w
  4934     0391  00F2               	movwf	labs@a+2
  4935     0392  0847               	movf	??_efgtoa+1,w
  4936     0393  00F1               	movwf	labs@a+1
  4937     0394  0846               	movf	??_efgtoa,w
  4938     0395  00F0               	movwf	labs@a
  4939     0396  3193  234F  3181   	fcall	_labs
  4940     0399  1BF3               	btfsc	?_labs+3,7
  4941     039A  2BAA               	goto	u3960
  4942     039B  0873               	movf	?_labs+3,w
  4943     039C  1D03               	btfss	3,2
  4944     039D  2BA9               	goto	u3961
  4945     039E  0872               	movf	?_labs+2,w
  4946     039F  1D03               	btfss	3,2
  4947     03A0  2BA9               	goto	u3961
  4948     03A1  0871               	movf	?_labs+1,w
  4949     03A2  1D03               	btfss	3,2
  4950     03A3  2BA9               	goto	u3961
  4951     03A4  3002               	movlw	2
  4952     03A5  0270               	subwf	?_labs,w
  4953     03A6  1803               	btfsc	3,0
  4954     03A7  2BA9               	goto	u3961
  4955     03A8  2BAA               	goto	u3960
  4956     03A9                     u3961:
  4957     03A9  2C05               	goto	l3039
  4958     03AA                     u3960:
  4959     03AA                     l3029:
  4960                           
  4961                           ;C:\Program Files\Microchip\xc8\v2.41\pic\sources\c99\common\doprnt.c: 609:    g = u;
  4962     03AA  0141               	movlb	1	; select bank1
  4963     03AB  084C               	movf	(efgtoa@u+3)^(0+128),w
  4964     03AC  00C8               	movwf	(efgtoa@g+3)^(0+128)
  4965     03AD  084B               	movf	(efgtoa@u+2)^(0+128),w
  4966     03AE  00C7               	movwf	(efgtoa@g+2)^(0+128)
  4967     03AF  084A               	movf	(efgtoa@u+1)^(0+128),w
  4968     03B0  00C6               	movwf	(efgtoa@g+1)^(0+128)
  4969     03B1  0849               	movf	efgtoa@u^(0+128),w
  4970     03B2  00C5               	movwf	efgtoa@g^(0+128)
  4971                           
  4972                           ;C:\Program Files\Microchip\xc8\v2.41\pic\sources\c99\common\doprnt.c: 610:   }
  4973     03B3  2C2C               	goto	l3041
  4974     03B4                     l3031:
  4975                           
  4976                           ;C:\Program Files\Microchip\xc8\v2.41\pic\sources\c99\common\doprnt.c: 613:     u.f = u.
      +                          f/10.0;
  4977     03B4  3041               	movlw	65
  4978     03B5  00F3               	movwf	___fldiv@a+3
  4979     03B6  3020               	movlw	32
  4980     03B7  00F2               	movwf	___fldiv@a+2
  4981     03B8  3000               	movlw	0
  4982     03B9  00F1               	movwf	___fldiv@a+1
  4983     03BA  3000               	movlw	0
  4984     03BB  00F0               	movwf	___fldiv@a
  4985     03BC  0141               	movlb	1	; select bank1
  4986     03BD  084C               	movf	(efgtoa@u+3)^(0+128),w
  4987     03BE  00F7               	movwf	___fldiv@b+3
  4988     03BF  084B               	movf	(efgtoa@u+2)^(0+128),w
  4989     03C0  00F6               	movwf	___fldiv@b+2
  4990     03C1  084A               	movf	(efgtoa@u+1)^(0+128),w
  4991     03C2  00F5               	movwf	___fldiv@b+1
  4992     03C3  0849               	movf	efgtoa@u^(0+128),w
  4993     03C4  00F4               	movwf	___fldiv@b
  4994     03C5  3180  2041  3181   	fcall	___fldiv
  4995     03C8  0873               	movf	?___fldiv+3,w
  4996     03C9  0141               	movlb	1	; select bank1
  4997     03CA  00CC               	movwf	(efgtoa@u+3)^(0+128)
  4998     03CB  0872               	movf	?___fldiv+2,w
  4999     03CC  00CB               	movwf	(efgtoa@u+2)^(0+128)
  5000     03CD  0871               	movf	?___fldiv+1,w
  5001     03CE  00CA               	movwf	(efgtoa@u+1)^(0+128)
  5002     03CF  0870               	movf	?___fldiv,w
  5003     03D0  00C9               	movwf	efgtoa@u^(0+128)
  5004     03D1                     l3033:
  5005                           
  5006                           ;C:\Program Files\Microchip\xc8\v2.41\pic\sources\c99\common\doprnt.c: 614:     --e;
  5007     03D1  30FF               	movlw	255
  5008     03D2  07B0               	addwf	efgtoa@e^(0+128),f
  5009     03D3  30FF               	movlw	255
  5010     03D4  3DB1               	addwfc	(efgtoa@e+1)^(0+128),f
  5011     03D5                     l3035:
  5012                           
  5013                           ;C:\Program Files\Microchip\xc8\v2.41\pic\sources\c99\common\doprnt.c: 615:     if ((lab
      +                          s((g).u-(u).u) <= 1)) {
  5014     03D5  0849               	movf	efgtoa@u^(0+128),w
  5015     03D6  0245               	subwf	efgtoa@g^(0+128),w
  5016     03D7  0140               	movlb	0	; select bank0
  5017     03D8  00C6               	movwf	??_efgtoa
  5018     03D9  0141               	movlb	1	; select bank1
  5019     03DA  084A               	movf	(efgtoa@u+1)^(0+128),w
  5020     03DB  3B46               	subwfb	(efgtoa@g+1)^(0+128),w
  5021     03DC  0140               	movlb	0	; select bank0
  5022     03DD  00C7               	movwf	??_efgtoa+1
  5023     03DE  0141               	movlb	1	; select bank1
  5024     03DF  084B               	movf	(efgtoa@u+2)^(0+128),w
  5025     03E0  3B47               	subwfb	(efgtoa@g+2)^(0+128),w
  5026     03E1  0140               	movlb	0	; select bank0
  5027     03E2  00C8               	movwf	??_efgtoa+2
  5028     03E3  0141               	movlb	1	; select bank1
  5029     03E4  084C               	movf	(efgtoa@u+3)^(0+128),w
  5030     03E5  3B48               	subwfb	(efgtoa@g+3)^(0+128),w
  5031     03E6  0140               	movlb	0	; select bank0
  5032     03E7  00C9               	movwf	??_efgtoa+3
  5033     03E8  0849               	movf	??_efgtoa+3,w
  5034     03E9  00F3               	movwf	labs@a+3
  5035     03EA  0848               	movf	??_efgtoa+2,w
  5036     03EB  00F2               	movwf	labs@a+2
  5037     03EC  0847               	movf	??_efgtoa+1,w
  5038     03ED  00F1               	movwf	labs@a+1
  5039     03EE  0846               	movf	??_efgtoa,w
  5040     03EF  00F0               	movwf	labs@a
  5041     03F0  3193  234F  3181   	fcall	_labs
  5042     03F3  1BF3               	btfsc	?_labs+3,7
  5043     03F4  2C04               	goto	u3970
  5044     03F5  0873               	movf	?_labs+3,w
  5045     03F6  1D03               	btfss	3,2
  5046     03F7  2C03               	goto	u3971
  5047     03F8  0872               	movf	?_labs+2,w
  5048     03F9  1D03               	btfss	3,2
  5049     03FA  2C03               	goto	u3971
  5050     03FB  0871               	movf	?_labs+1,w
  5051     03FC  1D03               	btfss	3,2
  5052     03FD  2C03               	goto	u3971
  5053     03FE  3002               	movlw	2
  5054     03FF  0270               	subwf	?_labs,w
  5055     0400  1803               	btfsc	3,0
  5056     0401  2C03               	goto	u3971
  5057     0402  2C04               	goto	u3970
  5058     0403                     u3971:
  5059     0403  2C05               	goto	l3039
  5060     0404                     u3970:
  5061     0404  2BAA               	goto	l3029
  5062     0405                     l3039:
  5063                           
  5064                           ;C:\Program Files\Microchip\xc8\v2.41\pic\sources\c99\common\doprnt.c: 612:    while (g.
      +                          f < u.f) {
  5065     0405  0141               	movlb	1	; select bank1
  5066     0406  0848               	movf	(efgtoa@g+3)^(0+128),w
  5067     0407  0140               	movlb	0	; select bank0
  5068     0408  00B8               	movwf	___flge@ff1+3
  5069     0409  0141               	movlb	1	; select bank1
  5070     040A  0847               	movf	(efgtoa@g+2)^(0+128),w
  5071     040B  0140               	movlb	0	; select bank0
  5072     040C  00B7               	movwf	___flge@ff1+2
  5073     040D  0141               	movlb	1	; select bank1
  5074     040E  0846               	movf	(efgtoa@g+1)^(0+128),w
  5075     040F  0140               	movlb	0	; select bank0
  5076     0410  00B6               	movwf	___flge@ff1+1
  5077     0411  0141               	movlb	1	; select bank1
  5078     0412  0845               	movf	efgtoa@g^(0+128),w
  5079     0413  0140               	movlb	0	; select bank0
  5080     0414  00B5               	movwf	___flge@ff1
  5081     0415  0141               	movlb	1	; select bank1
  5082     0416  084C               	movf	(efgtoa@u+3)^(0+128),w
  5083     0417  0140               	movlb	0	; select bank0
  5084     0418  00BC               	movwf	___flge@ff2+3
  5085     0419  0141               	movlb	1	; select bank1
  5086     041A  084B               	movf	(efgtoa@u+2)^(0+128),w
  5087     041B  0140               	movlb	0	; select bank0
  5088     041C  00BB               	movwf	___flge@ff2+2
  5089     041D  0141               	movlb	1	; select bank1
  5090     041E  084A               	movf	(efgtoa@u+1)^(0+128),w
  5091     041F  0140               	movlb	0	; select bank0
  5092     0420  00BA               	movwf	___flge@ff2+1
  5093     0421  0141               	movlb	1	; select bank1
  5094     0422  0849               	movf	efgtoa@u^(0+128),w
  5095     0423  0140               	movlb	0	; select bank0
  5096     0424  00B9               	movwf	___flge@ff2
  5097     0425  3197  2775  3181   	fcall	___flge
  5098     0428  1C03               	btfss	3,0
  5099     0429  2C2B               	goto	u3981
  5100     042A  2C2C               	goto	u3980
  5101     042B                     u3981:
  5102     042B  2BB4               	goto	l3031
  5103     042C                     u3980:
  5104     042C                     l3041:
  5105                           
  5106                           ;C:\Program Files\Microchip\xc8\v2.41\pic\sources\c99\common\doprnt.c: 627:  mode = c;
  5107     042C  0140               	movlb	0	; select bank0
  5108     042D  0845               	movf	efgtoa@c,w
  5109     042E  0141               	movlb	1	; select bank1
  5110     042F  00A9               	movwf	efgtoa@mode^(0+128)
  5111                           
  5112                           ;C:\Program Files\Microchip\xc8\v2.41\pic\sources\c99\common\doprnt.c: 629:     nmode = 
      +                          mode;
  5113     0430  0829               	movf	efgtoa@mode^(0+128),w
  5114     0431  00AA               	movwf	efgtoa@nmode^(0+128)
  5115     0432                     l3043:
  5116                           
  5117                           ;C:\Program Files\Microchip\xc8\v2.41\pic\sources\c99\common\doprnt.c: 639:  {;C:\Progra
      +                          m Files\Microchip\xc8\v2.41\pic\sources\c99\common\doprnt.c: 640:         p = (prec < 0)
      +                           ? 6 : prec;
  5118     0432  1BE5               	btfsc	(_prec+1)^(0+128),7
  5119     0433  2C35               	goto	u3991
  5120     0434  2C36               	goto	u3990
  5121     0435                     u3991:
  5122     0435  2C3B               	goto	l3047
  5123     0436                     u3990:
  5124     0436                     l3045:
  5125     0436  0865               	movf	(_prec+1)^(0+128),w
  5126     0437  00A3               	movwf	(efgtoa@p+1)^(0+128)
  5127     0438  0864               	movf	_prec^(0+128),w
  5128     0439  00A2               	movwf	efgtoa@p^(0+128)
  5129     043A  2C3F               	goto	l765
  5130     043B                     l3047:
  5131     043B  3006               	movlw	6
  5132     043C  00A2               	movwf	efgtoa@p^(0+128)
  5133     043D  3000               	movlw	0
  5134     043E  00A3               	movwf	(efgtoa@p^(0+128)+1)
  5135     043F                     l765:
  5136                           
  5137                           ;C:\Program Files\Microchip\xc8\v2.41\pic\sources\c99\common\doprnt.c: 641:     };C:\Pro
      +                          gram Files\Microchip\xc8\v2.41\pic\sources\c99\common\doprnt.c: 655:     m = p;
  5138     043F  0823               	movf	(efgtoa@p+1)^(0+128),w
  5139     0440  00AE               	movwf	(efgtoa@m+1)^(0+128)
  5140     0441  0822               	movf	efgtoa@p^(0+128),w
  5141     0442  00AD               	movwf	efgtoa@m^(0+128)
  5142                           
  5143                           ;C:\Program Files\Microchip\xc8\v2.41\pic\sources\c99\common\doprnt.c: 659:  {;C:\Progra
      +                          m Files\Microchip\xc8\v2.41\pic\sources\c99\common\doprnt.c: 660:         ++m;
  5144     0443  3001               	movlw	1
  5145     0444  07AD               	addwf	efgtoa@m^(0+128),f
  5146     0445  3000               	movlw	0
  5147     0446  3DAE               	addwfc	(efgtoa@m+1)^(0+128),f
  5148     0447                     l3049:
  5149                           
  5150                           ;C:\Program Files\Microchip\xc8\v2.41\pic\sources\c99\common\doprnt.c: 661:     };C:\Pro
      +                          gram Files\Microchip\xc8\v2.41\pic\sources\c99\common\doprnt.c: 665:     if (nmode == 'f
      +                          ') {
  5151     0447  3066               	movlw	102
  5152     0448  062A               	xorwf	efgtoa@nmode^(0+128),w
  5153     0449  1D03               	btfss	3,2
  5154     044A  2C4C               	goto	u4001
  5155     044B  2C4D               	goto	u4000
  5156     044C                     u4001:
  5157     044C  2C65               	goto	l3061
  5158     044D                     u4000:
  5159     044D                     l3051:
  5160                           
  5161                           ;C:\Program Files\Microchip\xc8\v2.41\pic\sources\c99\common\doprnt.c: 666:         if (
      +                          e < 0) {
  5162     044D  1FB1               	btfss	(efgtoa@e+1)^(0+128),7
  5163     044E  2C50               	goto	u4011
  5164     044F  2C51               	goto	u4010
  5165     0450                     u4011:
  5166     0450  2C5B               	goto	l3057
  5167     0451                     u4010:
  5168     0451                     l3053:
  5169                           
  5170                           ;C:\Program Files\Microchip\xc8\v2.41\pic\sources\c99\common\doprnt.c: 667:             
      +                          u.f = 1.0;
  5171     0451  303F               	movlw	63
  5172     0452  00CC               	movwf	(efgtoa@u+3)^(0+128)
  5173     0453  3080               	movlw	128
  5174     0454  00CB               	movwf	(efgtoa@u+2)^(0+128)
  5175     0455  3000               	movlw	0
  5176     0456  00CA               	movwf	(efgtoa@u+1)^(0+128)
  5177     0457  3000               	movlw	0
  5178     0458  00C9               	movwf	efgtoa@u^(0+128)
  5179     0459                     l3055:
  5180                           
  5181                           ;C:\Program Files\Microchip\xc8\v2.41\pic\sources\c99\common\doprnt.c: 668:             
      +                          e = 0;
  5182     0459  01B0               	clrf	efgtoa@e^(0+128)
  5183     045A  01B1               	clrf	(efgtoa@e+1)^(0+128)
  5184     045B                     l3057:
  5185                           
  5186                           ;C:\Program Files\Microchip\xc8\v2.41\pic\sources\c99\common\doprnt.c: 670:         if (
      +                          !(mode == 'g')) {
  5187     045B  3067               	movlw	103
  5188     045C  0629               	xorwf	efgtoa@mode^(0+128),w
  5189     045D  1903               	btfsc	3,2
  5190     045E  2C60               	goto	u4021
  5191     045F  2C61               	goto	u4020
  5192     0460                     u4021:
  5193     0460  2C65               	goto	l3061
  5194     0461                     u4020:
  5195     0461                     l3059:
  5196                           
  5197                           ;C:\Program Files\Microchip\xc8\v2.41\pic\sources\c99\common\doprnt.c: 671:             
      +                          m += e;
  5198     0461  0830               	movf	efgtoa@e^(0+128),w
  5199     0462  07AD               	addwf	efgtoa@m^(0+128),f
  5200     0463  0831               	movf	(efgtoa@e+1)^(0+128),w
  5201     0464  3DAE               	addwfc	(efgtoa@m+1)^(0+128),f
  5202     0465                     l3061:
  5203                           
  5204                           ;C:\Program Files\Microchip\xc8\v2.41\pic\sources\c99\common\doprnt.c: 677:     i = 0;
  5205     0465  01B8               	clrf	efgtoa@i^(0+128)
  5206     0466  01B9               	clrf	(efgtoa@i+1)^(0+128)
  5207     0467                     l3063:
  5208                           
  5209                           ;C:\Program Files\Microchip\xc8\v2.41\pic\sources\c99\common\doprnt.c: 678:     h = g.f;
  5210     0467  0848               	movf	(efgtoa@g+3)^(0+128),w
  5211     0468  00BD               	movwf	(efgtoa@h+3)^(0+128)
  5212     0469  0847               	movf	(efgtoa@g+2)^(0+128),w
  5213     046A  00BC               	movwf	(efgtoa@h+2)^(0+128)
  5214     046B  0846               	movf	(efgtoa@g+1)^(0+128),w
  5215     046C  00BB               	movwf	(efgtoa@h+1)^(0+128)
  5216     046D  0845               	movf	efgtoa@g^(0+128),w
  5217     046E  00BA               	movwf	efgtoa@h^(0+128)
  5218     046F                     l3065:
  5219                           
  5220                           ;C:\Program Files\Microchip\xc8\v2.41\pic\sources\c99\common\doprnt.c: 679:     ou = u;
  5221     046F  084C               	movf	(efgtoa@u+3)^(0+128),w
  5222     0470  00B7               	movwf	(efgtoa@ou+3)^(0+128)
  5223     0471  084B               	movf	(efgtoa@u+2)^(0+128),w
  5224     0472  00B6               	movwf	(efgtoa@ou+2)^(0+128)
  5225     0473  084A               	movf	(efgtoa@u+1)^(0+128),w
  5226     0474  00B5               	movwf	(efgtoa@ou+1)^(0+128)
  5227     0475  0849               	movf	efgtoa@u^(0+128),w
  5228     0476  00B4               	movwf	efgtoa@ou^(0+128)
  5229                           
  5230                           ;C:\Program Files\Microchip\xc8\v2.41\pic\sources\c99\common\doprnt.c: 680:     while (i
      +                           < m) {
  5231     0477  2D26               	goto	l3071
  5232     0478                     l3067:
  5233                           
  5234                           ;C:\Program Files\Microchip\xc8\v2.41\pic\sources\c99\common\doprnt.c: 681:         l = 
      +                          floorf(h/u.f);
  5235     0478  0141               	movlb	1	; select bank1
  5236     0479  084C               	movf	(efgtoa@u+3)^(0+128),w
  5237     047A  00F3               	movwf	___fldiv@a+3
  5238     047B  084B               	movf	(efgtoa@u+2)^(0+128),w
  5239     047C  00F2               	movwf	___fldiv@a+2
  5240     047D  084A               	movf	(efgtoa@u+1)^(0+128),w
  5241     047E  00F1               	movwf	___fldiv@a+1
  5242     047F  0849               	movf	efgtoa@u^(0+128),w
  5243     0480  00F0               	movwf	___fldiv@a
  5244     0481  083D               	movf	(efgtoa@h+3)^(0+128),w
  5245     0482  00F7               	movwf	___fldiv@b+3
  5246     0483  083C               	movf	(efgtoa@h+2)^(0+128),w
  5247     0484  00F6               	movwf	___fldiv@b+2
  5248     0485  083B               	movf	(efgtoa@h+1)^(0+128),w
  5249     0486  00F5               	movwf	___fldiv@b+1
  5250     0487  083A               	movf	efgtoa@h^(0+128),w
  5251     0488  00F4               	movwf	___fldiv@b
  5252     0489  3180  2041  3181   	fcall	___fldiv
  5253     048C  0873               	movf	?___fldiv+3,w
  5254     048D  0140               	movlb	0	; select bank0
  5255     048E  00B0               	movwf	floorf@x+3
  5256     048F  0872               	movf	?___fldiv+2,w
  5257     0490  00AF               	movwf	floorf@x+2
  5258     0491  0871               	movf	?___fldiv+1,w
  5259     0492  00AE               	movwf	floorf@x+1
  5260     0493  0870               	movf	?___fldiv,w
  5261     0494  00AD               	movwf	floorf@x
  5262     0495  3188  2035  3181   	fcall	_floorf
  5263     0498  0140               	movlb	0	; select bank0
  5264     0499  0830               	movf	?_floorf+3,w
  5265     049A  0141               	movlb	1	; select bank1
  5266     049B  00C1               	movwf	(efgtoa@l+3)^(0+128)
  5267     049C  0140               	movlb	0	; select bank0
  5268     049D  082F               	movf	?_floorf+2,w
  5269     049E  0141               	movlb	1	; select bank1
  5270     049F  00C0               	movwf	(efgtoa@l+2)^(0+128)
  5271     04A0  0140               	movlb	0	; select bank0
  5272     04A1  082E               	movf	?_floorf+1,w
  5273     04A2  0141               	movlb	1	; select bank1
  5274     04A3  00BF               	movwf	(efgtoa@l+1)^(0+128)
  5275     04A4  0140               	movlb	0	; select bank0
  5276     04A5  082D               	movf	?_floorf,w
  5277     04A6  0141               	movlb	1	; select bank1
  5278     04A7  00BE               	movwf	efgtoa@l^(0+128)
  5279                           
  5280                           ;C:\Program Files\Microchip\xc8\v2.41\pic\sources\c99\common\doprnt.c: 682:         d = 
      +                          (int)l;
  5281     04A8  0841               	movf	(efgtoa@l+3)^(0+128),w
  5282     04A9  00F3               	movwf	___fltol@f1+3
  5283     04AA  0840               	movf	(efgtoa@l+2)^(0+128),w
  5284     04AB  00F2               	movwf	___fltol@f1+2
  5285     04AC  083F               	movf	(efgtoa@l+1)^(0+128),w
  5286     04AD  00F1               	movwf	___fltol@f1+1
  5287     04AE  083E               	movf	efgtoa@l^(0+128),w
  5288     04AF  00F0               	movwf	___fltol@f1
  5289     04B0  3196  260B  3181   	fcall	___fltol
  5290     04B3  0871               	movf	?___fltol+1,w
  5291     04B4  0141               	movlb	1	; select bank1
  5292     04B5  00AC               	movwf	(efgtoa@d+1)^(0+128)
  5293     04B6  0870               	movf	?___fltol,w
  5294     04B7  00AB               	movwf	efgtoa@d^(0+128)
  5295                           
  5296                           ;C:\Program Files\Microchip\xc8\v2.41\pic\sources\c99\common\doprnt.c: 683:         h -=
      +                           l*u.f;
  5297     04B8  084C               	movf	(efgtoa@u+3)^(0+128),w
  5298     04B9  0140               	movlb	0	; select bank0
  5299     04BA  00A7               	movwf	___flmul@a+3
  5300     04BB  0141               	movlb	1	; select bank1
  5301     04BC  084B               	movf	(efgtoa@u+2)^(0+128),w
  5302     04BD  0140               	movlb	0	; select bank0
  5303     04BE  00A6               	movwf	___flmul@a+2
  5304     04BF  0141               	movlb	1	; select bank1
  5305     04C0  084A               	movf	(efgtoa@u+1)^(0+128),w
  5306     04C1  0140               	movlb	0	; select bank0
  5307     04C2  00A5               	movwf	___flmul@a+1
  5308     04C3  0141               	movlb	1	; select bank1
  5309     04C4  0849               	movf	efgtoa@u^(0+128),w
  5310     04C5  0140               	movlb	0	; select bank0
  5311     04C6  00A4               	movwf	___flmul@a
  5312     04C7  0141               	movlb	1	; select bank1
  5313     04C8  0841               	movf	(efgtoa@l+3)^(0+128),w
  5314     04C9  0140               	movlb	0	; select bank0
  5315     04CA  00A3               	movwf	___flmul@b+3
  5316     04CB  0141               	movlb	1	; select bank1
  5317     04CC  0840               	movf	(efgtoa@l+2)^(0+128),w
  5318     04CD  0140               	movlb	0	; select bank0
  5319     04CE  00A2               	movwf	___flmul@b+2
  5320     04CF  0141               	movlb	1	; select bank1
  5321     04D0  083F               	movf	(efgtoa@l+1)^(0+128),w
  5322     04D1  0140               	movlb	0	; select bank0
  5323     04D2  00A1               	movwf	___flmul@b+1
  5324     04D3  0141               	movlb	1	; select bank1
  5325     04D4  083E               	movf	efgtoa@l^(0+128),w
  5326     04D5  0140               	movlb	0	; select bank0
  5327     04D6  00A0               	movwf	___flmul@b
  5328     04D7  318D  25C5  3181   	fcall	___flmul
  5329     04DA  0140               	movlb	0	; select bank0
  5330     04DB  0823               	movf	?___flmul+3,w
  5331     04DC  00B8               	movwf	___flsub@a+3
  5332     04DD  0822               	movf	?___flmul+2,w
  5333     04DE  00B7               	movwf	___flsub@a+2
  5334     04DF  0821               	movf	?___flmul+1,w
  5335     04E0  00B6               	movwf	___flsub@a+1
  5336     04E1  0820               	movf	?___flmul,w
  5337     04E2  00B5               	movwf	___flsub@a
  5338     04E3  0141               	movlb	1	; select bank1
  5339     04E4  083D               	movf	(efgtoa@h+3)^(0+128),w
  5340     04E5  0140               	movlb	0	; select bank0
  5341     04E6  00BC               	movwf	___flsub@b+3
  5342     04E7  0141               	movlb	1	; select bank1
  5343     04E8  083C               	movf	(efgtoa@h+2)^(0+128),w
  5344     04E9  0140               	movlb	0	; select bank0
  5345     04EA  00BB               	movwf	___flsub@b+2
  5346     04EB  0141               	movlb	1	; select bank1
  5347     04EC  083B               	movf	(efgtoa@h+1)^(0+128),w
  5348     04ED  0140               	movlb	0	; select bank0
  5349     04EE  00BA               	movwf	___flsub@b+1
  5350     04EF  0141               	movlb	1	; select bank1
  5351     04F0  083A               	movf	efgtoa@h^(0+128),w
  5352     04F1  0140               	movlb	0	; select bank0
  5353     04F2  00B9               	movwf	___flsub@b
  5354     04F3  3193  232F  3181   	fcall	___flsub
  5355     04F6  0140               	movlb	0	; select bank0
  5356     04F7  0838               	movf	?___flsub+3,w
  5357     04F8  0141               	movlb	1	; select bank1
  5358     04F9  00BD               	movwf	(efgtoa@h+3)^(0+128)
  5359     04FA  0140               	movlb	0	; select bank0
  5360     04FB  0837               	movf	?___flsub+2,w
  5361     04FC  0141               	movlb	1	; select bank1
  5362     04FD  00BC               	movwf	(efgtoa@h+2)^(0+128)
  5363     04FE  0140               	movlb	0	; select bank0
  5364     04FF  0836               	movf	?___flsub+1,w
  5365     0500  0141               	movlb	1	; select bank1
  5366     0501  00BB               	movwf	(efgtoa@h+1)^(0+128)
  5367     0502  0140               	movlb	0	; select bank0
  5368     0503  0835               	movf	?___flsub,w
  5369     0504  0141               	movlb	1	; select bank1
  5370     0505  00BA               	movwf	efgtoa@h^(0+128)
  5371                           
  5372                           ;C:\Program Files\Microchip\xc8\v2.41\pic\sources\c99\common\doprnt.c: 684:         u.f 
      +                          = u.f/10.0;
  5373     0506  3041               	movlw	65
  5374     0507  00F3               	movwf	___fldiv@a+3
  5375     0508  3020               	movlw	32
  5376     0509  00F2               	movwf	___fldiv@a+2
  5377     050A  3000               	movlw	0
  5378     050B  00F1               	movwf	___fldiv@a+1
  5379     050C  3000               	movlw	0
  5380     050D  00F0               	movwf	___fldiv@a
  5381     050E  084C               	movf	(efgtoa@u+3)^(0+128),w
  5382     050F  00F7               	movwf	___fldiv@b+3
  5383     0510  084B               	movf	(efgtoa@u+2)^(0+128),w
  5384     0511  00F6               	movwf	___fldiv@b+2
  5385     0512  084A               	movf	(efgtoa@u+1)^(0+128),w
  5386     0513  00F5               	movwf	___fldiv@b+1
  5387     0514  0849               	movf	efgtoa@u^(0+128),w
  5388     0515  00F4               	movwf	___fldiv@b
  5389     0516  3180  2041  3181   	fcall	___fldiv
  5390     0519  0873               	movf	?___fldiv+3,w
  5391     051A  0141               	movlb	1	; select bank1
  5392     051B  00CC               	movwf	(efgtoa@u+3)^(0+128)
  5393     051C  0872               	movf	?___fldiv+2,w
  5394     051D  00CB               	movwf	(efgtoa@u+2)^(0+128)
  5395     051E  0871               	movf	?___fldiv+1,w
  5396     051F  00CA               	movwf	(efgtoa@u+1)^(0+128)
  5397     0520  0870               	movf	?___fldiv,w
  5398     0521  00C9               	movwf	efgtoa@u^(0+128)
  5399     0522                     l3069:
  5400                           
  5401                           ;C:\Program Files\Microchip\xc8\v2.41\pic\sources\c99\common\doprnt.c: 685:         ++i;
  5402     0522  3001               	movlw	1
  5403     0523  07B8               	addwf	efgtoa@i^(0+128),f
  5404     0524  3000               	movlw	0
  5405     0525  3DB9               	addwfc	(efgtoa@i+1)^(0+128),f
  5406     0526                     l3071:
  5407                           
  5408                           ;C:\Program Files\Microchip\xc8\v2.41\pic\sources\c99\common\doprnt.c: 680:     while (i
      +                           < m) {
  5409     0526  0839               	movf	(efgtoa@i+1)^(0+128),w
  5410     0527  3A80               	xorlw	128
  5411     0528  0140               	movlb	0	; select bank0
  5412     0529  00C6               	movwf	??_efgtoa
  5413     052A  0141               	movlb	1	; select bank1
  5414     052B  082E               	movf	(efgtoa@m+1)^(0+128),w
  5415     052C  3A80               	xorlw	128
  5416     052D  0140               	movlb	0	; select bank0
  5417     052E  0246               	subwf	??_efgtoa,w
  5418     052F  1D03               	skipz
  5419     0530  2D34               	goto	u4035
  5420     0531  0141               	movlb	1	; select bank1
  5421     0532  082D               	movf	efgtoa@m^(0+128),w
  5422     0533  0238               	subwf	efgtoa@i^(0+128),w
  5423     0534                     u4035:
  5424     0534  1C03               	skipc
  5425     0535  2D37               	goto	u4031
  5426     0536  2D38               	goto	u4030
  5427     0537                     u4031:
  5428     0537  2C78               	goto	l3067
  5429     0538                     u4030:
  5430     0538                     l3073:
  5431                           
  5432                           ;C:\Program Files\Microchip\xc8\v2.41\pic\sources\c99\common\doprnt.c: 689:     l = u.f*
      +                          5.0;
  5433     0538  3040               	movlw	64
  5434     0539  0140               	movlb	0	; select bank0
  5435     053A  00A3               	movwf	___flmul@b+3
  5436     053B  30A0               	movlw	160
  5437     053C  00A2               	movwf	___flmul@b+2
  5438     053D  3000               	movlw	0
  5439     053E  00A1               	movwf	___flmul@b+1
  5440     053F  3000               	movlw	0
  5441     0540  00A0               	movwf	___flmul@b
  5442     0541  0141               	movlb	1	; select bank1
  5443     0542  084C               	movf	(efgtoa@u+3)^(0+128),w
  5444     0543  0140               	movlb	0	; select bank0
  5445     0544  00A7               	movwf	___flmul@a+3
  5446     0545  0141               	movlb	1	; select bank1
  5447     0546  084B               	movf	(efgtoa@u+2)^(0+128),w
  5448     0547  0140               	movlb	0	; select bank0
  5449     0548  00A6               	movwf	___flmul@a+2
  5450     0549  0141               	movlb	1	; select bank1
  5451     054A  084A               	movf	(efgtoa@u+1)^(0+128),w
  5452     054B  0140               	movlb	0	; select bank0
  5453     054C  00A5               	movwf	___flmul@a+1
  5454     054D  0141               	movlb	1	; select bank1
  5455     054E  0849               	movf	efgtoa@u^(0+128),w
  5456     054F  0140               	movlb	0	; select bank0
  5457     0550  00A4               	movwf	___flmul@a
  5458     0551  318D  25C5  3181   	fcall	___flmul
  5459     0554  0140               	movlb	0	; select bank0
  5460     0555  0823               	movf	?___flmul+3,w
  5461     0556  0141               	movlb	1	; select bank1
  5462     0557  00C1               	movwf	(efgtoa@l+3)^(0+128)
  5463     0558  0140               	movlb	0	; select bank0
  5464     0559  0822               	movf	?___flmul+2,w
  5465     055A  0141               	movlb	1	; select bank1
  5466     055B  00C0               	movwf	(efgtoa@l+2)^(0+128)
  5467     055C  0140               	movlb	0	; select bank0
  5468     055D  0821               	movf	?___flmul+1,w
  5469     055E  0141               	movlb	1	; select bank1
  5470     055F  00BF               	movwf	(efgtoa@l+1)^(0+128)
  5471     0560  0140               	movlb	0	; select bank0
  5472     0561  0820               	movf	?___flmul,w
  5473     0562  0141               	movlb	1	; select bank1
  5474     0563  00BE               	movwf	efgtoa@l^(0+128)
  5475                           
  5476                           ;C:\Program Files\Microchip\xc8\v2.41\pic\sources\c99\common\doprnt.c: 690:     if (h < 
      +                          l) {
  5477     0564  083D               	movf	(efgtoa@h+3)^(0+128),w
  5478     0565  0140               	movlb	0	; select bank0
  5479     0566  00B8               	movwf	___flge@ff1+3
  5480     0567  0141               	movlb	1	; select bank1
  5481     0568  083C               	movf	(efgtoa@h+2)^(0+128),w
  5482     0569  0140               	movlb	0	; select bank0
  5483     056A  00B7               	movwf	___flge@ff1+2
  5484     056B  0141               	movlb	1	; select bank1
  5485     056C  083B               	movf	(efgtoa@h+1)^(0+128),w
  5486     056D  0140               	movlb	0	; select bank0
  5487     056E  00B6               	movwf	___flge@ff1+1
  5488     056F  0141               	movlb	1	; select bank1
  5489     0570  083A               	movf	efgtoa@h^(0+128),w
  5490     0571  0140               	movlb	0	; select bank0
  5491     0572  00B5               	movwf	___flge@ff1
  5492     0573  0141               	movlb	1	; select bank1
  5493     0574  0841               	movf	(efgtoa@l+3)^(0+128),w
  5494     0575  0140               	movlb	0	; select bank0
  5495     0576  00BC               	movwf	___flge@ff2+3
  5496     0577  0141               	movlb	1	; select bank1
  5497     0578  0840               	movf	(efgtoa@l+2)^(0+128),w
  5498     0579  0140               	movlb	0	; select bank0
  5499     057A  00BB               	movwf	___flge@ff2+2
  5500     057B  0141               	movlb	1	; select bank1
  5501     057C  083F               	movf	(efgtoa@l+1)^(0+128),w
  5502     057D  0140               	movlb	0	; select bank0
  5503     057E  00BA               	movwf	___flge@ff2+1
  5504     057F  0141               	movlb	1	; select bank1
  5505     0580  083E               	movf	efgtoa@l^(0+128),w
  5506     0581  0140               	movlb	0	; select bank0
  5507     0582  00B9               	movwf	___flge@ff2
  5508     0583  3197  2775  3181   	fcall	___flge
  5509     0586  1803               	btfsc	3,0
  5510     0587  2D89               	goto	u4041
  5511     0588  2D8A               	goto	u4040
  5512     0589                     u4041:
  5513     0589  2D94               	goto	l3077
  5514     058A                     u4040:
  5515     058A                     l3075:
  5516                           
  5517                           ;C:\Program Files\Microchip\xc8\v2.41\pic\sources\c99\common\doprnt.c: 691:         l = 
      +                          0.0;
  5518     058A  3000               	movlw	0
  5519     058B  0141               	movlb	1	; select bank1
  5520     058C  00C1               	movwf	(efgtoa@l+3)^(0+128)
  5521     058D  3000               	movlw	0
  5522     058E  00C0               	movwf	(efgtoa@l+2)^(0+128)
  5523     058F  3000               	movlw	0
  5524     0590  00BF               	movwf	(efgtoa@l+1)^(0+128)
  5525     0591  3000               	movlw	0
  5526     0592  00BE               	movwf	efgtoa@l^(0+128)
  5527                           
  5528                           ;C:\Program Files\Microchip\xc8\v2.41\pic\sources\c99\common\doprnt.c: 692:     } else {
  5529     0593  2DB9               	goto	l3083
  5530     0594                     l3077:
  5531                           
  5532                           ;C:\Program Files\Microchip\xc8\v2.41\pic\sources\c99\common\doprnt.c: 694:         if (
      +                          (h == l) && !(d % 2)) {
  5533     0594  0141               	movlb	1	; select bank1
  5534     0595  083D               	movf	(efgtoa@h+3)^(0+128),w
  5535     0596  00F3               	movwf	___fleq@ff1+3
  5536     0597  083C               	movf	(efgtoa@h+2)^(0+128),w
  5537     0598  00F2               	movwf	___fleq@ff1+2
  5538     0599  083B               	movf	(efgtoa@h+1)^(0+128),w
  5539     059A  00F1               	movwf	___fleq@ff1+1
  5540     059B  083A               	movf	efgtoa@h^(0+128),w
  5541     059C  00F0               	movwf	___fleq@ff1
  5542     059D  0841               	movf	(efgtoa@l+3)^(0+128),w
  5543     059E  00F7               	movwf	___fleq@ff2+3
  5544     059F  0840               	movf	(efgtoa@l+2)^(0+128),w
  5545     05A0  00F6               	movwf	___fleq@ff2+2
  5546     05A1  083F               	movf	(efgtoa@l+1)^(0+128),w
  5547     05A2  00F5               	movwf	___fleq@ff2+1
  5548     05A3  083E               	movf	efgtoa@l^(0+128),w
  5549     05A4  00F4               	movwf	___fleq@ff2
  5550     05A5  3195  250D  3181   	fcall	___fleq
  5551     05A8  1C03               	btfss	3,0
  5552     05A9  2DAB               	goto	u4051
  5553     05AA  2DAC               	goto	u4050
  5554     05AB                     u4051:
  5555     05AB  2DB9               	goto	l3083
  5556     05AC                     u4050:
  5557     05AC                     l3079:
  5558     05AC  0141               	movlb	1	; select bank1
  5559     05AD  182B               	btfsc	efgtoa@d^(0+128),0
  5560     05AE  2DB0               	goto	u4061
  5561     05AF  2DB1               	goto	u4060
  5562     05B0                     u4061:
  5563     05B0  2DB9               	goto	l3083
  5564     05B1                     u4060:
  5565     05B1                     l3081:
  5566                           
  5567                           ;C:\Program Files\Microchip\xc8\v2.41\pic\sources\c99\common\doprnt.c: 695:             
      +                          l = 0.0;
  5568     05B1  3000               	movlw	0
  5569     05B2  00C1               	movwf	(efgtoa@l+3)^(0+128)
  5570     05B3  3000               	movlw	0
  5571     05B4  00C0               	movwf	(efgtoa@l+2)^(0+128)
  5572     05B5  3000               	movlw	0
  5573     05B6  00BF               	movwf	(efgtoa@l+1)^(0+128)
  5574     05B7  3000               	movlw	0
  5575     05B8  00BE               	movwf	efgtoa@l^(0+128)
  5576     05B9                     l3083:
  5577                           
  5578                           ;C:\Program Files\Microchip\xc8\v2.41\pic\sources\c99\common\doprnt.c: 700:     h = g.f 
      +                          + l;
  5579     05B9  0141               	movlb	1	; select bank1
  5580     05BA  0841               	movf	(efgtoa@l+3)^(0+128),w
  5581     05BB  00F3               	movwf	___fladd@b+3
  5582     05BC  0840               	movf	(efgtoa@l+2)^(0+128),w
  5583     05BD  00F2               	movwf	___fladd@b+2
  5584     05BE  083F               	movf	(efgtoa@l+1)^(0+128),w
  5585     05BF  00F1               	movwf	___fladd@b+1
  5586     05C0  083E               	movf	efgtoa@l^(0+128),w
  5587     05C1  00F0               	movwf	___fladd@b
  5588     05C2  0848               	movf	(efgtoa@g+3)^(0+128),w
  5589     05C3  00F7               	movwf	___fladd@a+3
  5590     05C4  0847               	movf	(efgtoa@g+2)^(0+128),w
  5591     05C5  00F6               	movwf	___fladd@a+2
  5592     05C6  0846               	movf	(efgtoa@g+1)^(0+128),w
  5593     05C7  00F5               	movwf	___fladd@a+1
  5594     05C8  0845               	movf	efgtoa@g^(0+128),w
  5595     05C9  00F4               	movwf	___fladd@a
  5596     05CA  318B  23B9  3181   	fcall	___fladd
  5597     05CD  0873               	movf	?___fladd+3,w
  5598     05CE  0141               	movlb	1	; select bank1
  5599     05CF  00BD               	movwf	(efgtoa@h+3)^(0+128)
  5600     05D0  0872               	movf	?___fladd+2,w
  5601     05D1  00BC               	movwf	(efgtoa@h+2)^(0+128)
  5602     05D2  0871               	movf	?___fladd+1,w
  5603     05D3  00BB               	movwf	(efgtoa@h+1)^(0+128)
  5604     05D4  0870               	movf	?___fladd,w
  5605     05D5  00BA               	movwf	efgtoa@h^(0+128)
  5606     05D6                     l3085:
  5607                           
  5608                           ;C:\Program Files\Microchip\xc8\v2.41\pic\sources\c99\common\doprnt.c: 702:  if (h >= (o
      +                          u.f*10.0)) {
  5609     05D6  083D               	movf	(efgtoa@h+3)^(0+128),w
  5610     05D7  0140               	movlb	0	; select bank0
  5611     05D8  00B8               	movwf	___flge@ff1+3
  5612     05D9  0141               	movlb	1	; select bank1
  5613     05DA  083C               	movf	(efgtoa@h+2)^(0+128),w
  5614     05DB  0140               	movlb	0	; select bank0
  5615     05DC  00B7               	movwf	___flge@ff1+2
  5616     05DD  0141               	movlb	1	; select bank1
  5617     05DE  083B               	movf	(efgtoa@h+1)^(0+128),w
  5618     05DF  0140               	movlb	0	; select bank0
  5619     05E0  00B6               	movwf	___flge@ff1+1
  5620     05E1  0141               	movlb	1	; select bank1
  5621     05E2  083A               	movf	efgtoa@h^(0+128),w
  5622     05E3  0140               	movlb	0	; select bank0
  5623     05E4  00B5               	movwf	___flge@ff1
  5624     05E5  3041               	movlw	65
  5625     05E6  00A3               	movwf	___flmul@b+3
  5626     05E7  3020               	movlw	32
  5627     05E8  00A2               	movwf	___flmul@b+2
  5628     05E9  3000               	movlw	0
  5629     05EA  00A1               	movwf	___flmul@b+1
  5630     05EB  3000               	movlw	0
  5631     05EC  00A0               	movwf	___flmul@b
  5632     05ED  0141               	movlb	1	; select bank1
  5633     05EE  0837               	movf	(efgtoa@ou+3)^(0+128),w
  5634     05EF  0140               	movlb	0	; select bank0
  5635     05F0  00A7               	movwf	___flmul@a+3
  5636     05F1  0141               	movlb	1	; select bank1
  5637     05F2  0836               	movf	(efgtoa@ou+2)^(0+128),w
  5638     05F3  0140               	movlb	0	; select bank0
  5639     05F4  00A6               	movwf	___flmul@a+2
  5640     05F5  0141               	movlb	1	; select bank1
  5641     05F6  0835               	movf	(efgtoa@ou+1)^(0+128),w
  5642     05F7  0140               	movlb	0	; select bank0
  5643     05F8  00A5               	movwf	___flmul@a+1
  5644     05F9  0141               	movlb	1	; select bank1
  5645     05FA  0834               	movf	efgtoa@ou^(0+128),w
  5646     05FB  0140               	movlb	0	; select bank0
  5647     05FC  00A4               	movwf	___flmul@a
  5648     05FD  318D  25C5  3181   	fcall	___flmul
  5649     0600  0140               	movlb	0	; select bank0
  5650     0601  0823               	movf	?___flmul+3,w
  5651     0602  00BC               	movwf	___flge@ff2+3
  5652     0603  0822               	movf	?___flmul+2,w
  5653     0604  00BB               	movwf	___flge@ff2+2
  5654     0605  0821               	movf	?___flmul+1,w
  5655     0606  00BA               	movwf	___flge@ff2+1
  5656     0607  0820               	movf	?___flmul,w
  5657     0608  00B9               	movwf	___flge@ff2
  5658     0609  3197  2775  3181   	fcall	___flge
  5659     060C  1C03               	btfss	3,0
  5660     060D  2E0F               	goto	u4071
  5661     060E  2E10               	goto	u4070
  5662     060F                     u4071:
  5663     060F  2E4B               	goto	l775
  5664     0610                     u4070:
  5665     0610                     l3087:
  5666                           
  5667                           ;C:\Program Files\Microchip\xc8\v2.41\pic\sources\c99\common\doprnt.c: 703:   e++;
  5668     0610  3001               	movlw	1
  5669     0611  0141               	movlb	1	; select bank1
  5670     0612  07B0               	addwf	efgtoa@e^(0+128),f
  5671     0613  3000               	movlw	0
  5672     0614  3DB1               	addwfc	(efgtoa@e+1)^(0+128),f
  5673     0615                     l3089:
  5674                           
  5675                           ;C:\Program Files\Microchip\xc8\v2.41\pic\sources\c99\common\doprnt.c: 704:   ou.f *= 10
      +                          .0;
  5676     0615  3041               	movlw	65
  5677     0616  0140               	movlb	0	; select bank0
  5678     0617  00A3               	movwf	___flmul@b+3
  5679     0618  3020               	movlw	32
  5680     0619  00A2               	movwf	___flmul@b+2
  5681     061A  3000               	movlw	0
  5682     061B  00A1               	movwf	___flmul@b+1
  5683     061C  3000               	movlw	0
  5684     061D  00A0               	movwf	___flmul@b
  5685     061E  0141               	movlb	1	; select bank1
  5686     061F  0837               	movf	(efgtoa@ou+3)^(0+128),w
  5687     0620  0140               	movlb	0	; select bank0
  5688     0621  00A7               	movwf	___flmul@a+3
  5689     0622  0141               	movlb	1	; select bank1
  5690     0623  0836               	movf	(efgtoa@ou+2)^(0+128),w
  5691     0624  0140               	movlb	0	; select bank0
  5692     0625  00A6               	movwf	___flmul@a+2
  5693     0626  0141               	movlb	1	; select bank1
  5694     0627  0835               	movf	(efgtoa@ou+1)^(0+128),w
  5695     0628  0140               	movlb	0	; select bank0
  5696     0629  00A5               	movwf	___flmul@a+1
  5697     062A  0141               	movlb	1	; select bank1
  5698     062B  0834               	movf	efgtoa@ou^(0+128),w
  5699     062C  0140               	movlb	0	; select bank0
  5700     062D  00A4               	movwf	___flmul@a
  5701     062E  318D  25C5  3181   	fcall	___flmul
  5702     0631  0140               	movlb	0	; select bank0
  5703     0632  0823               	movf	?___flmul+3,w
  5704     0633  0141               	movlb	1	; select bank1
  5705     0634  00B7               	movwf	(efgtoa@ou+3)^(0+128)
  5706     0635  0140               	movlb	0	; select bank0
  5707     0636  0822               	movf	?___flmul+2,w
  5708     0637  0141               	movlb	1	; select bank1
  5709     0638  00B6               	movwf	(efgtoa@ou+2)^(0+128)
  5710     0639  0140               	movlb	0	; select bank0
  5711     063A  0821               	movf	?___flmul+1,w
  5712     063B  0141               	movlb	1	; select bank1
  5713     063C  00B5               	movwf	(efgtoa@ou+1)^(0+128)
  5714     063D  0140               	movlb	0	; select bank0
  5715     063E  0820               	movf	?___flmul,w
  5716     063F  0141               	movlb	1	; select bank1
  5717     0640  00B4               	movwf	efgtoa@ou^(0+128)
  5718     0641                     l3091:
  5719                           
  5720                           ;C:\Program Files\Microchip\xc8\v2.41\pic\sources\c99\common\doprnt.c: 706:   if (nmode 
      +                          == 'f') {
  5721     0641  3066               	movlw	102
  5722     0642  062A               	xorwf	efgtoa@nmode^(0+128),w
  5723     0643  1D03               	btfss	3,2
  5724     0644  2E46               	goto	u4081
  5725     0645  2E47               	goto	u4080
  5726     0646                     u4081:
  5727     0646  2E4B               	goto	l775
  5728     0647                     u4080:
  5729     0647                     l3093:
  5730                           
  5731                           ;C:\Program Files\Microchip\xc8\v2.41\pic\sources\c99\common\doprnt.c: 708:    m++;
  5732     0647  3001               	movlw	1
  5733     0648  07AD               	addwf	efgtoa@m^(0+128),f
  5734     0649  3000               	movlw	0
  5735     064A  3DAE               	addwfc	(efgtoa@m+1)^(0+128),f
  5736     064B                     l775:	
  5737                           ;C:\Program Files\Microchip\xc8\v2.41\pic\sources\c99\common\doprnt.c: 711:  }
  5738                           
  5739                           
  5740                           ;C:\Program Files\Microchip\xc8\v2.41\pic\sources\c99\common\doprnt.c: 714:     u = ou;
  5741     064B  0141               	movlb	1	; select bank1
  5742     064C  0837               	movf	(efgtoa@ou+3)^(0+128),w
  5743     064D  00CC               	movwf	(efgtoa@u+3)^(0+128)
  5744     064E  0836               	movf	(efgtoa@ou+2)^(0+128),w
  5745     064F  00CB               	movwf	(efgtoa@u+2)^(0+128)
  5746     0650  0835               	movf	(efgtoa@ou+1)^(0+128),w
  5747     0651  00CA               	movwf	(efgtoa@u+1)^(0+128)
  5748     0652  0834               	movf	efgtoa@ou^(0+128),w
  5749     0653  00C9               	movwf	efgtoa@u^(0+128)
  5750                           
  5751                           ;C:\Program Files\Microchip\xc8\v2.41\pic\sources\c99\common\doprnt.c: 718:  ne = e;
  5752     0654  0831               	movf	(efgtoa@e+1)^(0+128),w
  5753     0655  00A1               	movwf	(efgtoa@ne+1)^(0+128)
  5754     0656  0830               	movf	efgtoa@e^(0+128),w
  5755     0657  00A0               	movwf	efgtoa@ne^(0+128)
  5756     0658                     l3095:
  5757                           
  5758                           ;C:\Program Files\Microchip\xc8\v2.41\pic\sources\c99\common\doprnt.c: 720:     pp = 0;
  5759     0658  01A8               	clrf	efgtoa@pp^(0+128)
  5760     0659                     l3097:
  5761                           
  5762                           ;C:\Program Files\Microchip\xc8\v2.41\pic\sources\c99\common\doprnt.c: 721:     t = 0;
  5763     0659  01A4               	clrf	efgtoa@t^(0+128)
  5764     065A  01A5               	clrf	(efgtoa@t+1)^(0+128)
  5765     065B                     l3099:
  5766                           
  5767                           ;C:\Program Files\Microchip\xc8\v2.41\pic\sources\c99\common\doprnt.c: 722:     i = 0;
  5768     065B  01B8               	clrf	efgtoa@i^(0+128)
  5769     065C  01B9               	clrf	(efgtoa@i+1)^(0+128)
  5770                           
  5771                           ;C:\Program Files\Microchip\xc8\v2.41\pic\sources\c99\common\doprnt.c: 723:     while ((
      +                          i < m) && (n < (80 - 5))) {
  5772     065D  2F74               	goto	l3143
  5773     065E                     l3101:
  5774                           
  5775                           ;C:\Program Files\Microchip\xc8\v2.41\pic\sources\c99\common\doprnt.c: 724:         l = 
      +                          floorf(h/u.f);
  5776     065E  0141               	movlb	1	; select bank1
  5777     065F  084C               	movf	(efgtoa@u+3)^(0+128),w
  5778     0660  00F3               	movwf	___fldiv@a+3
  5779     0661  084B               	movf	(efgtoa@u+2)^(0+128),w
  5780     0662  00F2               	movwf	___fldiv@a+2
  5781     0663  084A               	movf	(efgtoa@u+1)^(0+128),w
  5782     0664  00F1               	movwf	___fldiv@a+1
  5783     0665  0849               	movf	efgtoa@u^(0+128),w
  5784     0666  00F0               	movwf	___fldiv@a
  5785     0667  083D               	movf	(efgtoa@h+3)^(0+128),w
  5786     0668  00F7               	movwf	___fldiv@b+3
  5787     0669  083C               	movf	(efgtoa@h+2)^(0+128),w
  5788     066A  00F6               	movwf	___fldiv@b+2
  5789     066B  083B               	movf	(efgtoa@h+1)^(0+128),w
  5790     066C  00F5               	movwf	___fldiv@b+1
  5791     066D  083A               	movf	efgtoa@h^(0+128),w
  5792     066E  00F4               	movwf	___fldiv@b
  5793     066F  3180  2041  3181   	fcall	___fldiv
  5794     0672  0873               	movf	?___fldiv+3,w
  5795     0673  0140               	movlb	0	; select bank0
  5796     0674  00B0               	movwf	floorf@x+3
  5797     0675  0872               	movf	?___fldiv+2,w
  5798     0676  00AF               	movwf	floorf@x+2
  5799     0677  0871               	movf	?___fldiv+1,w
  5800     0678  00AE               	movwf	floorf@x+1
  5801     0679  0870               	movf	?___fldiv,w
  5802     067A  00AD               	movwf	floorf@x
  5803     067B  3188  2035  3181   	fcall	_floorf
  5804     067E  0140               	movlb	0	; select bank0
  5805     067F  0830               	movf	?_floorf+3,w
  5806     0680  0141               	movlb	1	; select bank1
  5807     0681  00C1               	movwf	(efgtoa@l+3)^(0+128)
  5808     0682  0140               	movlb	0	; select bank0
  5809     0683  082F               	movf	?_floorf+2,w
  5810     0684  0141               	movlb	1	; select bank1
  5811     0685  00C0               	movwf	(efgtoa@l+2)^(0+128)
  5812     0686  0140               	movlb	0	; select bank0
  5813     0687  082E               	movf	?_floorf+1,w
  5814     0688  0141               	movlb	1	; select bank1
  5815     0689  00BF               	movwf	(efgtoa@l+1)^(0+128)
  5816     068A  0140               	movlb	0	; select bank0
  5817     068B  082D               	movf	?_floorf,w
  5818     068C  0141               	movlb	1	; select bank1
  5819     068D  00BE               	movwf	efgtoa@l^(0+128)
  5820                           
  5821                           ;C:\Program Files\Microchip\xc8\v2.41\pic\sources\c99\common\doprnt.c: 725:         d = 
      +                          (int)l > 9 ? 9 : (int)l;
  5822     068E  0841               	movf	(efgtoa@l+3)^(0+128),w
  5823     068F  00F3               	movwf	___fltol@f1+3
  5824     0690  0840               	movf	(efgtoa@l+2)^(0+128),w
  5825     0691  00F2               	movwf	___fltol@f1+2
  5826     0692  083F               	movf	(efgtoa@l+1)^(0+128),w
  5827     0693  00F1               	movwf	___fltol@f1+1
  5828     0694  083E               	movf	efgtoa@l^(0+128),w
  5829     0695  00F0               	movwf	___fltol@f1
  5830     0696  3196  260B  3181   	fcall	___fltol
  5831     0699  0871               	movf	?___fltol+1,w
  5832     069A  3A80               	xorlw	128
  5833     069B  0140               	movlb	0	; select bank0
  5834     069C  00C6               	movwf	??_efgtoa
  5835     069D  3080               	movlw	128
  5836     069E  0246               	subwf	??_efgtoa,w
  5837     069F  1D03               	skipz
  5838     06A0  2EA3               	goto	u4095
  5839     06A1  300A               	movlw	10
  5840     06A2  0270               	subwf	?___fltol,w
  5841     06A3                     u4095:
  5842     06A3  1803               	skipnc
  5843     06A4  2EA6               	goto	u4091
  5844     06A5  2EA7               	goto	u4090
  5845     06A6                     u4091:
  5846     06A6  2EB9               	goto	l3105
  5847     06A7                     u4090:
  5848     06A7                     l3103:
  5849     06A7  0141               	movlb	1	; select bank1
  5850     06A8  0841               	movf	(efgtoa@l+3)^(0+128),w
  5851     06A9  00F3               	movwf	___fltol@f1+3
  5852     06AA  0840               	movf	(efgtoa@l+2)^(0+128),w
  5853     06AB  00F2               	movwf	___fltol@f1+2
  5854     06AC  083F               	movf	(efgtoa@l+1)^(0+128),w
  5855     06AD  00F1               	movwf	___fltol@f1+1
  5856     06AE  083E               	movf	efgtoa@l^(0+128),w
  5857     06AF  00F0               	movwf	___fltol@f1
  5858     06B0  3196  260B  3181   	fcall	___fltol
  5859     06B3  0871               	movf	?___fltol+1,w
  5860     06B4  0141               	movlb	1	; select bank1
  5861     06B5  00AC               	movwf	(efgtoa@d+1)^(0+128)
  5862     06B6  0870               	movf	?___fltol,w
  5863     06B7  00AB               	movwf	efgtoa@d^(0+128)
  5864     06B8  2EBE               	goto	l3107
  5865     06B9                     l3105:
  5866     06B9  3009               	movlw	9
  5867     06BA  0141               	movlb	1	; select bank1
  5868     06BB  00AB               	movwf	efgtoa@d^(0+128)
  5869     06BC  3000               	movlw	0
  5870     06BD  00AC               	movwf	(efgtoa@d^(0+128)+1)
  5871     06BE                     l3107:
  5872                           
  5873                           ;C:\Program Files\Microchip\xc8\v2.41\pic\sources\c99\common\doprnt.c: 736:   {;C:\Progr
      +                          am Files\Microchip\xc8\v2.41\pic\sources\c99\common\doprnt.c: 737:             if (!pp &
      +                          & (ne < 0)) {
  5874     06BE  0828               	movf	efgtoa@pp^(0+128),w
  5875     06BF  1D03               	btfss	3,2
  5876     06C0  2EC2               	goto	u4101
  5877     06C1  2EC3               	goto	u4100
  5878     06C2                     u4101:
  5879     06C2  2EEC               	goto	l3127
  5880     06C3                     u4100:
  5881     06C3                     l3109:
  5882     06C3  1FA1               	btfss	(efgtoa@ne+1)^(0+128),7
  5883     06C4  2EC6               	goto	u4111
  5884     06C5  2EC7               	goto	u4110
  5885     06C6                     u4111:
  5886     06C6  2EEC               	goto	l3127
  5887     06C7                     u4110:
  5888     06C7                     l3111:
  5889                           
  5890                           ;C:\Program Files\Microchip\xc8\v2.41\pic\sources\c99\common\doprnt.c: 738:             
      +                              dbuf[n++] = '.';
  5891     06C7  0843               	movf	efgtoa@n^(0+128),w
  5892     06C8  3E20               	addlw	(low (_dbuf| (0+256)))& (0+255)
  5893     06C9  0086               	movwf	6
  5894     06CA  3001               	movlw	1	; select bank2/3
  5895     06CB  0087               	movwf	7
  5896     06CC  302E               	movlw	46
  5897     06CD  0081               	movwf	1
  5898     06CE                     l3113:
  5899     06CE  3001               	movlw	1
  5900     06CF  07C3               	addwf	efgtoa@n^(0+128),f
  5901     06D0  3000               	movlw	0
  5902     06D1  3DC4               	addwfc	(efgtoa@n+1)^(0+128),f
  5903     06D2                     l3115:
  5904                           
  5905                           ;C:\Program Files\Microchip\xc8\v2.41\pic\sources\c99\common\doprnt.c: 739:             
      +                              --w;
  5906     06D2  30FF               	movlw	255
  5907     06D3  07B2               	addwf	efgtoa@w^(0+128),f
  5908     06D4  30FF               	movlw	255
  5909     06D5  3DB3               	addwfc	(efgtoa@w+1)^(0+128),f
  5910     06D6                     l3117:
  5911                           
  5912                           ;C:\Program Files\Microchip\xc8\v2.41\pic\sources\c99\common\doprnt.c: 740:             
      +                              pp = 1;
  5913     06D6  01A8               	clrf	efgtoa@pp^(0+128)
  5914     06D7  0AA8               	incf	efgtoa@pp^(0+128),f
  5915     06D8  2EEC               	goto	l3127
  5916     06D9                     l3119:
  5917                           
  5918                           ;C:\Program Files\Microchip\xc8\v2.41\pic\sources\c99\common\doprnt.c: 743:             
      +                              dbuf[n++] = '0';
  5919     06D9  0843               	movf	efgtoa@n^(0+128),w
  5920     06DA  3E20               	addlw	(low (_dbuf| (0+256)))& (0+255)
  5921     06DB  0086               	movwf	6
  5922     06DC  3001               	movlw	1	; select bank2/3
  5923     06DD  0087               	movwf	7
  5924     06DE  3030               	movlw	48
  5925     06DF  0081               	movwf	1
  5926     06E0                     l3121:
  5927     06E0  3001               	movlw	1
  5928     06E1  07C3               	addwf	efgtoa@n^(0+128),f
  5929     06E2  3000               	movlw	0
  5930     06E3  3DC4               	addwfc	(efgtoa@n+1)^(0+128),f
  5931     06E4                     l3123:
  5932                           
  5933                           ;C:\Program Files\Microchip\xc8\v2.41\pic\sources\c99\common\doprnt.c: 744:             
      +                              --w;
  5934     06E4  30FF               	movlw	255
  5935     06E5  07B2               	addwf	efgtoa@w^(0+128),f
  5936     06E6  30FF               	movlw	255
  5937     06E7  3DB3               	addwfc	(efgtoa@w+1)^(0+128),f
  5938     06E8                     l3125:
  5939                           
  5940                           ;C:\Program Files\Microchip\xc8\v2.41\pic\sources\c99\common\doprnt.c: 745:             
      +                              --t;
  5941     06E8  30FF               	movlw	255
  5942     06E9  07A4               	addwf	efgtoa@t^(0+128),f
  5943     06EA  30FF               	movlw	255
  5944     06EB  3DA5               	addwfc	(efgtoa@t+1)^(0+128),f
  5945     06EC                     l3127:
  5946                           
  5947                           ;C:\Program Files\Microchip\xc8\v2.41\pic\sources\c99\common\doprnt.c: 742:             
      +                          while (t) {
  5948     06EC  0824               	movf	efgtoa@t^(0+128),w
  5949     06ED  0425               	iorwf	(efgtoa@t+1)^(0+128),w
  5950     06EE  1D03               	btfss	3,2
  5951     06EF  2EF1               	goto	u4121
  5952     06F0  2EF2               	goto	u4120
  5953     06F1                     u4121:
  5954     06F1  2ED9               	goto	l3119
  5955     06F2                     u4120:
  5956     06F2                     l3129:
  5957                           
  5958                           ;C:\Program Files\Microchip\xc8\v2.41\pic\sources\c99\common\doprnt.c: 747:             
      +                          dbuf[n++] = (char)((int)'0' + d);
  5959     06F2  0843               	movf	efgtoa@n^(0+128),w
  5960     06F3  3E20               	addlw	(low (_dbuf| (0+256)))& (0+255)
  5961     06F4  0086               	movwf	6
  5962     06F5  3001               	movlw	1	; select bank2/3
  5963     06F6  0087               	movwf	7
  5964     06F7  082B               	movf	efgtoa@d^(0+128),w
  5965     06F8  3E30               	addlw	48
  5966     06F9  0081               	movwf	1
  5967     06FA                     l3131:
  5968     06FA  3001               	movlw	1
  5969     06FB  07C3               	addwf	efgtoa@n^(0+128),f
  5970     06FC  3000               	movlw	0
  5971     06FD  3DC4               	addwfc	(efgtoa@n+1)^(0+128),f
  5972     06FE                     l3133:
  5973                           
  5974                           ;C:\Program Files\Microchip\xc8\v2.41\pic\sources\c99\common\doprnt.c: 748:             
      +                          --w;
  5975     06FE  30FF               	movlw	255
  5976     06FF  07B2               	addwf	efgtoa@w^(0+128),f
  5977     0700  30FF               	movlw	255
  5978     0701  3DB3               	addwfc	(efgtoa@w+1)^(0+128),f
  5979     0702                     l3135:
  5980                           
  5981                           ;C:\Program Files\Microchip\xc8\v2.41\pic\sources\c99\common\doprnt.c: 749:         };C:
      +                          \Program Files\Microchip\xc8\v2.41\pic\sources\c99\common\doprnt.c: 750:         h -= l*
      +                          u.f;
  5982     0702  084C               	movf	(efgtoa@u+3)^(0+128),w
  5983     0703  0140               	movlb	0	; select bank0
  5984     0704  00A7               	movwf	___flmul@a+3
  5985     0705  0141               	movlb	1	; select bank1
  5986     0706  084B               	movf	(efgtoa@u+2)^(0+128),w
  5987     0707  0140               	movlb	0	; select bank0
  5988     0708  00A6               	movwf	___flmul@a+2
  5989     0709  0141               	movlb	1	; select bank1
  5990     070A  084A               	movf	(efgtoa@u+1)^(0+128),w
  5991     070B  0140               	movlb	0	; select bank0
  5992     070C  00A5               	movwf	___flmul@a+1
  5993     070D  0141               	movlb	1	; select bank1
  5994     070E  0849               	movf	efgtoa@u^(0+128),w
  5995     070F  0140               	movlb	0	; select bank0
  5996     0710  00A4               	movwf	___flmul@a
  5997     0711  0141               	movlb	1	; select bank1
  5998     0712  0841               	movf	(efgtoa@l+3)^(0+128),w
  5999     0713  0140               	movlb	0	; select bank0
  6000     0714  00A3               	movwf	___flmul@b+3
  6001     0715  0141               	movlb	1	; select bank1
  6002     0716  0840               	movf	(efgtoa@l+2)^(0+128),w
  6003     0717  0140               	movlb	0	; select bank0
  6004     0718  00A2               	movwf	___flmul@b+2
  6005     0719  0141               	movlb	1	; select bank1
  6006     071A  083F               	movf	(efgtoa@l+1)^(0+128),w
  6007     071B  0140               	movlb	0	; select bank0
  6008     071C  00A1               	movwf	___flmul@b+1
  6009     071D  0141               	movlb	1	; select bank1
  6010     071E  083E               	movf	efgtoa@l^(0+128),w
  6011     071F  0140               	movlb	0	; select bank0
  6012     0720  00A0               	movwf	___flmul@b
  6013     0721  318D  25C5  3181   	fcall	___flmul
  6014     0724  0140               	movlb	0	; select bank0
  6015     0725  0823               	movf	?___flmul+3,w
  6016     0726  00B8               	movwf	___flsub@a+3
  6017     0727  0822               	movf	?___flmul+2,w
  6018     0728  00B7               	movwf	___flsub@a+2
  6019     0729  0821               	movf	?___flmul+1,w
  6020     072A  00B6               	movwf	___flsub@a+1
  6021     072B  0820               	movf	?___flmul,w
  6022     072C  00B5               	movwf	___flsub@a
  6023     072D  0141               	movlb	1	; select bank1
  6024     072E  083D               	movf	(efgtoa@h+3)^(0+128),w
  6025     072F  0140               	movlb	0	; select bank0
  6026     0730  00BC               	movwf	___flsub@b+3
  6027     0731  0141               	movlb	1	; select bank1
  6028     0732  083C               	movf	(efgtoa@h+2)^(0+128),w
  6029     0733  0140               	movlb	0	; select bank0
  6030     0734  00BB               	movwf	___flsub@b+2
  6031     0735  0141               	movlb	1	; select bank1
  6032     0736  083B               	movf	(efgtoa@h+1)^(0+128),w
  6033     0737  0140               	movlb	0	; select bank0
  6034     0738  00BA               	movwf	___flsub@b+1
  6035     0739  0141               	movlb	1	; select bank1
  6036     073A  083A               	movf	efgtoa@h^(0+128),w
  6037     073B  0140               	movlb	0	; select bank0
  6038     073C  00B9               	movwf	___flsub@b
  6039     073D  3193  232F  3181   	fcall	___flsub
  6040     0740  0140               	movlb	0	; select bank0
  6041     0741  0838               	movf	?___flsub+3,w
  6042     0742  0141               	movlb	1	; select bank1
  6043     0743  00BD               	movwf	(efgtoa@h+3)^(0+128)
  6044     0744  0140               	movlb	0	; select bank0
  6045     0745  0837               	movf	?___flsub+2,w
  6046     0746  0141               	movlb	1	; select bank1
  6047     0747  00BC               	movwf	(efgtoa@h+2)^(0+128)
  6048     0748  0140               	movlb	0	; select bank0
  6049     0749  0836               	movf	?___flsub+1,w
  6050     074A  0141               	movlb	1	; select bank1
  6051     074B  00BB               	movwf	(efgtoa@h+1)^(0+128)
  6052     074C  0140               	movlb	0	; select bank0
  6053     074D  0835               	movf	?___flsub,w
  6054     074E  0141               	movlb	1	; select bank1
  6055     074F  00BA               	movwf	efgtoa@h^(0+128)
  6056     0750                     l3137:
  6057                           
  6058                           ;C:\Program Files\Microchip\xc8\v2.41\pic\sources\c99\common\doprnt.c: 751:         u.f 
      +                          = u.f/10.0;
  6059     0750  3041               	movlw	65
  6060     0751  00F3               	movwf	___fldiv@a+3
  6061     0752  3020               	movlw	32
  6062     0753  00F2               	movwf	___fldiv@a+2
  6063     0754  3000               	movlw	0
  6064     0755  00F1               	movwf	___fldiv@a+1
  6065     0756  3000               	movlw	0
  6066     0757  00F0               	movwf	___fldiv@a
  6067     0758  084C               	movf	(efgtoa@u+3)^(0+128),w
  6068     0759  00F7               	movwf	___fldiv@b+3
  6069     075A  084B               	movf	(efgtoa@u+2)^(0+128),w
  6070     075B  00F6               	movwf	___fldiv@b+2
  6071     075C  084A               	movf	(efgtoa@u+1)^(0+128),w
  6072     075D  00F5               	movwf	___fldiv@b+1
  6073     075E  0849               	movf	efgtoa@u^(0+128),w
  6074     075F  00F4               	movwf	___fldiv@b
  6075     0760  3180  2041  3181   	fcall	___fldiv
  6076     0763  0873               	movf	?___fldiv+3,w
  6077     0764  0141               	movlb	1	; select bank1
  6078     0765  00CC               	movwf	(efgtoa@u+3)^(0+128)
  6079     0766  0872               	movf	?___fldiv+2,w
  6080     0767  00CB               	movwf	(efgtoa@u+2)^(0+128)
  6081     0768  0871               	movf	?___fldiv+1,w
  6082     0769  00CA               	movwf	(efgtoa@u+1)^(0+128)
  6083     076A  0870               	movf	?___fldiv,w
  6084     076B  00C9               	movwf	efgtoa@u^(0+128)
  6085     076C                     l3139:
  6086                           
  6087                           ;C:\Program Files\Microchip\xc8\v2.41\pic\sources\c99\common\doprnt.c: 752:         --ne
      +                          ;
  6088     076C  30FF               	movlw	255
  6089     076D  07A0               	addwf	efgtoa@ne^(0+128),f
  6090     076E  30FF               	movlw	255
  6091     076F  3DA1               	addwfc	(efgtoa@ne+1)^(0+128),f
  6092     0770                     l3141:
  6093                           
  6094                           ;C:\Program Files\Microchip\xc8\v2.41\pic\sources\c99\common\doprnt.c: 753:         ++i;
  6095     0770  3001               	movlw	1
  6096     0771  07B8               	addwf	efgtoa@i^(0+128),f
  6097     0772  3000               	movlw	0
  6098     0773  3DB9               	addwfc	(efgtoa@i+1)^(0+128),f
  6099     0774                     l3143:
  6100                           
  6101                           ;C:\Program Files\Microchip\xc8\v2.41\pic\sources\c99\common\doprnt.c: 723:     while ((
      +                          i < m) && (n < (80 - 5))) {
  6102     0774  0839               	movf	(efgtoa@i+1)^(0+128),w
  6103     0775  3A80               	xorlw	128
  6104     0776  0140               	movlb	0	; select bank0
  6105     0777  00C6               	movwf	??_efgtoa
  6106     0778  0141               	movlb	1	; select bank1
  6107     0779  082E               	movf	(efgtoa@m+1)^(0+128),w
  6108     077A  3A80               	xorlw	128
  6109     077B  0140               	movlb	0	; select bank0
  6110     077C  0246               	subwf	??_efgtoa,w
  6111     077D  1D03               	skipz
  6112     077E  2F82               	goto	u4135
  6113     077F  0141               	movlb	1	; select bank1
  6114     0780  082D               	movf	efgtoa@m^(0+128),w
  6115     0781  0238               	subwf	efgtoa@i^(0+128),w
  6116     0782                     u4135:
  6117     0782  1803               	skipnc
  6118     0783  2F85               	goto	u4131
  6119     0784  2F86               	goto	u4130
  6120     0785                     u4131:
  6121     0785  2F96               	goto	l3147
  6122     0786                     u4130:
  6123     0786                     l3145:
  6124     0786  0141               	movlb	1	; select bank1
  6125     0787  0844               	movf	(efgtoa@n+1)^(0+128),w
  6126     0788  3A80               	xorlw	128
  6127     0789  0140               	movlb	0	; select bank0
  6128     078A  00C6               	movwf	??_efgtoa
  6129     078B  3080               	movlw	128
  6130     078C  0246               	subwf	??_efgtoa,w
  6131     078D  1D03               	skipz
  6132     078E  2F92               	goto	u4145
  6133     078F  304B               	movlw	75
  6134     0790  0141               	movlb	1	; select bank1
  6135     0791  0243               	subwf	efgtoa@n^(0+128),w
  6136     0792                     u4145:
  6137     0792  1C03               	skipc
  6138     0793  2F95               	goto	u4141
  6139     0794  2F96               	goto	u4140
  6140     0795                     u4141:
  6141     0795  2E5E               	goto	l3101
  6142     0796                     u4140:
  6143     0796                     l3147:
  6144                           
  6145                           ;C:\Program Files\Microchip\xc8\v2.41\pic\sources\c99\common\doprnt.c: 760:  i = sizeof(
      +                          dbuf) - 1;
  6146     0796  304F               	movlw	79
  6147     0797  0141               	movlb	1	; select bank1
  6148     0798  00B8               	movwf	efgtoa@i^(0+128)
  6149     0799  3000               	movlw	0
  6150     079A  00B9               	movwf	(efgtoa@i^(0+128)+1)
  6151     079B                     l3149:
  6152                           
  6153                           ;C:\Program Files\Microchip\xc8\v2.41\pic\sources\c99\common\doprnt.c: 761:     dbuf[i] 
      +                          = '\0';
  6154     079B  0838               	movf	efgtoa@i^(0+128),w
  6155     079C  3E20               	addlw	(low (_dbuf| (0+256)))& (0+255)
  6156     079D  0086               	movwf	6
  6157     079E  3001               	movlw	1	; select bank2/3
  6158     079F  0087               	movwf	7
  6159     07A0  0181               	clrf	1
  6160     07A1                     l3151:
  6161                           
  6162                           ;C:\Program Files\Microchip\xc8\v2.41\pic\sources\c99\common\doprnt.c: 792:  memcpy(&dbu
      +                          f[i-n], &dbuf[0], (size_t)n);
  6163     07A1  3020               	movlw	(low (_dbuf| (0+256)))& (0+255)
  6164     07A2  00F0               	movwf	memcpy@s1
  6165     07A3  0844               	movf	(efgtoa@n+1)^(0+128),w
  6166     07A4  00F2               	movwf	memcpy@n+1
  6167     07A5  0843               	movf	efgtoa@n^(0+128),w
  6168     07A6  00F1               	movwf	memcpy@n
  6169     07A7  3020               	movlw	(low (_dbuf| (0+256)))& (0+255)
  6170     07A8  0140               	movlb	0	; select bank0
  6171     07A9  00C6               	movwf	??_efgtoa
  6172     07AA  0141               	movlb	1	; select bank1
  6173     07AB  0843               	movf	efgtoa@n^(0+128),w
  6174     07AC  0140               	movlb	0	; select bank0
  6175     07AD  0246               	subwf	??_efgtoa,w
  6176     07AE  0141               	movlb	1	; select bank1
  6177     07AF  0738               	addwf	efgtoa@i^(0+128),w
  6178     07B0  3194  2400  3181   	fcall	_memcpy
  6179     07B3                     l3153:
  6180                           
  6181                           ;C:\Program Files\Microchip\xc8\v2.41\pic\sources\c99\common\doprnt.c: 793:  n = i-n;
  6182     07B3  0141               	movlb	1	; select bank1
  6183     07B4  0843               	movf	efgtoa@n^(0+128),w
  6184     07B5  0238               	subwf	efgtoa@i^(0+128),w
  6185     07B6  00C3               	movwf	efgtoa@n^(0+128)
  6186     07B7  0844               	movf	(efgtoa@n+1)^(0+128),w
  6187     07B8  3B39               	subwfb	(efgtoa@i+1)^(0+128),w
  6188     07B9  00C4               	movwf	(efgtoa@n+1)^(0+128)
  6189     07BA                     l3155:
  6190                           
  6191                           ;C:\Program Files\Microchip\xc8\v2.41\pic\sources\c99\common\doprnt.c: 794:  i = sign ==
      +                           0 ? 0 : 1;
  6192     07BA  0842               	movf	efgtoa@sign^(0+128),w
  6193     07BB  1D03               	btfss	3,2
  6194     07BC  2FBE               	goto	u4151
  6195     07BD  2FC0               	goto	u4150
  6196     07BE                     u4151:
  6197     07BE  3001               	movlw	1
  6198     07BF  2FC1               	goto	u4160
  6199     07C0                     u4150:
  6200     07C0  3000               	movlw	0
  6201     07C1                     u4160:
  6202     07C1  0140               	movlb	0	; select bank0
  6203     07C2  00C6               	movwf	??_efgtoa
  6204     07C3  01C7               	clrf	??_efgtoa+1
  6205     07C4  0846               	movf	??_efgtoa,w
  6206     07C5  0141               	movlb	1	; select bank1
  6207     07C6  00B8               	movwf	efgtoa@i^(0+128)
  6208     07C7  0140               	movlb	0	; select bank0
  6209     07C8  0847               	movf	??_efgtoa+1,w
  6210     07C9  0141               	movlb	1	; select bank1
  6211     07CA  00B9               	movwf	(efgtoa@i+1)^(0+128)
  6212     07CB                     l3157:
  6213                           
  6214                           ;C:\Program Files\Microchip\xc8\v2.41\pic\sources\c99\common\doprnt.c: 805:  if (sign) {
  6215     07CB  0842               	movf	efgtoa@sign^(0+128),w
  6216     07CC  1903               	btfsc	3,2
  6217     07CD  2FCF               	goto	u4171
  6218     07CE  2FD0               	goto	u4170
  6219     07CF                     u4171:
  6220     07CF  2FDB               	goto	l3161
  6221     07D0                     u4170:
  6222     07D0                     l3159:
  6223                           
  6224                           ;C:\Program Files\Microchip\xc8\v2.41\pic\sources\c99\common\doprnt.c: 806:   dbuf[--n] 
      +                          = sign;
  6225     07D0  30FF               	movlw	255
  6226     07D1  07C3               	addwf	efgtoa@n^(0+128),f
  6227     07D2  30FF               	movlw	255
  6228     07D3  3DC4               	addwfc	(efgtoa@n+1)^(0+128),f
  6229     07D4  0843               	movf	efgtoa@n^(0+128),w
  6230     07D5  3E20               	addlw	(low (_dbuf| (0+256)))& (0+255)
  6231     07D6  0086               	movwf	6
  6232     07D7  3001               	movlw	1	; select bank2/3
  6233     07D8  0087               	movwf	7
  6234     07D9  0842               	movf	efgtoa@sign^(0+128),w
  6235     07DA  0081               	movwf	1
  6236     07DB                     l3161:
  6237                           
  6238                           ;C:\Program Files\Microchip\xc8\v2.41\pic\sources\c99\common\doprnt.c: 808:  w -= i;
  6239     07DB  0838               	movf	efgtoa@i^(0+128),w
  6240     07DC  02B2               	subwf	efgtoa@w^(0+128),f
  6241     07DD  0839               	movf	(efgtoa@i+1)^(0+128),w
  6242     07DE  3BB3               	subwfb	(efgtoa@w+1)^(0+128),f
  6243     07DF                     l3163:
  6244                           
  6245                           ;C:\Program Files\Microchip\xc8\v2.41\pic\sources\c99\common\doprnt.c: 811:     return (
      +                          void) pad(fp, &dbuf[n], w);
  6246     07DF  0843               	movf	efgtoa@n^(0+128),w
  6247     07E0  3E20               	addlw	(low (_dbuf| (0+256)))& (0+255)
  6248     07E1  00FB               	movwf	pad@buf
  6249     07E2  0833               	movf	(efgtoa@w+1)^(0+128),w
  6250     07E3  00FD               	movwf	pad@p+1
  6251     07E4  0832               	movf	efgtoa@w^(0+128),w
  6252     07E5  00FC               	movwf	pad@p
  6253     07E6  082F               	movf	efgtoa@fp^(0+128),w
  6254     07E7  3194  247F  3181   	fcall	_pad
  6255     07EA                     l749:
  6256     07EA  0008               	return
  6257     07EB                     __end_of_efgtoa:
  6258                           
  6259                           	psect	text15
  6260     12F1                     __ptext15:	
  6261 ;; *************** function _strcpy *****************
  6262 ;; Defined at:
  6263 ;;		line 3 in file "C:\Program Files\Microchip\xc8\v2.41\pic\sources\c99\common\strcpy.c"
  6264 ;; Parameters:    Size  Location     Type
  6265 ;;  dest            1    wreg     PTR unsigned char 
  6266 ;;		 -> dbuf(80), 
  6267 ;;  src             2    0[COMMON] PTR const unsigned char 
  6268 ;;		 -> STR_7(4), STR_4(4), 
  6269 ;; Auto vars:     Size  Location     Type
  6270 ;;  dest            1    7[COMMON] PTR unsigned char 
  6271 ;;		 -> dbuf(80), 
  6272 ;;  s               2    4[COMMON] PTR const unsigned char 
  6273 ;;		 -> STR_7(4), STR_4(4), 
  6274 ;;  d               1    6[COMMON] PTR unsigned char 
  6275 ;;		 -> dbuf(80), 
  6276 ;; Return value:  Size  Location     Type
  6277 ;;                  1    wreg      PTR unsigned char 
  6278 ;; Registers used:
  6279 ;;		wreg, fsr0l, fsr0h, fsr1l, fsr1h, status,2, status,0, pclath
  6280 ;; Tracked objects:
  6281 ;;		On entry : 0/0
  6282 ;;		On exit  : 0/0
  6283 ;;		Unchanged: 0/0
  6284 ;; Data sizes:     COMMON   BANK0   BANK1   BANK2   BANK3   BANK4   BANK5   BANK6   BANK7   BANK8   BANK9  BANK10  BANK1
      +1  BANK12  BANK13  BANK14  BANK15  BANK16  BANK17  BANK18  BANK19  BANK20  BANK21  BANK22  BANK23  BANK24  BANK25  BANK2
      +6  BANK27  BANK28  BANK29  BANK30  BANK31  BANK32  BANK33  BANK34  BANK35  BANK36  BANK37  BANK38  BANK39  BANK40  BANK4
      +1  BANK42  BANK43  BANK44  BANK45  BANK46  BANK47  BANK48  BANK49  BANK50
  6285 ;;      Params:         2       0       0       0       0       0       0       0       0       0       0       0       
      +0       0       0       0       0       0       0       0       0       0       0       0       0       0       0       
      +0       0       0       0       0       0       0       0       0       0       0       0       0       0       0       
      +0       0       0       0       0       0       0       0       0       0
  6286 ;;      Locals:         4       0       0       0       0       0       0       0       0       0       0       0       
      +0       0       0       0       0       0       0       0       0       0       0       0       0       0       0       
      +0       0       0       0       0       0       0       0       0       0       0       0       0       0       0       
      +0       0       0       0       0       0       0       0       0       0
  6287 ;;      Temps:          2       0       0       0       0       0       0       0       0       0       0       0       
      +0       0       0       0       0       0       0       0       0       0       0       0       0       0       0       
      +0       0       0       0       0       0       0       0       0       0       0       0       0       0       0       
      +0       0       0       0       0       0       0       0       0       0
  6288 ;;      Totals:         8       0       0       0       0       0       0       0       0       0       0       0       
      +0       0       0       0       0       0       0       0       0       0       0       0       0       0       0       
      +0       0       0       0       0       0       0       0       0       0       0       0       0       0       0       
      +0       0       0       0       0       0       0       0       0       0
  6289 ;;Total ram usage:        8 bytes
  6290 ;; Hardware stack levels used: 1
  6291 ;; This function calls:
  6292 ;;		Nothing
  6293 ;; This function is called by:
  6294 ;;		_efgtoa
  6295 ;; This function uses a non-reentrant model
  6296 ;;
  6297                           
  6298     12F1                     _strcpy:	
  6299                           ;psect for function _strcpy
  6300                           
  6301                           
  6302                           ;incstack = 0
  6303                           ; Regs used in _strcpy: [wreg-fsr1h+status,2+status,0+pclath]
  6304                           ;strcpy@dest stored from wreg
  6305     12F1  00F7               	movwf	strcpy@dest
  6306     12F2                     l2919:
  6307     12F2  0871               	movf	strcpy@src+1,w
  6308     12F3  00F5               	movwf	strcpy@s+1
  6309     12F4  0870               	movf	strcpy@src,w
  6310     12F5  00F4               	movwf	strcpy@s
  6311     12F6  0877               	movf	strcpy@dest,w
  6312     12F7  00F6               	movwf	strcpy@d
  6313     12F8                     l2921:
  6314     12F8  0876               	movf	strcpy@d,w
  6315     12F9  0086               	movwf	6
  6316     12FA  3001               	movlw	1	; select bank2/3
  6317     12FB  0087               	movwf	7
  6318     12FC  0AF6               	incf	strcpy@d,f
  6319     12FD  0875               	movf	strcpy@s+1,w
  6320     12FE  00F3               	movwf	??_strcpy+1
  6321     12FF  0874               	movf	strcpy@s,w
  6322     1300  00F2               	movwf	??_strcpy
  6323     1301  0AF4               	incf	strcpy@s,f
  6324     1302  1903               	skipnz
  6325     1303  0AF5               	incf	strcpy@s+1,f
  6326     1304  0872               	movf	??_strcpy,w
  6327     1305  0084               	movwf	4
  6328     1306  0873               	movf	??_strcpy+1,w
  6329     1307  0085               	movwf	5
  6330     1308  0800               	movf	0,w	;code access
  6331     1309  3FC0               	movwi [0]fsr1
  6332     130A  0889               	movf	9,f
  6333     130B  1D03               	btfss	3,2
  6334     130C  2B0E               	goto	u3721
  6335     130D  2B0F               	goto	u3720
  6336     130E                     u3721:
  6337     130E  2AF8               	goto	l2921
  6338     130F                     u3720:
  6339     130F                     l911:
  6340     130F  0008               	return
  6341     1310                     __end_of_strcpy:
  6342                           
  6343                           	psect	text16
  6344     147F                     __ptext16:	
  6345 ;; *************** function _pad *****************
  6346 ;; Defined at:
  6347 ;;		line 152 in file "C:\Program Files\Microchip\xc8\v2.41\pic\sources\c99\common\doprnt.c"
  6348 ;; Parameters:    Size  Location     Type
  6349 ;;  fp              1    wreg     PTR struct _IO_FILE
  6350 ;;		 -> sprintf@f(11), 
  6351 ;;  buf             1   11[COMMON] PTR unsigned char 
  6352 ;;		 -> dbuf(80), 
  6353 ;;  p               2   12[COMMON] int 
  6354 ;; Auto vars:     Size  Location     Type
  6355 ;;  fp              1    9[BANK0 ] PTR struct _IO_FILE
  6356 ;;		 -> sprintf@f(11), 
  6357 ;;  w               2    7[BANK0 ] int 
  6358 ;;  i               2    5[BANK0 ] int 
  6359 ;; Return value:  Size  Location     Type
  6360 ;;                  1    wreg      void 
  6361 ;; Registers used:
  6362 ;;		wreg, fsr0l, fsr0h, fsr1l, fsr1h, status,2, status,0, pclath, cstack
  6363 ;; Tracked objects:
  6364 ;;		On entry : 0/0
  6365 ;;		On exit  : 0/0
  6366 ;;		Unchanged: 0/0
  6367 ;; Data sizes:     COMMON   BANK0   BANK1   BANK2   BANK3   BANK4   BANK5   BANK6   BANK7   BANK8   BANK9  BANK10  BANK1
      +1  BANK12  BANK13  BANK14  BANK15  BANK16  BANK17  BANK18  BANK19  BANK20  BANK21  BANK22  BANK23  BANK24  BANK25  BANK2
      +6  BANK27  BANK28  BANK29  BANK30  BANK31  BANK32  BANK33  BANK34  BANK35  BANK36  BANK37  BANK38  BANK39  BANK40  BANK4
      +1  BANK42  BANK43  BANK44  BANK45  BANK46  BANK47  BANK48  BANK49  BANK50
  6368 ;;      Params:         3       0       0       0       0       0       0       0       0       0       0       0       
      +0       0       0       0       0       0       0       0       0       0       0       0       0       0       0       
      +0       0       0       0       0       0       0       0       0       0       0       0       0       0       0       
      +0       0       0       0       0       0       0       0       0       0
  6369 ;;      Locals:         0       5       0       0       0       0       0       0       0       0       0       0       
      +0       0       0       0       0       0       0       0       0       0       0       0       0       0       0       
      +0       0       0       0       0       0       0       0       0       0       0       0       0       0       0       
      +0       0       0       0       0       0       0       0       0       0
  6370 ;;      Temps:          0       1       0       0       0       0       0       0       0       0       0       0       
      +0       0       0       0       0       0       0       0       0       0       0       0       0       0       0       
      +0       0       0       0       0       0       0       0       0       0       0       0       0       0       0       
      +0       0       0       0       0       0       0       0       0       0
  6371 ;;      Totals:         3       6       0       0       0       0       0       0       0       0       0       0       
      +0       0       0       0       0       0       0       0       0       0       0       0       0       0       0       
      +0       0       0       0       0       0       0       0       0       0       0       0       0       0       0       
      +0       0       0       0       0       0       0       0       0       0
  6372 ;;Total ram usage:        9 bytes
  6373 ;; Hardware stack levels used: 1
  6374 ;; Hardware stack levels required when called: 3
  6375 ;; This function calls:
  6376 ;;		_fputc
  6377 ;;		_fputs
  6378 ;; This function is called by:
  6379 ;;		_efgtoa
  6380 ;;		_utoa
  6381 ;; This function uses a non-reentrant model
  6382 ;;
  6383                           
  6384     147F                     _pad:	
  6385                           ;psect for function _pad
  6386                           
  6387                           
  6388                           ;incstack = 0
  6389                           ; Regs used in _pad: [wreg-fsr1h+status,2+status,0+pclath+cstack]
  6390                           ;pad@fp stored from wreg
  6391     147F  0140               	movlb	0	; select bank0
  6392     1480  00A9               	movwf	pad@fp
  6393     1481                     l2877:
  6394                           
  6395                           ;C:\Program Files\Microchip\xc8\v2.41\pic\sources\c99\common\doprnt.c: 152: static void 
      +                          pad(FILE *fp, char *buf, int p);C:\Program Files\Microchip\xc8\v2.41\pic\sources\c99\com
      +                          mon\doprnt.c: 153: {;C:\Program Files\Microchip\xc8\v2.41\pic\sources\c99\common\doprnt.
      +                          c: 154:     int i, w;;C:\Program Files\Microchip\xc8\v2.41\pic\sources\c99\common\doprnt
      +                          .c: 158:     if (flags & (1 << 0)) {
  6396     1481  1C6F               	btfss	_flags,0
  6397     1482  2C84               	goto	u3601
  6398     1483  2C85               	goto	u3600
  6399     1484                     u3601:
  6400     1484  2C8B               	goto	l2881
  6401     1485                     u3600:
  6402     1485                     l2879:
  6403                           
  6404                           ;C:\Program Files\Microchip\xc8\v2.41\pic\sources\c99\common\doprnt.c: 159:         fput
      +                          s((const char *)buf, fp);
  6405     1485  0829               	movf	pad@fp,w
  6406     1486  00F8               	movwf	fputs@fp
  6407     1487  087B               	movf	pad@buf,w
  6408     1488  3193  23DB  3194   	fcall	_fputs
  6409     148B                     l2881:
  6410                           
  6411                           ;C:\Program Files\Microchip\xc8\v2.41\pic\sources\c99\common\doprnt.c: 164:     w = (p <
      +                           0) ? 0 : p;
  6412     148B  1BFD               	btfsc	pad@p+1,7
  6413     148C  2C8E               	goto	u3611
  6414     148D  2C8F               	goto	u3610
  6415     148E                     u3611:
  6416     148E  2C95               	goto	l2885
  6417     148F                     u3610:
  6418     148F                     l2883:
  6419     148F  087D               	movf	pad@p+1,w
  6420     1490  0140               	movlb	0	; select bank0
  6421     1491  00A8               	movwf	pad@w+1
  6422     1492  087C               	movf	pad@p,w
  6423     1493  00A7               	movwf	pad@w
  6424     1494  2C98               	goto	l733
  6425     1495                     l2885:
  6426     1495  0140               	movlb	0	; select bank0
  6427     1496  01A7               	clrf	pad@w
  6428     1497  01A8               	clrf	pad@w+1
  6429     1498                     l733:
  6430                           
  6431                           ;C:\Program Files\Microchip\xc8\v2.41\pic\sources\c99\common\doprnt.c: 165:     i = 0;
  6432     1498  01A5               	clrf	pad@i
  6433     1499  01A6               	clrf	pad@i+1
  6434                           
  6435                           ;C:\Program Files\Microchip\xc8\v2.41\pic\sources\c99\common\doprnt.c: 166:     while (i
      +                           < w) {
  6436     149A  2CAA               	goto	l2891
  6437     149B                     l2887:
  6438                           
  6439                           ;C:\Program Files\Microchip\xc8\v2.41\pic\sources\c99\common\doprnt.c: 167:         fput
      +                          c(' ', fp);
  6440     149B  3020               	movlw	32
  6441     149C  00F0               	movwf	fputc@c
  6442     149D  3000               	movlw	0
  6443     149E  00F1               	movwf	fputc@c+1
  6444     149F  0140               	movlb	0	; select bank0
  6445     14A0  0829               	movf	pad@fp,w
  6446     14A1  00F2               	movwf	fputc@fp
  6447     14A2  3195  255B  3194   	fcall	_fputc
  6448     14A5                     l2889:
  6449                           
  6450                           ;C:\Program Files\Microchip\xc8\v2.41\pic\sources\c99\common\doprnt.c: 168:         ++i;
  6451     14A5  3001               	movlw	1
  6452     14A6  0140               	movlb	0	; select bank0
  6453     14A7  07A5               	addwf	pad@i,f
  6454     14A8  3000               	movlw	0
  6455     14A9  3DA6               	addwfc	pad@i+1,f
  6456     14AA                     l2891:
  6457                           
  6458                           ;C:\Program Files\Microchip\xc8\v2.41\pic\sources\c99\common\doprnt.c: 166:     while (i
      +                           < w) {
  6459     14AA  0826               	movf	pad@i+1,w
  6460     14AB  3A80               	xorlw	128
  6461     14AC  00A4               	movwf	??_pad
  6462     14AD  0828               	movf	pad@w+1,w
  6463     14AE  3A80               	xorlw	128
  6464     14AF  0224               	subwf	??_pad,w
  6465     14B0  1D03               	skipz
  6466     14B1  2CB4               	goto	u3625
  6467     14B2  0827               	movf	pad@w,w
  6468     14B3  0225               	subwf	pad@i,w
  6469     14B4                     u3625:
  6470     14B4  1C03               	skipc
  6471     14B5  2CB7               	goto	u3621
  6472     14B6  2CB8               	goto	u3620
  6473     14B7                     u3621:
  6474     14B7  2C9B               	goto	l2887
  6475     14B8                     u3620:
  6476     14B8                     l736:
  6477                           
  6478                           ;C:\Program Files\Microchip\xc8\v2.41\pic\sources\c99\common\doprnt.c: 173:     if (!(fl
      +                          ags & (1 << 0))) {
  6479     14B8  0140               	movlb	0	; select bank0
  6480     14B9  186F               	btfsc	_flags,0
  6481     14BA  2CBC               	goto	u3631
  6482     14BB  2CBD               	goto	u3630
  6483     14BC                     u3631:
  6484     14BC  2CC3               	goto	l738
  6485     14BD                     u3630:
  6486     14BD                     l2893:
  6487                           
  6488                           ;C:\Program Files\Microchip\xc8\v2.41\pic\sources\c99\common\doprnt.c: 175:         fput
      +                          s((const char *)buf, fp);
  6489     14BD  0829               	movf	pad@fp,w
  6490     14BE  00F8               	movwf	fputs@fp
  6491     14BF  087B               	movf	pad@buf,w
  6492     14C0  3193  23DB  3194   	fcall	_fputs
  6493     14C3                     l738:
  6494     14C3  0008               	return
  6495     14C4                     __end_of_pad:
  6496                           
  6497                           	psect	text17
  6498     13DB                     __ptext17:	
  6499 ;; *************** function _fputs *****************
  6500 ;; Defined at:
  6501 ;;		line 8 in file "C:\Program Files\Microchip\xc8\v2.41\pic\sources\c99\common\nf_fputs.c"
  6502 ;; Parameters:    Size  Location     Type
  6503 ;;  s               1    wreg     PTR const unsigned char 
  6504 ;;		 -> dbuf(80), 
  6505 ;;  fp              1    8[COMMON] PTR struct _IO_FILE
  6506 ;;		 -> sprintf@f(11), 
  6507 ;; Auto vars:     Size  Location     Type
  6508 ;;  s               1    3[BANK0 ] PTR const unsigned char 
  6509 ;;		 -> dbuf(80), 
  6510 ;;  i               2    1[BANK0 ] int 
  6511 ;;  c               1    0[BANK0 ] unsigned char 
  6512 ;; Return value:  Size  Location     Type
  6513 ;;                  2    8[COMMON] int 
  6514 ;; Registers used:
  6515 ;;		wreg, fsr0l, fsr0h, fsr1l, fsr1h, status,2, status,0, pclath, cstack
  6516 ;; Tracked objects:
  6517 ;;		On entry : 0/0
  6518 ;;		On exit  : 0/0
  6519 ;;		Unchanged: 0/0
  6520 ;; Data sizes:     COMMON   BANK0   BANK1   BANK2   BANK3   BANK4   BANK5   BANK6   BANK7   BANK8   BANK9  BANK10  BANK1
      +1  BANK12  BANK13  BANK14  BANK15  BANK16  BANK17  BANK18  BANK19  BANK20  BANK21  BANK22  BANK23  BANK24  BANK25  BANK2
      +6  BANK27  BANK28  BANK29  BANK30  BANK31  BANK32  BANK33  BANK34  BANK35  BANK36  BANK37  BANK38  BANK39  BANK40  BANK4
      +1  BANK42  BANK43  BANK44  BANK45  BANK46  BANK47  BANK48  BANK49  BANK50
  6521 ;;      Params:         1       0       0       0       0       0       0       0       0       0       0       0       
      +0       0       0       0       0       0       0       0       0       0       0       0       0       0       0       
      +0       0       0       0       0       0       0       0       0       0       0       0       0       0       0       
      +0       0       0       0       0       0       0       0       0       0
  6522 ;;      Locals:         0       4       0       0       0       0       0       0       0       0       0       0       
      +0       0       0       0       0       0       0       0       0       0       0       0       0       0       0       
      +0       0       0       0       0       0       0       0       0       0       0       0       0       0       0       
      +0       0       0       0       0       0       0       0       0       0
  6523 ;;      Temps:          2       0       0       0       0       0       0       0       0       0       0       0       
      +0       0       0       0       0       0       0       0       0       0       0       0       0       0       0       
      +0       0       0       0       0       0       0       0       0       0       0       0       0       0       0       
      +0       0       0       0       0       0       0       0       0       0
  6524 ;;      Totals:         3       4       0       0       0       0       0       0       0       0       0       0       
      +0       0       0       0       0       0       0       0       0       0       0       0       0       0       0       
      +0       0       0       0       0       0       0       0       0       0       0       0       0       0       0       
      +0       0       0       0       0       0       0       0       0       0
  6525 ;;Total ram usage:        7 bytes
  6526 ;; Hardware stack levels used: 1
  6527 ;; Hardware stack levels required when called: 2
  6528 ;; This function calls:
  6529 ;;		_fputc
  6530 ;; This function is called by:
  6531 ;;		_pad
  6532 ;; This function uses a non-reentrant model
  6533 ;;
  6534                           
  6535     13DB                     _fputs:	
  6536                           ;psect for function _fputs
  6537                           
  6538                           
  6539                           ;incstack = 0
  6540                           ; Regs used in _fputs: [wreg-fsr1h+status,2+status,0+pclath+cstack]
  6541                           ;fputs@s stored from wreg
  6542     13DB  0140               	movlb	0	; select bank0
  6543     13DC  00A3               	movwf	fputs@s
  6544     13DD                     l2445:
  6545     13DD  01A1               	clrf	fputs@i
  6546     13DE  01A2               	clrf	fputs@i+1
  6547     13DF  2BF1               	goto	l2451
  6548     13E0                     l2447:
  6549     13E0  0820               	movf	fputs@c,w
  6550     13E1  00F9               	movwf	??_fputs
  6551     13E2  01FA               	clrf	??_fputs+1
  6552     13E3  0879               	movf	??_fputs,w
  6553     13E4  00F0               	movwf	fputc@c
  6554     13E5  087A               	movf	??_fputs+1,w
  6555     13E6  00F1               	movwf	fputc@c+1
  6556     13E7  0878               	movf	fputs@fp,w
  6557     13E8  00F2               	movwf	fputc@fp
  6558     13E9  3195  255B  3193   	fcall	_fputc
  6559     13EC                     l2449:
  6560     13EC  3001               	movlw	1
  6561     13ED  0140               	movlb	0	; select bank0
  6562     13EE  07A1               	addwf	fputs@i,f
  6563     13EF  3000               	movlw	0
  6564     13F0  3DA2               	addwfc	fputs@i+1,f
  6565     13F1                     l2451:
  6566     13F1  0821               	movf	fputs@i,w
  6567     13F2  0723               	addwf	fputs@s,w
  6568     13F3  00F9               	movwf	??_fputs
  6569     13F4  0879               	movf	??_fputs,w
  6570     13F5  0086               	movwf	6
  6571     13F6  3001               	movlw	1	; select bank2/3
  6572     13F7  0087               	movwf	7
  6573     13F8  0801               	movf	1,w
  6574     13F9  00A0               	movwf	fputs@c
  6575     13FA  0820               	movf	fputs@c,w
  6576     13FB  1D03               	btfss	3,2
  6577     13FC  2BFE               	goto	u2681
  6578     13FD  2BFF               	goto	u2680
  6579     13FE                     u2681:
  6580     13FE  2BE0               	goto	l2447
  6581     13FF                     u2680:
  6582     13FF                     l902:
  6583     13FF  0008               	return
  6584     1400                     __end_of_fputs:
  6585                           
  6586                           	psect	text18
  6587     155B                     __ptext18:	
  6588 ;; *************** function _fputc *****************
  6589 ;; Defined at:
  6590 ;;		line 8 in file "C:\Program Files\Microchip\xc8\v2.41\pic\sources\c99\common\nf_fputc.c"
  6591 ;; Parameters:    Size  Location     Type
  6592 ;;  c               2    0[COMMON] int 
  6593 ;;  fp              1    2[COMMON] PTR struct _IO_FILE
  6594 ;;		 -> sprintf@f(11), 
  6595 ;; Auto vars:     Size  Location     Type
  6596 ;;		None
  6597 ;; Return value:  Size  Location     Type
  6598 ;;                  2    0[COMMON] int 
  6599 ;; Registers used:
  6600 ;;		wreg, fsr0l, fsr0h, fsr1l, fsr1h, status,2, status,0, pclath, cstack
  6601 ;; Tracked objects:
  6602 ;;		On entry : 0/0
  6603 ;;		On exit  : 0/0
  6604 ;;		Unchanged: 0/0
  6605 ;; Data sizes:     COMMON   BANK0   BANK1   BANK2   BANK3   BANK4   BANK5   BANK6   BANK7   BANK8   BANK9  BANK10  BANK1
      +1  BANK12  BANK13  BANK14  BANK15  BANK16  BANK17  BANK18  BANK19  BANK20  BANK21  BANK22  BANK23  BANK24  BANK25  BANK2
      +6  BANK27  BANK28  BANK29  BANK30  BANK31  BANK32  BANK33  BANK34  BANK35  BANK36  BANK37  BANK38  BANK39  BANK40  BANK4
      +1  BANK42  BANK43  BANK44  BANK45  BANK46  BANK47  BANK48  BANK49  BANK50
  6606 ;;      Params:         3       0       0       0       0       0       0       0       0       0       0       0       
      +0       0       0       0       0       0       0       0       0       0       0       0       0       0       0       
      +0       0       0       0       0       0       0       0       0       0       0       0       0       0       0       
      +0       0       0       0       0       0       0       0       0       0
  6607 ;;      Locals:         0       0       0       0       0       0       0       0       0       0       0       0       
      +0       0       0       0       0       0       0       0       0       0       0       0       0       0       0       
      +0       0       0       0       0       0       0       0       0       0       0       0       0       0       0       
      +0       0       0       0       0       0       0       0       0       0
  6608 ;;      Temps:          5       0       0       0       0       0       0       0       0       0       0       0       
      +0       0       0       0       0       0       0       0       0       0       0       0       0       0       0       
      +0       0       0       0       0       0       0       0       0       0       0       0       0       0       0       
      +0       0       0       0       0       0       0       0       0       0
  6609 ;;      Totals:         8       0       0       0       0       0       0       0       0       0       0       0       
      +0       0       0       0       0       0       0       0       0       0       0       0       0       0       0       
      +0       0       0       0       0       0       0       0       0       0       0       0       0       0       0       
      +0       0       0       0       0       0       0       0       0       0
  6610 ;;Total ram usage:        8 bytes
  6611 ;; Hardware stack levels used: 1
  6612 ;; Hardware stack levels required when called: 1
  6613 ;; This function calls:
  6614 ;;		_putch
  6615 ;; This function is called by:
  6616 ;;		_pad
  6617 ;;		_vfpfcnvrt
  6618 ;;		_fputs
  6619 ;; This function uses a non-reentrant model
  6620 ;;
  6621                           
  6622     155B                     _fputc:	
  6623                           ;psect for function _fputc
  6624                           
  6625     155B                     l2221:	
  6626                           ;incstack = 0
  6627                           ; Regs used in _fputc: [wreg-fsr1h+status,2+status,0+pclath+cstack]
  6628                           
  6629     155B  0872               	movf	fputc@fp,w
  6630     155C  1903               	btfsc	3,2
  6631     155D  2D5F               	goto	u2181
  6632     155E  2D60               	goto	u2180
  6633     155F                     u2181:
  6634     155F  2D65               	goto	l2225
  6635     1560                     u2180:
  6636     1560                     l2223:
  6637     1560  0872               	movf	fputc@fp,w
  6638     1561  1D03               	btfss	3,2
  6639     1562  2D64               	goto	u2191
  6640     1563  2D65               	goto	u2190
  6641     1564                     u2191:
  6642     1564  2D6A               	goto	l2227
  6643     1565                     u2190:
  6644     1565                     l2225:
  6645     1565  0870               	movf	fputc@c,w
  6646     1566  3180  2004  3195   	fcall	_putch
  6647     1569  2DAA               	goto	l894
  6648     156A                     l2227:
  6649     156A  0872               	movf	fputc@fp,w
  6650     156B  3E09               	addlw	9
  6651     156C  0086               	movwf	6
  6652     156D  0187               	clrf	7
  6653     156E  0016               	moviw fsr1++
  6654     156F  0401               	iorwf	1,w
  6655     1570  1903               	btfsc	3,2
  6656     1571  2D73               	goto	u2201
  6657     1572  2D74               	goto	u2200
  6658     1573                     u2201:
  6659     1573  2D92               	goto	l2231
  6660     1574                     u2200:
  6661     1574                     l2229:
  6662     1574  0872               	movf	fputc@fp,w
  6663     1575  3E09               	addlw	9
  6664     1576  0086               	movwf	6
  6665     1577  0187               	clrf	7
  6666     1578  3F40               	moviw [0]fsr1
  6667     1579  00F3               	movwf	??_fputc
  6668     157A  3F41               	moviw [1]fsr1
  6669     157B  00F4               	movwf	??_fputc+1
  6670     157C  0872               	movf	fputc@fp,w
  6671     157D  3E02               	addlw	2
  6672     157E  0086               	movwf	6
  6673     157F  0187               	clrf	7
  6674     1580  3F40               	moviw [0]fsr1
  6675     1581  00F5               	movwf	??_fputc+2
  6676     1582  3F41               	moviw [1]fsr1
  6677     1583  00F6               	movwf	??_fputc+3
  6678     1584  0876               	movf	??_fputc+3,w
  6679     1585  3A80               	xorlw	128
  6680     1586  00F7               	movwf	??_fputc+4
  6681     1587  0874               	movf	??_fputc+1,w
  6682     1588  3A80               	xorlw	128
  6683     1589  0277               	subwf	??_fputc+4,w
  6684     158A  1D03               	skipz
  6685     158B  2D8E               	goto	u2215
  6686     158C  0873               	movf	??_fputc,w
  6687     158D  0275               	subwf	??_fputc+2,w
  6688     158E                     u2215:
  6689     158E  1803               	skipnc
  6690     158F  2D91               	goto	u2211
  6691     1590  2D92               	goto	u2210
  6692     1591                     u2211:
  6693     1591  2DAA               	goto	l894
  6694     1592                     u2210:
  6695     1592                     l2231:
  6696     1592  0872               	movf	fputc@fp,w
  6697     1593  0086               	movwf	6
  6698     1594  0187               	clrf	7
  6699     1595  0872               	movf	fputc@fp,w
  6700     1596  3E02               	addlw	2
  6701     1597  0084               	movwf	4
  6702     1598  0185               	clrf	5
  6703     1599  0800               	movf	0,w
  6704     159A  0701               	addwf	1,w
  6705     159B  00F3               	movwf	??_fputc
  6706     159C  0873               	movf	??_fputc,w
  6707     159D  0086               	movwf	6
  6708     159E  0187               	clrf	7
  6709     159F  0870               	movf	fputc@c,w
  6710     15A0  0081               	movwf	1
  6711     15A1                     l2233:
  6712     15A1  0872               	movf	fputc@fp,w
  6713     15A2  3E02               	addlw	2
  6714     15A3  0086               	movwf	6
  6715     15A4  0187               	clrf	7
  6716     15A5  3001               	movlw	1
  6717     15A6  0781               	addwf	1,f
  6718     15A7  3141               	addfsr 1,1
  6719     15A8  1803               	skipnc
  6720     15A9  0A81               	incf	1,f
  6721     15AA                     l894:
  6722     15AA  0008               	return
  6723     15AB                     __end_of_fputc:
  6724                           
  6725                           	psect	text19
  6726     0004                     __ptext19:	
  6727 ;; *************** function _putch *****************
  6728 ;; Defined at:
  6729 ;;		line 7 in file "C:\Program Files\Microchip\xc8\v2.41\pic\sources\c99\common\putch.c"
  6730 ;; Parameters:    Size  Location     Type
  6731 ;;  c               1    wreg     unsigned char 
  6732 ;; Auto vars:     Size  Location     Type
  6733 ;;  c               1    0[COMMON] unsigned char 
  6734 ;; Return value:  Size  Location     Type
  6735 ;;                  1    wreg      void 
  6736 ;; Registers used:
  6737 ;;		wreg
  6738 ;; Tracked objects:
  6739 ;;		On entry : 0/0
  6740 ;;		On exit  : 0/0
  6741 ;;		Unchanged: 0/0
  6742 ;; Data sizes:     COMMON   BANK0   BANK1   BANK2   BANK3   BANK4   BANK5   BANK6   BANK7   BANK8   BANK9  BANK10  BANK1
      +1  BANK12  BANK13  BANK14  BANK15  BANK16  BANK17  BANK18  BANK19  BANK20  BANK21  BANK22  BANK23  BANK24  BANK25  BANK2
      +6  BANK27  BANK28  BANK29  BANK30  BANK31  BANK32  BANK33  BANK34  BANK35  BANK36  BANK37  BANK38  BANK39  BANK40  BANK4
      +1  BANK42  BANK43  BANK44  BANK45  BANK46  BANK47  BANK48  BANK49  BANK50
  6743 ;;      Params:         0       0       0       0       0       0       0       0       0       0       0       0       
      +0       0       0       0       0       0       0       0       0       0       0       0       0       0       0       
      +0       0       0       0       0       0       0       0       0       0       0       0       0       0       0       
      +0       0       0       0       0       0       0       0       0       0
  6744 ;;      Locals:         0       0       0       0       0       0       0       0       0       0       0       0       
      +0       0       0       0       0       0       0       0       0       0       0       0       0       0       0       
      +0       0       0       0       0       0       0       0       0       0       0       0       0       0       0       
      +0       0       0       0       0       0       0       0       0       0
  6745 ;;      Temps:          0       0       0       0       0       0       0       0       0       0       0       0       
      +0       0       0       0       0       0       0       0       0       0       0       0       0       0       0       
      +0       0       0       0       0       0       0       0       0       0       0       0       0       0       0       
      +0       0       0       0       0       0       0       0       0       0
  6746 ;;      Totals:         0       0       0       0       0       0       0       0       0       0       0       0       
      +0       0       0       0       0       0       0       0       0       0       0       0       0       0       0       
      +0       0       0       0       0       0       0       0       0       0       0       0       0       0       0       
      +0       0       0       0       0       0       0       0       0       0
  6747 ;;Total ram usage:        0 bytes
  6748 ;; Hardware stack levels used: 1
  6749 ;; This function calls:
  6750 ;;		Nothing
  6751 ;; This function is called by:
  6752 ;;		_fputc
  6753 ;; This function uses a non-reentrant model
  6754 ;;
  6755                           
  6756     0004                     _putch:	
  6757                           ;psect for function _putch
  6758                           
  6759     0004                     l905:	
  6760                           ;incstack = 0
  6761                           ; Regs used in _putch: [wreg]
  6762                           
  6763     0004  0008               	return
  6764     0005                     __end_of_putch:
  6765                           
  6766                           	psect	text20
  6767     1400                     __ptext20:	
  6768 ;; *************** function _memcpy *****************
  6769 ;; Defined at:
  6770 ;;		line 4 in file "C:\Program Files\Microchip\xc8\v2.41\pic\sources\c99\common\memcpy.c"
  6771 ;; Parameters:    Size  Location     Type
  6772 ;;  d1              1    wreg     PTR void 
  6773 ;;		 -> dbuf(80), 
  6774 ;;  s1              1    0[COMMON] PTR const void 
  6775 ;;		 -> dbuf(80), 
  6776 ;;  n               2    1[COMMON] unsigned int 
  6777 ;; Auto vars:     Size  Location     Type
  6778 ;;  d1              1    5[COMMON] PTR void 
  6779 ;;		 -> dbuf(80), 
  6780 ;;  s               1    7[COMMON] PTR const unsigned char 
  6781 ;;		 -> dbuf(80), 
  6782 ;;  d               1    6[COMMON] PTR unsigned char 
  6783 ;;		 -> dbuf(80), 
  6784 ;;  tmp             1    4[COMMON] unsigned char 
  6785 ;; Return value:  Size  Location     Type
  6786 ;;                  1    wreg      PTR void 
  6787 ;; Registers used:
  6788 ;;		wreg, fsr1l, fsr1h, status,2, status,0
  6789 ;; Tracked objects:
  6790 ;;		On entry : 0/0
  6791 ;;		On exit  : 0/0
  6792 ;;		Unchanged: 0/0
  6793 ;; Data sizes:     COMMON   BANK0   BANK1   BANK2   BANK3   BANK4   BANK5   BANK6   BANK7   BANK8   BANK9  BANK10  BANK1
      +1  BANK12  BANK13  BANK14  BANK15  BANK16  BANK17  BANK18  BANK19  BANK20  BANK21  BANK22  BANK23  BANK24  BANK25  BANK2
      +6  BANK27  BANK28  BANK29  BANK30  BANK31  BANK32  BANK33  BANK34  BANK35  BANK36  BANK37  BANK38  BANK39  BANK40  BANK4
      +1  BANK42  BANK43  BANK44  BANK45  BANK46  BANK47  BANK48  BANK49  BANK50
  6794 ;;      Params:         3       0       0       0       0       0       0       0       0       0       0       0       
      +0       0       0       0       0       0       0       0       0       0       0       0       0       0       0       
      +0       0       0       0       0       0       0       0       0       0       0       0       0       0       0       
      +0       0       0       0       0       0       0       0       0       0
  6795 ;;      Locals:         4       0       0       0       0       0       0       0       0       0       0       0       
      +0       0       0       0       0       0       0       0       0       0       0       0       0       0       0       
      +0       0       0       0       0       0       0       0       0       0       0       0       0       0       0       
      +0       0       0       0       0       0       0       0       0       0
  6796 ;;      Temps:          1       0       0       0       0       0       0       0       0       0       0       0       
      +0       0       0       0       0       0       0       0       0       0       0       0       0       0       0       
      +0       0       0       0       0       0       0       0       0       0       0       0       0       0       0       
      +0       0       0       0       0       0       0       0       0       0
  6797 ;;      Totals:         8       0       0       0       0       0       0       0       0       0       0       0       
      +0       0       0       0       0       0       0       0       0       0       0       0       0       0       0       
      +0       0       0       0       0       0       0       0       0       0       0       0       0       0       0       
      +0       0       0       0       0       0       0       0       0       0
  6798 ;;Total ram usage:        8 bytes
  6799 ;; Hardware stack levels used: 1
  6800 ;; This function calls:
  6801 ;;		Nothing
  6802 ;; This function is called by:
  6803 ;;		_efgtoa
  6804 ;; This function uses a non-reentrant model
  6805 ;;
  6806                           
  6807     1400                     _memcpy:	
  6808                           ;psect for function _memcpy
  6809                           
  6810                           
  6811                           ;incstack = 0
  6812                           ; Regs used in _memcpy: [wreg+fsr1l+fsr1h+status,2+status,0]
  6813                           ;memcpy@d1 stored from wreg
  6814     1400  00F5               	movwf	memcpy@d1
  6815     1401                     l2957:
  6816     1401  0870               	movf	memcpy@s1,w
  6817     1402  00F7               	movwf	memcpy@s
  6818     1403  0875               	movf	memcpy@d1,w
  6819     1404  00F6               	movwf	memcpy@d
  6820     1405  2C1A               	goto	l879
  6821     1406                     l2959:
  6822     1406  0877               	movf	memcpy@s,w
  6823     1407  0086               	movwf	6
  6824     1408  3001               	movlw	1	; select bank2/3
  6825     1409  0087               	movwf	7
  6826     140A  0801               	movf	1,w
  6827     140B  00F4               	movwf	memcpy@tmp
  6828     140C                     l2961:
  6829     140C  3001               	movlw	1
  6830     140D  00F3               	movwf	??_memcpy
  6831     140E  0873               	movf	??_memcpy,w
  6832     140F  07F7               	addwf	memcpy@s,f
  6833     1410                     l2963:
  6834     1410  0876               	movf	memcpy@d,w
  6835     1411  0086               	movwf	6
  6836     1412  3001               	movlw	1	; select bank2/3
  6837     1413  0087               	movwf	7
  6838     1414  0874               	movf	memcpy@tmp,w
  6839     1415  0081               	movwf	1
  6840     1416  3001               	movlw	1
  6841     1417  00F3               	movwf	??_memcpy
  6842     1418  0873               	movf	??_memcpy,w
  6843     1419  07F6               	addwf	memcpy@d,f
  6844     141A                     l879:
  6845     141A  3001               	movlw	1
  6846     141B  02F1               	subwf	memcpy@n,f
  6847     141C  3000               	movlw	0
  6848     141D  3BF2               	subwfb	memcpy@n+1,f
  6849     141E  0A71               	incf	memcpy@n,w
  6850     141F  1D03               	skipz
  6851     1420  2C25               	goto	u3851
  6852     1421  0A72               	incf	memcpy@n+1,w
  6853     1422  1D03               	btfss	3,2
  6854     1423  2C25               	goto	u3851
  6855     1424  2C26               	goto	u3850
  6856     1425                     u3851:
  6857     1425  2C06               	goto	l2959
  6858     1426                     u3850:
  6859     1426                     l882:
  6860     1426  0008               	return
  6861     1427                     __end_of_memcpy:
  6862                           
  6863                           	psect	text21
  6864     134F                     __ptext21:	
  6865 ;; *************** function _labs *****************
  6866 ;; Defined at:
  6867 ;;		line 1 in file "C:\Program Files\Microchip\xc8\v2.41\pic\sources\c99\common\labs.c"
  6868 ;; Parameters:    Size  Location     Type
  6869 ;;  a               4    0[COMMON] long 
  6870 ;; Auto vars:     Size  Location     Type
  6871 ;;		None
  6872 ;; Return value:  Size  Location     Type
  6873 ;;                  4    0[COMMON] long 
  6874 ;; Registers used:
  6875 ;;		wreg, status,2, status,0
  6876 ;; Tracked objects:
  6877 ;;		On entry : 0/0
  6878 ;;		On exit  : 0/0
  6879 ;;		Unchanged: 0/0
  6880 ;; Data sizes:     COMMON   BANK0   BANK1   BANK2   BANK3   BANK4   BANK5   BANK6   BANK7   BANK8   BANK9  BANK10  BANK1
      +1  BANK12  BANK13  BANK14  BANK15  BANK16  BANK17  BANK18  BANK19  BANK20  BANK21  BANK22  BANK23  BANK24  BANK25  BANK2
      +6  BANK27  BANK28  BANK29  BANK30  BANK31  BANK32  BANK33  BANK34  BANK35  BANK36  BANK37  BANK38  BANK39  BANK40  BANK4
      +1  BANK42  BANK43  BANK44  BANK45  BANK46  BANK47  BANK48  BANK49  BANK50
  6881 ;;      Params:         4       0       0       0       0       0       0       0       0       0       0       0       
      +0       0       0       0       0       0       0       0       0       0       0       0       0       0       0       
      +0       0       0       0       0       0       0       0       0       0       0       0       0       0       0       
      +0       0       0       0       0       0       0       0       0       0
  6882 ;;      Locals:         0       0       0       0       0       0       0       0       0       0       0       0       
      +0       0       0       0       0       0       0       0       0       0       0       0       0       0       0       
      +0       0       0       0       0       0       0       0       0       0       0       0       0       0       0       
      +0       0       0       0       0       0       0       0       0       0
  6883 ;;      Temps:          0       0       0       0       0       0       0       0       0       0       0       0       
      +0       0       0       0       0       0       0       0       0       0       0       0       0       0       0       
      +0       0       0       0       0       0       0       0       0       0       0       0       0       0       0       
      +0       0       0       0       0       0       0       0       0       0
  6884 ;;      Totals:         4       0       0       0       0       0       0       0       0       0       0       0       
      +0       0       0       0       0       0       0       0       0       0       0       0       0       0       0       
      +0       0       0       0       0       0       0       0       0       0       0       0       0       0       0       
      +0       0       0       0       0       0       0       0       0       0
  6885 ;;Total ram usage:        4 bytes
  6886 ;; Hardware stack levels used: 1
  6887 ;; This function calls:
  6888 ;;		Nothing
  6889 ;; This function is called by:
  6890 ;;		_efgtoa
  6891 ;; This function uses a non-reentrant model
  6892 ;;
  6893                           
  6894     134F                     _labs:	
  6895                           ;psect for function _labs
  6896                           
  6897     134F                     l2923:	
  6898                           ;incstack = 0
  6899                           ; Regs used in _labs: [wreg+status,2+status,0]
  6900                           
  6901     134F  1BF3               	btfsc	labs@a+3,7
  6902     1350  2B60               	goto	u3730
  6903     1351  0873               	movf	labs@a+3,w
  6904     1352  1D03               	btfss	3,2
  6905     1353  2B5F               	goto	u3731
  6906     1354  0872               	movf	labs@a+2,w
  6907     1355  1D03               	btfss	3,2
  6908     1356  2B5F               	goto	u3731
  6909     1357  0871               	movf	labs@a+1,w
  6910     1358  1D03               	btfss	3,2
  6911     1359  2B5F               	goto	u3731
  6912     135A  3001               	movlw	1
  6913     135B  0270               	subwf	labs@a,w
  6914     135C  1803               	btfsc	3,0
  6915     135D  2B5F               	goto	u3731
  6916     135E  2B60               	goto	u3730
  6917     135F                     u3731:
  6918     135F  2B70               	goto	l873
  6919     1360                     u3730:
  6920     1360                     l2925:
  6921     1360  0970               	comf	labs@a,w
  6922     1361  00F0               	movwf	?_labs
  6923     1362  0971               	comf	labs@a+1,w
  6924     1363  00F1               	movwf	?_labs+1
  6925     1364  0972               	comf	labs@a+2,w
  6926     1365  00F2               	movwf	?_labs+2
  6927     1366  0973               	comf	labs@a+3,w
  6928     1367  00F3               	movwf	?_labs+3
  6929     1368  0AF0               	incf	?_labs,f
  6930     1369  1903               	skipnz
  6931     136A  0AF1               	incf	?_labs+1,f
  6932     136B  1903               	skipnz
  6933     136C  0AF2               	incf	?_labs+2,f
  6934     136D  1903               	skipnz
  6935     136E  0AF3               	incf	?_labs+3,f
  6936     136F  2B70               	goto	l876
  6937     1370                     l873:
  6938     1370                     l876:
  6939     1370  0008               	return
  6940     1371                     __end_of_labs:
  6941                           
  6942                           	psect	text22
  6943     0835                     __ptext22:	
  6944 ;; *************** function _floorf *****************
  6945 ;; Defined at:
  6946 ;;		line 3 in file "C:\Program Files\Microchip\xc8\v2.41\pic\sources\c99\common\floorf.c"
  6947 ;; Parameters:    Size  Location     Type
  6948 ;;  x               4   13[BANK0 ] float 
  6949 ;; Auto vars:     Size  Location     Type
  6950 ;;  u               4   29[BANK0 ] struct .
  6951 ;;  m               4   23[BANK0 ] unsigned long 
  6952 ;;  e               2   27[BANK0 ] int 
  6953 ;; Return value:  Size  Location     Type
  6954 ;;                  4   13[BANK0 ] float 
  6955 ;; Registers used:
  6956 ;;		wreg, status,2, status,0
  6957 ;; Tracked objects:
  6958 ;;		On entry : 0/0
  6959 ;;		On exit  : 0/0
  6960 ;;		Unchanged: 0/0
  6961 ;; Data sizes:     COMMON   BANK0   BANK1   BANK2   BANK3   BANK4   BANK5   BANK6   BANK7   BANK8   BANK9  BANK10  BANK1
      +1  BANK12  BANK13  BANK14  BANK15  BANK16  BANK17  BANK18  BANK19  BANK20  BANK21  BANK22  BANK23  BANK24  BANK25  BANK2
      +6  BANK27  BANK28  BANK29  BANK30  BANK31  BANK32  BANK33  BANK34  BANK35  BANK36  BANK37  BANK38  BANK39  BANK40  BANK4
      +1  BANK42  BANK43  BANK44  BANK45  BANK46  BANK47  BANK48  BANK49  BANK50
  6962 ;;      Params:         0       4       0       0       0       0       0       0       0       0       0       0       
      +0       0       0       0       0       0       0       0       0       0       0       0       0       0       0       
      +0       0       0       0       0       0       0       0       0       0       0       0       0       0       0       
      +0       0       0       0       0       0       0       0       0       0
  6963 ;;      Locals:         0      10       0       0       0       0       0       0       0       0       0       0       
      +0       0       0       0       0       0       0       0       0       0       0       0       0       0       0       
      +0       0       0       0       0       0       0       0       0       0       0       0       0       0       0       
      +0       0       0       0       0       0       0       0       0       0
  6964 ;;      Temps:          0       6       0       0       0       0       0       0       0       0       0       0       
      +0       0       0       0       0       0       0       0       0       0       0       0       0       0       0       
      +0       0       0       0       0       0       0       0       0       0       0       0       0       0       0       
      +0       0       0       0       0       0       0       0       0       0
  6965 ;;      Totals:         0      20       0       0       0       0       0       0       0       0       0       0       
      +0       0       0       0       0       0       0       0       0       0       0       0       0       0       0       
      +0       0       0       0       0       0       0       0       0       0       0       0       0       0       0       
      +0       0       0       0       0       0       0       0       0       0
  6966 ;;Total ram usage:       20 bytes
  6967 ;; Hardware stack levels used: 1
  6968 ;; This function calls:
  6969 ;;		Nothing
  6970 ;; This function is called by:
  6971 ;;		_efgtoa
  6972 ;; This function uses a non-reentrant model
  6973 ;;
  6974                           
  6975     0835                     _floorf:	
  6976                           ;psect for function _floorf
  6977                           
  6978     0835                     l2927:	
  6979                           ;incstack = 0
  6980                           ; Regs used in _floorf: [wreg+status,2+status,0]
  6981                           
  6982     0835  0141               	movlb	1	; select bank1
  6983     0836  085D               	movf	(floorf@F526+3)^(0+128),w
  6984     0837  0140               	movlb	0	; select bank0
  6985     0838  00C0               	movwf	floorf@u+3
  6986     0839  0141               	movlb	1	; select bank1
  6987     083A  085C               	movf	(floorf@F526+2)^(0+128),w
  6988     083B  0140               	movlb	0	; select bank0
  6989     083C  00BF               	movwf	floorf@u+2
  6990     083D  0141               	movlb	1	; select bank1
  6991     083E  085B               	movf	(floorf@F526+1)^(0+128),w
  6992     083F  0140               	movlb	0	; select bank0
  6993     0840  00BE               	movwf	floorf@u+1
  6994     0841  0141               	movlb	1	; select bank1
  6995     0842  085A               	movf	floorf@F526^(0+128),w
  6996     0843  0140               	movlb	0	; select bank0
  6997     0844  00BD               	movwf	floorf@u
  6998     0845  0830               	movf	floorf@x+3,w
  6999     0846  00C0               	movwf	floorf@u+3
  7000     0847  082F               	movf	floorf@x+2,w
  7001     0848  00BF               	movwf	floorf@u+2
  7002     0849  082E               	movf	floorf@x+1,w
  7003     084A  00BE               	movwf	floorf@u+1
  7004     084B  082D               	movf	floorf@x,w
  7005     084C  00BD               	movwf	floorf@u
  7006     084D                     l2929:
  7007     084D  083D               	movf	floorf@u,w
  7008     084E  00B1               	movwf	??_floorf
  7009     084F  083E               	movf	floorf@u+1,w
  7010     0850  00B2               	movwf	??_floorf+1
  7011     0851  083F               	movf	floorf@u+2,w
  7012     0852  00B3               	movwf	??_floorf+2
  7013     0853  0840               	movf	floorf@u+3,w
  7014     0854  00B4               	movwf	??_floorf+3
  7015     0855  3017               	movlw	23
  7016     0856                     u3745:
  7017     0856  36B4               	lsrf	??_floorf+3,f
  7018     0857  0CB3               	rrf	??_floorf+2,f
  7019     0858  0CB2               	rrf	??_floorf+1,f
  7020     0859  0CB1               	rrf	??_floorf,f
  7021     085A                     u3740:
  7022     085A  0B89               	decfsz	9,f
  7023     085B  2856               	goto	u3745
  7024     085C  30FF               	movlw	255
  7025     085D  0531               	andwf	??_floorf,w
  7026     085E  00B5               	movwf	??_floorf+4
  7027     085F  3000               	movlw	0
  7028     0860  0532               	andwf	??_floorf+1,w
  7029     0861  00B6               	movwf	??_floorf+5
  7030     0862  0835               	movf	??_floorf+4,w
  7031     0863  3E81               	addlw	129
  7032     0864  00BB               	movwf	floorf@e
  7033     0865  30FF               	movlw	255
  7034     0866  3D36               	addwfc	??_floorf+5,w
  7035     0867  00BC               	movwf	floorf@e+1
  7036     0868                     l2931:
  7037     0868  083C               	movf	floorf@e+1,w
  7038     0869  3A80               	xorlw	128
  7039     086A  00B1               	movwf	??_floorf
  7040     086B  3080               	movlw	128
  7041     086C  0231               	subwf	??_floorf,w
  7042     086D  1D03               	skipz
  7043     086E  2871               	goto	u3755
  7044     086F  3017               	movlw	23
  7045     0870  023B               	subwf	floorf@e,w
  7046     0871                     u3755:
  7047     0871  1C03               	skipc
  7048     0872  2874               	goto	u3751
  7049     0873  2875               	goto	u3750
  7050     0874                     u3751:
  7051     0874  2876               	goto	l861
  7052     0875                     u3750:
  7053     0875                     l2933:
  7054     0875  291F               	goto	l862
  7055     0876                     l861:
  7056     0876  0140               	movlb	0	; select bank0
  7057     0877  1BBC               	btfsc	floorf@e+1,7
  7058     0878  287A               	goto	u3761
  7059     0879  287B               	goto	u3760
  7060     087A                     u3761:
  7061     087A  28D8               	goto	l2947
  7062     087B                     u3760:
  7063     087B                     l2935:
  7064     087B  30FF               	movlw	255
  7065     087C  00B1               	movwf	??_floorf
  7066     087D  30FF               	movlw	255
  7067     087E  00B2               	movwf	??_floorf+1
  7068     087F  307F               	movlw	127
  7069     0880  00B3               	movwf	??_floorf+2
  7070     0881  3000               	movlw	0
  7071     0882  00B4               	movwf	??_floorf+3
  7072     0883  0A3B               	incf	floorf@e,w
  7073     0884  2889               	goto	u3770
  7074     0885                     u3775:
  7075     0885  37B4               	asrf	??_floorf+3,f
  7076     0886  0CB3               	rrf	??_floorf+2,f
  7077     0887  0CB2               	rrf	??_floorf+1,f
  7078     0888  0CB1               	rrf	??_floorf,f
  7079     0889                     u3770:
  7080     0889  0B89               	decfsz	9,f
  7081     088A  2885               	goto	u3775
  7082     088B  0834               	movf	??_floorf+3,w
  7083     088C  00BA               	movwf	floorf@m+3
  7084     088D  0833               	movf	??_floorf+2,w
  7085     088E  00B9               	movwf	floorf@m+2
  7086     088F  0832               	movf	??_floorf+1,w
  7087     0890  00B8               	movwf	floorf@m+1
  7088     0891  0831               	movf	??_floorf,w
  7089     0892  00B7               	movwf	floorf@m
  7090     0893                     l2937:
  7091     0893  083D               	movf	floorf@u,w
  7092     0894  0537               	andwf	floorf@m,w
  7093     0895  00B1               	movwf	??_floorf
  7094     0896  083E               	movf	floorf@u+1,w
  7095     0897  0538               	andwf	floorf@m+1,w
  7096     0898  00B2               	movwf	??_floorf+1
  7097     0899  083F               	movf	floorf@u+2,w
  7098     089A  0539               	andwf	floorf@m+2,w
  7099     089B  00B3               	movwf	??_floorf+2
  7100     089C  0840               	movf	floorf@u+3,w
  7101     089D  053A               	andwf	floorf@m+3,w
  7102     089E  00B4               	movwf	??_floorf+3
  7103     089F  0834               	movf	??_floorf+3,w
  7104     08A0  0433               	iorwf	??_floorf+2,w
  7105     08A1  0432               	iorwf	??_floorf+1,w
  7106     08A2  0431               	iorwf	??_floorf,w
  7107     08A3  1D03               	skipz
  7108     08A4  28A6               	goto	u3781
  7109     08A5  28A7               	goto	u3780
  7110     08A6                     u3781:
  7111     08A6  28A8               	goto	l2941
  7112     08A7                     u3780:
  7113     08A7  2875               	goto	l2933
  7114     08A8                     l2941:
  7115     08A8  083D               	movf	floorf@u,w
  7116     08A9  00B1               	movwf	??_floorf
  7117     08AA  083E               	movf	floorf@u+1,w
  7118     08AB  00B2               	movwf	??_floorf+1
  7119     08AC  083F               	movf	floorf@u+2,w
  7120     08AD  00B3               	movwf	??_floorf+2
  7121     08AE  0840               	movf	floorf@u+3,w
  7122     08AF  00B4               	movwf	??_floorf+3
  7123     08B0  301F               	movlw	31
  7124     08B1                     u3795:
  7125     08B1  36B4               	lsrf	??_floorf+3,f
  7126     08B2  0CB3               	rrf	??_floorf+2,f
  7127     08B3  0CB2               	rrf	??_floorf+1,f
  7128     08B4  0CB1               	rrf	??_floorf,f
  7129     08B5                     u3790:
  7130     08B5  0B89               	decfsz	9,f
  7131     08B6  28B1               	goto	u3795
  7132     08B7  0834               	movf	??_floorf+3,w
  7133     08B8  0433               	iorwf	??_floorf+2,w
  7134     08B9  0432               	iorwf	??_floorf+1,w
  7135     08BA  0431               	iorwf	??_floorf,w
  7136     08BB  1903               	skipnz
  7137     08BC  28BE               	goto	u3801
  7138     08BD  28BF               	goto	u3800
  7139     08BE                     u3801:
  7140     08BE  28C7               	goto	l2945
  7141     08BF                     u3800:
  7142     08BF                     l2943:
  7143     08BF  0837               	movf	floorf@m,w
  7144     08C0  07BD               	addwf	floorf@u,f
  7145     08C1  0838               	movf	floorf@m+1,w
  7146     08C2  3DBE               	addwfc	floorf@u+1,f
  7147     08C3  0839               	movf	floorf@m+2,w
  7148     08C4  3DBF               	addwfc	floorf@u+2,f
  7149     08C5  083A               	movf	floorf@m+3,w
  7150     08C6  3DC0               	addwfc	floorf@u+3,f
  7151     08C7                     l2945:
  7152     08C7  0937               	comf	floorf@m,w
  7153     08C8  00B1               	movwf	??_floorf
  7154     08C9  0938               	comf	floorf@m+1,w
  7155     08CA  00B2               	movwf	??_floorf+1
  7156     08CB  0939               	comf	floorf@m+2,w
  7157     08CC  00B3               	movwf	??_floorf+2
  7158     08CD  093A               	comf	floorf@m+3,w
  7159     08CE  00B4               	movwf	??_floorf+3
  7160     08CF  0831               	movf	??_floorf,w
  7161     08D0  05BD               	andwf	floorf@u,f
  7162     08D1  0832               	movf	??_floorf+1,w
  7163     08D2  05BE               	andwf	floorf@u+1,f
  7164     08D3  0833               	movf	??_floorf+2,w
  7165     08D4  05BF               	andwf	floorf@u+2,f
  7166     08D5  0834               	movf	??_floorf+3,w
  7167     08D6  05C0               	andwf	floorf@u+3,f
  7168     08D7  2917               	goto	l866
  7169     08D8                     l2947:
  7170     08D8  083D               	movf	floorf@u,w
  7171     08D9  00B1               	movwf	??_floorf
  7172     08DA  083E               	movf	floorf@u+1,w
  7173     08DB  00B2               	movwf	??_floorf+1
  7174     08DC  083F               	movf	floorf@u+2,w
  7175     08DD  00B3               	movwf	??_floorf+2
  7176     08DE  0840               	movf	floorf@u+3,w
  7177     08DF  00B4               	movwf	??_floorf+3
  7178     08E0  301F               	movlw	31
  7179     08E1                     u3815:
  7180     08E1  36B4               	lsrf	??_floorf+3,f
  7181     08E2  0CB3               	rrf	??_floorf+2,f
  7182     08E3  0CB2               	rrf	??_floorf+1,f
  7183     08E4  0CB1               	rrf	??_floorf,f
  7184     08E5                     u3810:
  7185     08E5  0B89               	decfsz	9,f
  7186     08E6  28E1               	goto	u3815
  7187     08E7  0834               	movf	??_floorf+3,w
  7188     08E8  0433               	iorwf	??_floorf+2,w
  7189     08E9  0432               	iorwf	??_floorf+1,w
  7190     08EA  0431               	iorwf	??_floorf,w
  7191     08EB  1D03               	skipz
  7192     08EC  28EE               	goto	u3821
  7193     08ED  28EF               	goto	u3820
  7194     08EE                     u3821:
  7195     08EE  28F8               	goto	l2951
  7196     08EF                     u3820:
  7197     08EF                     l2949:
  7198     08EF  3000               	movlw	0
  7199     08F0  00C0               	movwf	floorf@u+3
  7200     08F1  3000               	movlw	0
  7201     08F2  00BF               	movwf	floorf@u+2
  7202     08F3  3000               	movlw	0
  7203     08F4  00BE               	movwf	floorf@u+1
  7204     08F5  3000               	movlw	0
  7205     08F6  00BD               	movwf	floorf@u
  7206     08F7  2917               	goto	l866
  7207     08F8                     l2951:
  7208     08F8  083D               	movf	floorf@u,w
  7209     08F9  00B1               	movwf	??_floorf
  7210     08FA  083E               	movf	floorf@u+1,w
  7211     08FB  00B2               	movwf	??_floorf+1
  7212     08FC  083F               	movf	floorf@u+2,w
  7213     08FD  00B3               	movwf	??_floorf+2
  7214     08FE  0840               	movf	floorf@u+3,w
  7215     08FF  00B4               	movwf	??_floorf+3
  7216     0900  3001               	movlw	1
  7217     0901                     u3835:
  7218     0901  35B1               	lslf	??_floorf,f
  7219     0902  0DB2               	rlf	??_floorf+1,f
  7220     0903  0DB3               	rlf	??_floorf+2,f
  7221     0904  0DB4               	rlf	??_floorf+3,f
  7222     0905                     u3830:
  7223     0905  0B89               	decfsz	9,f
  7224     0906  2901               	goto	u3835
  7225     0907  0834               	movf	??_floorf+3,w
  7226     0908  0433               	iorwf	??_floorf+2,w
  7227     0909  0432               	iorwf	??_floorf+1,w
  7228     090A  0431               	iorwf	??_floorf,w
  7229     090B  1903               	skipnz
  7230     090C  290E               	goto	u3841
  7231     090D  290F               	goto	u3840
  7232     090E                     u3841:
  7233     090E  2917               	goto	l866
  7234     090F                     u3840:
  7235     090F                     l2953:
  7236     090F  30BF               	movlw	191
  7237     0910  00C0               	movwf	floorf@u+3
  7238     0911  3080               	movlw	128
  7239     0912  00BF               	movwf	floorf@u+2
  7240     0913  3000               	movlw	0
  7241     0914  00BE               	movwf	floorf@u+1
  7242     0915  3000               	movlw	0
  7243     0916  00BD               	movwf	floorf@u
  7244     0917                     l866:
  7245     0917  0840               	movf	floorf@u+3,w
  7246     0918  00B0               	movwf	?_floorf+3
  7247     0919  083F               	movf	floorf@u+2,w
  7248     091A  00AF               	movwf	?_floorf+2
  7249     091B  083E               	movf	floorf@u+1,w
  7250     091C  00AE               	movwf	?_floorf+1
  7251     091D  083D               	movf	floorf@u,w
  7252     091E  00AD               	movwf	?_floorf
  7253     091F                     l862:
  7254     091F  0008               	return
  7255     0920                     __end_of_floorf:
  7256                           
  7257                           	psect	text23
  7258     16F6                     __ptext23:	
  7259 ;; *************** function ___fpclassifyf *****************
  7260 ;; Defined at:
  7261 ;;		line 4 in file "C:\Program Files\Microchip\xc8\v2.41\pic\sources\c99\common\__fpclassifyf.c"
  7262 ;; Parameters:    Size  Location     Type
  7263 ;;  x               4    0[COMMON] float 
  7264 ;; Auto vars:     Size  Location     Type
  7265 ;;  u               4    2[BANK0 ] struct .
  7266 ;;  e               2    0[BANK0 ] int 
  7267 ;; Return value:  Size  Location     Type
  7268 ;;                  2    0[COMMON] int 
  7269 ;; Registers used:
  7270 ;;		wreg, status,2, status,0
  7271 ;; Tracked objects:
  7272 ;;		On entry : 0/0
  7273 ;;		On exit  : 0/0
  7274 ;;		Unchanged: 0/0
  7275 ;; Data sizes:     COMMON   BANK0   BANK1   BANK2   BANK3   BANK4   BANK5   BANK6   BANK7   BANK8   BANK9  BANK10  BANK1
      +1  BANK12  BANK13  BANK14  BANK15  BANK16  BANK17  BANK18  BANK19  BANK20  BANK21  BANK22  BANK23  BANK24  BANK25  BANK2
      +6  BANK27  BANK28  BANK29  BANK30  BANK31  BANK32  BANK33  BANK34  BANK35  BANK36  BANK37  BANK38  BANK39  BANK40  BANK4
      +1  BANK42  BANK43  BANK44  BANK45  BANK46  BANK47  BANK48  BANK49  BANK50
  7276 ;;      Params:         4       0       0       0       0       0       0       0       0       0       0       0       
      +0       0       0       0       0       0       0       0       0       0       0       0       0       0       0       
      +0       0       0       0       0       0       0       0       0       0       0       0       0       0       0       
      +0       0       0       0       0       0       0       0       0       0
  7277 ;;      Locals:         0       6       0       0       0       0       0       0       0       0       0       0       
      +0       0       0       0       0       0       0       0       0       0       0       0       0       0       0       
      +0       0       0       0       0       0       0       0       0       0       0       0       0       0       0       
      +0       0       0       0       0       0       0       0       0       0
  7278 ;;      Temps:          6       0       0       0       0       0       0       0       0       0       0       0       
      +0       0       0       0       0       0       0       0       0       0       0       0       0       0       0       
      +0       0       0       0       0       0       0       0       0       0       0       0       0       0       0       
      +0       0       0       0       0       0       0       0       0       0
  7279 ;;      Totals:        10       6       0       0       0       0       0       0       0       0       0       0       
      +0       0       0       0       0       0       0       0       0       0       0       0       0       0       0       
      +0       0       0       0       0       0       0       0       0       0       0       0       0       0       0       
      +0       0       0       0       0       0       0       0       0       0
  7280 ;;Total ram usage:       16 bytes
  7281 ;; Hardware stack levels used: 1
  7282 ;; This function calls:
  7283 ;;		Nothing
  7284 ;; This function is called by:
  7285 ;;		_efgtoa
  7286 ;; This function uses a non-reentrant model
  7287 ;;
  7288                           
  7289     16F6                     ___fpclassifyf:	
  7290                           ;psect for function ___fpclassifyf
  7291                           
  7292     16F6                     l2895:	
  7293                           ;incstack = 0
  7294                           ; Regs used in ___fpclassifyf: [wreg+status,2+status,0]
  7295                           
  7296     16F6  0141               	movlb	1	; select bank1
  7297     16F7  0861               	movf	(___fpclassifyf@F465+3)^(0+128),w
  7298     16F8  0140               	movlb	0	; select bank0
  7299     16F9  00A5               	movwf	___fpclassifyf@u+3
  7300     16FA  0141               	movlb	1	; select bank1
  7301     16FB  0860               	movf	(___fpclassifyf@F465+2)^(0+128),w
  7302     16FC  0140               	movlb	0	; select bank0
  7303     16FD  00A4               	movwf	___fpclassifyf@u+2
  7304     16FE  0141               	movlb	1	; select bank1
  7305     16FF  085F               	movf	(___fpclassifyf@F465+1)^(0+128),w
  7306     1700  0140               	movlb	0	; select bank0
  7307     1701  00A3               	movwf	___fpclassifyf@u+1
  7308     1702  0141               	movlb	1	; select bank1
  7309     1703  085E               	movf	___fpclassifyf@F465^(0+128),w
  7310     1704  0140               	movlb	0	; select bank0
  7311     1705  00A2               	movwf	___fpclassifyf@u
  7312     1706  0873               	movf	___fpclassifyf@x+3,w
  7313     1707  00A5               	movwf	___fpclassifyf@u+3
  7314     1708  0872               	movf	___fpclassifyf@x+2,w
  7315     1709  00A4               	movwf	___fpclassifyf@u+2
  7316     170A  0871               	movf	___fpclassifyf@x+1,w
  7317     170B  00A3               	movwf	___fpclassifyf@u+1
  7318     170C  0870               	movf	___fpclassifyf@x,w
  7319     170D  00A2               	movwf	___fpclassifyf@u
  7320     170E                     l2897:
  7321     170E  0822               	movf	___fpclassifyf@u,w
  7322     170F  00F4               	movwf	??___fpclassifyf
  7323     1710  0823               	movf	___fpclassifyf@u+1,w
  7324     1711  00F5               	movwf	??___fpclassifyf+1
  7325     1712  0824               	movf	___fpclassifyf@u+2,w
  7326     1713  00F6               	movwf	??___fpclassifyf+2
  7327     1714  0825               	movf	___fpclassifyf@u+3,w
  7328     1715  00F7               	movwf	??___fpclassifyf+3
  7329     1716  3017               	movlw	23
  7330     1717                     u3645:
  7331     1717  36F7               	lsrf	??___fpclassifyf+3,f
  7332     1718  0CF6               	rrf	??___fpclassifyf+2,f
  7333     1719  0CF5               	rrf	??___fpclassifyf+1,f
  7334     171A  0CF4               	rrf	??___fpclassifyf,f
  7335     171B                     u3640:
  7336     171B  0B89               	decfsz	9,f
  7337     171C  2F17               	goto	u3645
  7338     171D  30FF               	movlw	255
  7339     171E  0574               	andwf	??___fpclassifyf,w
  7340     171F  00A0               	movwf	___fpclassifyf@e
  7341     1720  3000               	movlw	0
  7342     1721  0575               	andwf	??___fpclassifyf+1,w
  7343     1722  00A1               	movwf	___fpclassifyf@e+1
  7344     1723                     l2899:
  7345     1723  0820               	movf	___fpclassifyf@e,w
  7346     1724  0421               	iorwf	___fpclassifyf@e+1,w
  7347     1725  1D03               	btfss	3,2
  7348     1726  2F28               	goto	u3651
  7349     1727  2F29               	goto	u3650
  7350     1728                     u3651:
  7351     1728  2F4A               	goto	l2909
  7352     1729                     u3650:
  7353     1729                     l2901:
  7354     1729  0822               	movf	___fpclassifyf@u,w
  7355     172A  00F4               	movwf	??___fpclassifyf
  7356     172B  0823               	movf	___fpclassifyf@u+1,w
  7357     172C  00F5               	movwf	??___fpclassifyf+1
  7358     172D  0824               	movf	___fpclassifyf@u+2,w
  7359     172E  00F6               	movwf	??___fpclassifyf+2
  7360     172F  0825               	movf	___fpclassifyf@u+3,w
  7361     1730  00F7               	movwf	??___fpclassifyf+3
  7362     1731  3001               	movlw	1
  7363     1732                     u3665:
  7364     1732  35F4               	lslf	??___fpclassifyf,f
  7365     1733  0DF5               	rlf	??___fpclassifyf+1,f
  7366     1734  0DF6               	rlf	??___fpclassifyf+2,f
  7367     1735  0DF7               	rlf	??___fpclassifyf+3,f
  7368     1736                     u3660:
  7369     1736  0B89               	decfsz	9,f
  7370     1737  2F32               	goto	u3665
  7371     1738  0877               	movf	??___fpclassifyf+3,w
  7372     1739  0476               	iorwf	??___fpclassifyf+2,w
  7373     173A  0475               	iorwf	??___fpclassifyf+1,w
  7374     173B  0474               	iorwf	??___fpclassifyf,w
  7375     173C  1D03               	skipz
  7376     173D  2F3F               	goto	u3671
  7377     173E  2F40               	goto	u3670
  7378     173F                     u3671:
  7379     173F  2F45               	goto	l2905
  7380     1740                     u3670:
  7381     1740                     l2903:
  7382     1740  3002               	movlw	2
  7383     1741  00F0               	movwf	?___fpclassifyf
  7384     1742  3000               	movlw	0
  7385     1743  00F1               	movwf	?___fpclassifyf+1
  7386     1744  2F74               	goto	l855
  7387     1745                     l2905:
  7388     1745  3003               	movlw	3
  7389     1746  00F0               	movwf	?___fpclassifyf
  7390     1747  3000               	movlw	0
  7391     1748  00F1               	movwf	?___fpclassifyf+1
  7392     1749  2F74               	goto	l855
  7393     174A                     l2909:
  7394     174A  0A20               	incf	___fpclassifyf@e,w
  7395     174B  0421               	iorwf	___fpclassifyf@e+1,w
  7396     174C  1D03               	btfss	3,2
  7397     174D  2F4F               	goto	u3681
  7398     174E  2F50               	goto	u3680
  7399     174F                     u3681:
  7400     174F  2F70               	goto	l2915
  7401     1750                     u3680:
  7402     1750                     l2911:
  7403     1750  0822               	movf	___fpclassifyf@u,w
  7404     1751  00F4               	movwf	??___fpclassifyf
  7405     1752  0823               	movf	___fpclassifyf@u+1,w
  7406     1753  00F5               	movwf	??___fpclassifyf+1
  7407     1754  0824               	movf	___fpclassifyf@u+2,w
  7408     1755  00F6               	movwf	??___fpclassifyf+2
  7409     1756  0825               	movf	___fpclassifyf@u+3,w
  7410     1757  00F7               	movwf	??___fpclassifyf+3
  7411     1758  3009               	movlw	9
  7412     1759                     u3695:
  7413     1759  35F4               	lslf	??___fpclassifyf,f
  7414     175A  0DF5               	rlf	??___fpclassifyf+1,f
  7415     175B  0DF6               	rlf	??___fpclassifyf+2,f
  7416     175C  0DF7               	rlf	??___fpclassifyf+3,f
  7417     175D                     u3690:
  7418     175D  0B89               	decfsz	9,f
  7419     175E  2F59               	goto	u3695
  7420     175F  0877               	movf	??___fpclassifyf+3,w
  7421     1760  0476               	iorwf	??___fpclassifyf+2,w
  7422     1761  0475               	iorwf	??___fpclassifyf+1,w
  7423     1762  0474               	iorwf	??___fpclassifyf,w
  7424     1763  1903               	skipnz
  7425     1764  2F66               	goto	u3701
  7426     1765  2F68               	goto	u3700
  7427     1766                     u3701:
  7428     1766  3001               	movlw	1
  7429     1767  2F69               	goto	u3710
  7430     1768                     u3700:
  7431     1768  3000               	movlw	0
  7432     1769                     u3710:
  7433     1769  00F8               	movwf	??___fpclassifyf+4
  7434     176A  01F9               	clrf	??___fpclassifyf+5
  7435     176B  0878               	movf	??___fpclassifyf+4,w
  7436     176C  00F0               	movwf	?___fpclassifyf
  7437     176D  0879               	movf	??___fpclassifyf+5,w
  7438     176E  00F1               	movwf	?___fpclassifyf+1
  7439     176F  2F74               	goto	l855
  7440     1770                     l2915:
  7441     1770  3004               	movlw	4
  7442     1771  00F0               	movwf	?___fpclassifyf
  7443     1772  3000               	movlw	0
  7444     1773  00F1               	movwf	?___fpclassifyf+1
  7445     1774                     l855:
  7446     1774  0008               	return
  7447     1775                     __end_of___fpclassifyf:
  7448                           
  7449                           	psect	text24
  7450     160B                     __ptext24:	
  7451 ;; *************** function ___fltol *****************
  7452 ;; Defined at:
  7453 ;;		line 43 in file "C:\Program Files\Microchip\xc8\v2.41\pic\sources\c99\common\fltol.c"
  7454 ;; Parameters:    Size  Location     Type
  7455 ;;  f1              4    0[COMMON] int 
  7456 ;; Auto vars:     Size  Location     Type
  7457 ;;  exp1            1    9[COMMON] unsigned char 
  7458 ;;  sign1           1    8[COMMON] unsigned char 
  7459 ;; Return value:  Size  Location     Type
  7460 ;;                  4    0[COMMON] long 
  7461 ;; Registers used:
  7462 ;;		wreg, status,2, status,0
  7463 ;; Tracked objects:
  7464 ;;		On entry : 0/0
  7465 ;;		On exit  : 0/0
  7466 ;;		Unchanged: 0/0
  7467 ;; Data sizes:     COMMON   BANK0   BANK1   BANK2   BANK3   BANK4   BANK5   BANK6   BANK7   BANK8   BANK9  BANK10  BANK1
      +1  BANK12  BANK13  BANK14  BANK15  BANK16  BANK17  BANK18  BANK19  BANK20  BANK21  BANK22  BANK23  BANK24  BANK25  BANK2
      +6  BANK27  BANK28  BANK29  BANK30  BANK31  BANK32  BANK33  BANK34  BANK35  BANK36  BANK37  BANK38  BANK39  BANK40  BANK4
      +1  BANK42  BANK43  BANK44  BANK45  BANK46  BANK47  BANK48  BANK49  BANK50
  7468 ;;      Params:         4       0       0       0       0       0       0       0       0       0       0       0       
      +0       0       0       0       0       0       0       0       0       0       0       0       0       0       0       
      +0       0       0       0       0       0       0       0       0       0       0       0       0       0       0       
      +0       0       0       0       0       0       0       0       0       0
  7469 ;;      Locals:         2       0       0       0       0       0       0       0       0       0       0       0       
      +0       0       0       0       0       0       0       0       0       0       0       0       0       0       0       
      +0       0       0       0       0       0       0       0       0       0       0       0       0       0       0       
      +0       0       0       0       0       0       0       0       0       0
  7470 ;;      Temps:          4       0       0       0       0       0       0       0       0       0       0       0       
      +0       0       0       0       0       0       0       0       0       0       0       0       0       0       0       
      +0       0       0       0       0       0       0       0       0       0       0       0       0       0       0       
      +0       0       0       0       0       0       0       0       0       0
  7471 ;;      Totals:        10       0       0       0       0       0       0       0       0       0       0       0       
      +0       0       0       0       0       0       0       0       0       0       0       0       0       0       0       
      +0       0       0       0       0       0       0       0       0       0       0       0       0       0       0       
      +0       0       0       0       0       0       0       0       0       0
  7472 ;;Total ram usage:       10 bytes
  7473 ;; Hardware stack levels used: 1
  7474 ;; This function calls:
  7475 ;;		Nothing
  7476 ;; This function is called by:
  7477 ;;		_efgtoa
  7478 ;; This function uses a non-reentrant model
  7479 ;;
  7480                           
  7481     160B                     ___fltol:	
  7482                           ;psect for function ___fltol
  7483                           
  7484     160B                     l2507:	
  7485                           ;incstack = 0
  7486                           ; Regs used in ___fltol: [wreg+status,2+status,0]
  7487                           
  7488     160B  1003               	clrc
  7489     160C  0D72               	rlf	___fltol@f1+2,w
  7490     160D  0D73               	rlf	___fltol@f1+3,w
  7491     160E  00F9               	movwf	___fltol@exp1
  7492     160F  0879               	movf	___fltol@exp1,w
  7493     1610  1D03               	btfss	3,2
  7494     1611  2E13               	goto	u2821
  7495     1612  2E14               	goto	u2820
  7496     1613                     u2821:
  7497     1613  2E1D               	goto	l2513
  7498     1614                     u2820:
  7499     1614                     l2509:
  7500     1614  3000               	movlw	0
  7501     1615  00F3               	movwf	?___fltol+3
  7502     1616  3000               	movlw	0
  7503     1617  00F2               	movwf	?___fltol+2
  7504     1618  3000               	movlw	0
  7505     1619  00F1               	movwf	?___fltol+1
  7506     161A  3000               	movlw	0
  7507     161B  00F0               	movwf	?___fltol
  7508     161C  2E7A               	goto	l433
  7509     161D                     l2513:
  7510     161D  0870               	movf	___fltol@f1,w
  7511     161E  00F4               	movwf	??___fltol
  7512     161F  0871               	movf	___fltol@f1+1,w
  7513     1620  00F5               	movwf	??___fltol+1
  7514     1621  0872               	movf	___fltol@f1+2,w
  7515     1622  00F6               	movwf	??___fltol+2
  7516     1623  0873               	movf	___fltol@f1+3,w
  7517     1624  00F7               	movwf	??___fltol+3
  7518     1625  301F               	movlw	31
  7519     1626                     u2835:
  7520     1626  36F7               	lsrf	??___fltol+3,f
  7521     1627  0CF6               	rrf	??___fltol+2,f
  7522     1628  0CF5               	rrf	??___fltol+1,f
  7523     1629  0CF4               	rrf	??___fltol,f
  7524     162A                     u2830:
  7525     162A  0B89               	decfsz	9,f
  7526     162B  2E26               	goto	u2835
  7527     162C  0874               	movf	??___fltol,w
  7528     162D  00F8               	movwf	___fltol@sign1
  7529     162E                     l2515:
  7530     162E  17F2               	bsf	___fltol@f1+2,7
  7531     162F                     l2517:
  7532     162F  30FF               	movlw	255
  7533     1630  05F0               	andwf	___fltol@f1,f
  7534     1631  30FF               	movlw	255
  7535     1632  05F1               	andwf	___fltol@f1+1,f
  7536     1633  30FF               	movlw	255
  7537     1634  05F2               	andwf	___fltol@f1+2,f
  7538     1635  3000               	movlw	0
  7539     1636  05F3               	andwf	___fltol@f1+3,f
  7540     1637                     l2519:
  7541     1637  3096               	movlw	150
  7542     1638  02F9               	subwf	___fltol@exp1,f
  7543     1639                     l2521:
  7544     1639  1FF9               	btfss	___fltol@exp1,7
  7545     163A  2E3C               	goto	u2841
  7546     163B  2E3D               	goto	u2840
  7547     163C                     u2841:
  7548     163C  2E55               	goto	l2531
  7549     163D                     u2840:
  7550     163D                     l2523:
  7551     163D  0879               	movf	___fltol@exp1,w
  7552     163E  3A80               	xorlw	128
  7553     163F  3E97               	addlw	151
  7554     1640  1803               	skipnc
  7555     1641  2E43               	goto	u2851
  7556     1642  2E44               	goto	u2850
  7557     1643                     u2851:
  7558     1643  2E45               	goto	l2529
  7559     1644                     u2850:
  7560     1644  2E14               	goto	l2509
  7561     1645                     l2529:
  7562     1645  3001               	movlw	1
  7563     1646                     u2865:
  7564     1646  36F3               	lsrf	___fltol@f1+3,f
  7565     1647  0CF2               	rrf	___fltol@f1+2,f
  7566     1648  0CF1               	rrf	___fltol@f1+1,f
  7567     1649  0CF0               	rrf	___fltol@f1,f
  7568     164A  0B89               	decfsz	9,f
  7569     164B  2E46               	goto	u2865
  7570     164C  3001               	movlw	1
  7571     164D  00F4               	movwf	??___fltol
  7572     164E  0874               	movf	??___fltol,w
  7573     164F  07F9               	addwf	___fltol@exp1,f
  7574     1650  1D03               	btfss	3,2
  7575     1651  2E53               	goto	u2871
  7576     1652  2E54               	goto	u2870
  7577     1653                     u2871:
  7578     1653  2E45               	goto	l2529
  7579     1654                     u2870:
  7580     1654  2E6A               	goto	l2539
  7581     1655                     l2531:
  7582     1655  3020               	movlw	32
  7583     1656  0279               	subwf	___fltol@exp1,w
  7584     1657  1C03               	skipc
  7585     1658  2E5A               	goto	u2881
  7586     1659  2E5B               	goto	u2880
  7587     165A                     u2881:
  7588     165A  2E65               	goto	l440
  7589     165B                     u2880:
  7590     165B  2E14               	goto	l2509
  7591     165C                     l2537:
  7592     165C  3001               	movlw	1
  7593     165D                     u2895:
  7594     165D  35F0               	lslf	___fltol@f1,f
  7595     165E  0DF1               	rlf	___fltol@f1+1,f
  7596     165F  0DF2               	rlf	___fltol@f1+2,f
  7597     1660  0DF3               	rlf	___fltol@f1+3,f
  7598     1661  0B89               	decfsz	9,f
  7599     1662  2E5D               	goto	u2895
  7600     1663  3001               	movlw	1
  7601     1664  02F9               	subwf	___fltol@exp1,f
  7602     1665                     l440:
  7603     1665  0879               	movf	___fltol@exp1,w
  7604     1666  1D03               	btfss	3,2
  7605     1667  2E69               	goto	u2901
  7606     1668  2E6A               	goto	u2900
  7607     1669                     u2901:
  7608     1669  2E5C               	goto	l2537
  7609     166A                     u2900:
  7610     166A                     l2539:
  7611     166A  0878               	movf	___fltol@sign1,w
  7612     166B  1903               	btfsc	3,2
  7613     166C  2E6E               	goto	u2911
  7614     166D  2E6F               	goto	u2910
  7615     166E                     u2911:
  7616     166E  2E7A               	goto	l443
  7617     166F                     u2910:
  7618     166F                     l2541:
  7619     166F  09F0               	comf	___fltol@f1,f
  7620     1670  09F1               	comf	___fltol@f1+1,f
  7621     1671  09F2               	comf	___fltol@f1+2,f
  7622     1672  09F3               	comf	___fltol@f1+3,f
  7623     1673  0AF0               	incf	___fltol@f1,f
  7624     1674  1903               	skipnz
  7625     1675  0AF1               	incf	___fltol@f1+1,f
  7626     1676  1903               	skipnz
  7627     1677  0AF2               	incf	___fltol@f1+2,f
  7628     1678  1903               	skipnz
  7629     1679  0AF3               	incf	___fltol@f1+3,f
  7630     167A                     l443:
  7631     167A                     l433:
  7632     167A  0008               	return
  7633     167B                     __end_of___fltol:
  7634                           
  7635                           	psect	text25
  7636     132F                     __ptext25:	
  7637 ;; *************** function ___flsub *****************
  7638 ;; Defined at:
  7639 ;;		line 242 in file "C:\Program Files\Microchip\xc8\v2.41\pic\sources\c99\common\sprcadd.c"
  7640 ;; Parameters:    Size  Location     Type
  7641 ;;  a               4   21[BANK0 ] long 
  7642 ;;  b               4   25[BANK0 ] long 
  7643 ;; Auto vars:     Size  Location     Type
  7644 ;;		None
  7645 ;; Return value:  Size  Location     Type
  7646 ;;                  4   21[BANK0 ] long 
  7647 ;; Registers used:
  7648 ;;		wreg, status,2, status,0, pclath, cstack
  7649 ;; Tracked objects:
  7650 ;;		On entry : 0/0
  7651 ;;		On exit  : 0/0
  7652 ;;		Unchanged: 0/0
  7653 ;; Data sizes:     COMMON   BANK0   BANK1   BANK2   BANK3   BANK4   BANK5   BANK6   BANK7   BANK8   BANK9  BANK10  BANK1
      +1  BANK12  BANK13  BANK14  BANK15  BANK16  BANK17  BANK18  BANK19  BANK20  BANK21  BANK22  BANK23  BANK24  BANK25  BANK2
      +6  BANK27  BANK28  BANK29  BANK30  BANK31  BANK32  BANK33  BANK34  BANK35  BANK36  BANK37  BANK38  BANK39  BANK40  BANK4
      +1  BANK42  BANK43  BANK44  BANK45  BANK46  BANK47  BANK48  BANK49  BANK50
  7654 ;;      Params:         0       8       0       0       0       0       0       0       0       0       0       0       
      +0       0       0       0       0       0       0       0       0       0       0       0       0       0       0       
      +0       0       0       0       0       0       0       0       0       0       0       0       0       0       0       
      +0       0       0       0       0       0       0       0       0       0
  7655 ;;      Locals:         0       0       0       0       0       0       0       0       0       0       0       0       
      +0       0       0       0       0       0       0       0       0       0       0       0       0       0       0       
      +0       0       0       0       0       0       0       0       0       0       0       0       0       0       0       
      +0       0       0       0       0       0       0       0       0       0
  7656 ;;      Temps:          0       0       0       0       0       0       0       0       0       0       0       0       
      +0       0       0       0       0       0       0       0       0       0       0       0       0       0       0       
      +0       0       0       0       0       0       0       0       0       0       0       0       0       0       0       
      +0       0       0       0       0       0       0       0       0       0
  7657 ;;      Totals:         0       8       0       0       0       0       0       0       0       0       0       0       
      +0       0       0       0       0       0       0       0       0       0       0       0       0       0       0       
      +0       0       0       0       0       0       0       0       0       0       0       0       0       0       0       
      +0       0       0       0       0       0       0       0       0       0
  7658 ;;Total ram usage:        8 bytes
  7659 ;; Hardware stack levels used: 1
  7660 ;; Hardware stack levels required when called: 1
  7661 ;; This function calls:
  7662 ;;		___fladd
  7663 ;; This function is called by:
  7664 ;;		_efgtoa
  7665 ;; This function uses a non-reentrant model
  7666 ;;
  7667                           
  7668     132F                     ___flsub:	
  7669                           ;psect for function ___flsub
  7670                           
  7671     132F                     l2591:	
  7672                           ;incstack = 0
  7673                           ; Regs used in ___flsub: [wreg+status,2+status,0+pclath+cstack]
  7674                           
  7675     132F  3080               	movlw	128
  7676     1330  0140               	movlb	0	; select bank0
  7677     1331  06B8               	xorwf	___flsub@a+3,f
  7678     1332                     l2593:
  7679     1332  083C               	movf	___flsub@b+3,w
  7680     1333  00F3               	movwf	___fladd@b+3
  7681     1334  083B               	movf	___flsub@b+2,w
  7682     1335  00F2               	movwf	___fladd@b+2
  7683     1336  083A               	movf	___flsub@b+1,w
  7684     1337  00F1               	movwf	___fladd@b+1
  7685     1338  0839               	movf	___flsub@b,w
  7686     1339  00F0               	movwf	___fladd@b
  7687     133A  0838               	movf	___flsub@a+3,w
  7688     133B  00F7               	movwf	___fladd@a+3
  7689     133C  0837               	movf	___flsub@a+2,w
  7690     133D  00F6               	movwf	___fladd@a+2
  7691     133E  0836               	movf	___flsub@a+1,w
  7692     133F  00F5               	movwf	___fladd@a+1
  7693     1340  0835               	movf	___flsub@a,w
  7694     1341  00F4               	movwf	___fladd@a
  7695     1342  318B  23B9  3193   	fcall	___fladd
  7696     1345  0873               	movf	?___fladd+3,w
  7697     1346  0140               	movlb	0	; select bank0
  7698     1347  00B8               	movwf	?___flsub+3
  7699     1348  0872               	movf	?___fladd+2,w
  7700     1349  00B7               	movwf	?___flsub+2
  7701     134A  0871               	movf	?___fladd+1,w
  7702     134B  00B6               	movwf	?___flsub+1
  7703     134C  0870               	movf	?___fladd,w
  7704     134D  00B5               	movwf	?___flsub
  7705     134E                     l586:
  7706     134E  0008               	return
  7707     134F                     __end_of___flsub:
  7708                           
  7709                           	psect	text26
  7710     0BB9                     __ptext26:	
  7711 ;; *************** function ___fladd *****************
  7712 ;; Defined at:
  7713 ;;		line 10 in file "C:\Program Files\Microchip\xc8\v2.41\pic\sources\c99\common\sprcadd.c"
  7714 ;; Parameters:    Size  Location     Type
  7715 ;;  b               4    0[COMMON] long 
  7716 ;;  a               4    4[COMMON] long 
  7717 ;; Auto vars:     Size  Location     Type
  7718 ;;  grs             1   11[COMMON] unsigned char 
  7719 ;;  bexp            1   10[COMMON] unsigned char 
  7720 ;;  aexp            1    9[COMMON] unsigned char 
  7721 ;;  signs           1    8[COMMON] unsigned char 
  7722 ;; Return value:  Size  Location     Type
  7723 ;;                  4    0[COMMON] unsigned char 
  7724 ;; Registers used:
  7725 ;;		wreg, status,2, status,0
  7726 ;; Tracked objects:
  7727 ;;		On entry : 0/0
  7728 ;;		On exit  : 0/0
  7729 ;;		Unchanged: 0/0
  7730 ;; Data sizes:     COMMON   BANK0   BANK1   BANK2   BANK3   BANK4   BANK5   BANK6   BANK7   BANK8   BANK9  BANK10  BANK1
      +1  BANK12  BANK13  BANK14  BANK15  BANK16  BANK17  BANK18  BANK19  BANK20  BANK21  BANK22  BANK23  BANK24  BANK25  BANK2
      +6  BANK27  BANK28  BANK29  BANK30  BANK31  BANK32  BANK33  BANK34  BANK35  BANK36  BANK37  BANK38  BANK39  BANK40  BANK4
      +1  BANK42  BANK43  BANK44  BANK45  BANK46  BANK47  BANK48  BANK49  BANK50
  7731 ;;      Params:         8       0       0       0       0       0       0       0       0       0       0       0       
      +0       0       0       0       0       0       0       0       0       0       0       0       0       0       0       
      +0       0       0       0       0       0       0       0       0       0       0       0       0       0       0       
      +0       0       0       0       0       0       0       0       0       0
  7732 ;;      Locals:         4       0       0       0       0       0       0       0       0       0       0       0       
      +0       0       0       0       0       0       0       0       0       0       0       0       0       0       0       
      +0       0       0       0       0       0       0       0       0       0       0       0       0       0       0       
      +0       0       0       0       0       0       0       0       0       0
  7733 ;;      Temps:          0       8       0       0       0       0       0       0       0       0       0       0       
      +0       0       0       0       0       0       0       0       0       0       0       0       0       0       0       
      +0       0       0       0       0       0       0       0       0       0       0       0       0       0       0       
      +0       0       0       0       0       0       0       0       0       0
  7734 ;;      Totals:        12       8       0       0       0       0       0       0       0       0       0       0       
      +0       0       0       0       0       0       0       0       0       0       0       0       0       0       0       
      +0       0       0       0       0       0       0       0       0       0       0       0       0       0       0       
      +0       0       0       0       0       0       0       0       0       0
  7735 ;;Total ram usage:       20 bytes
  7736 ;; Hardware stack levels used: 1
  7737 ;; This function calls:
  7738 ;;		Nothing
  7739 ;; This function is called by:
  7740 ;;		___flsub
  7741 ;;		_efgtoa
  7742 ;;		_Display_Temperature
  7743 ;; This function uses a non-reentrant model
  7744 ;;
  7745                           
  7746     0BB9                     ___fladd:	
  7747                           ;psect for function ___fladd
  7748                           
  7749     0BB9                     l2237:	
  7750                           ;incstack = 0
  7751                           ; Regs used in ___fladd: [wreg+status,2+status,0]
  7752                           
  7753     0BB9  0873               	movf	___fladd@b+3,w
  7754     0BBA  3980               	andlw	128
  7755     0BBB  00F8               	movwf	___fladd@signs
  7756     0BBC                     l2239:
  7757     0BBC  3573               	lslf	___fladd@b+3,w
  7758     0BBD  00FA               	movwf	___fladd@bexp
  7759     0BBE                     l2241:
  7760     0BBE  1FF2               	btfss	___fladd@b+2,7
  7761     0BBF  2BC1               	goto	u2221
  7762     0BC0  2BC2               	goto	u2220
  7763     0BC1                     u2221:
  7764     0BC1  2BC3               	goto	l2245
  7765     0BC2                     u2220:
  7766     0BC2                     l2243:
  7767     0BC2  147A               	bsf	___fladd@bexp,0
  7768     0BC3                     l2245:
  7769     0BC3  087A               	movf	___fladd@bexp,w
  7770     0BC4  1903               	btfsc	3,2
  7771     0BC5  2BC7               	goto	u2231
  7772     0BC6  2BC8               	goto	u2230
  7773     0BC7                     u2231:
  7774     0BC7  2BD8               	goto	l2255
  7775     0BC8                     u2230:
  7776     0BC8                     l2247:
  7777     0BC8  0A7A               	incf	___fladd@bexp,w
  7778     0BC9  1D03               	btfss	3,2
  7779     0BCA  2BCC               	goto	u2241
  7780     0BCB  2BCD               	goto	u2240
  7781     0BCC                     u2241:
  7782     0BCC  2BD5               	goto	l2251
  7783     0BCD                     u2240:
  7784     0BCD                     l2249:
  7785     0BCD  3000               	movlw	0
  7786     0BCE  00F3               	movwf	___fladd@b+3
  7787     0BCF  3000               	movlw	0
  7788     0BD0  00F2               	movwf	___fladd@b+2
  7789     0BD1  3000               	movlw	0
  7790     0BD2  00F1               	movwf	___fladd@b+1
  7791     0BD3  3000               	movlw	0
  7792     0BD4  00F0               	movwf	___fladd@b
  7793     0BD5                     l2251:
  7794     0BD5  17F2               	bsf	___fladd@b+2,7
  7795     0BD6                     l2253:
  7796     0BD6  01F3               	clrf	___fladd@b+3
  7797     0BD7  2BE0               	goto	l2257
  7798     0BD8                     l2255:
  7799     0BD8  3000               	movlw	0
  7800     0BD9  00F3               	movwf	___fladd@b+3
  7801     0BDA  3000               	movlw	0
  7802     0BDB  00F2               	movwf	___fladd@b+2
  7803     0BDC  3000               	movlw	0
  7804     0BDD  00F1               	movwf	___fladd@b+1
  7805     0BDE  3000               	movlw	0
  7806     0BDF  00F0               	movwf	___fladd@b
  7807     0BE0                     l2257:
  7808     0BE0  0877               	movf	___fladd@a+3,w
  7809     0BE1  3980               	andlw	128
  7810     0BE2  00F9               	movwf	___fladd@aexp
  7811     0BE3                     l2259:
  7812     0BE3  0879               	movf	___fladd@aexp,w
  7813     0BE4  0678               	xorwf	___fladd@signs,w
  7814     0BE5  1903               	skipnz
  7815     0BE6  2BE8               	goto	u2251
  7816     0BE7  2BE9               	goto	u2250
  7817     0BE8                     u2251:
  7818     0BE8  2BEA               	goto	l2263
  7819     0BE9                     u2250:
  7820     0BE9                     l2261:
  7821     0BE9  1778               	bsf	___fladd@signs,6
  7822     0BEA                     l2263:
  7823     0BEA  3577               	lslf	___fladd@a+3,w
  7824     0BEB  00F9               	movwf	___fladd@aexp
  7825     0BEC                     l2265:
  7826     0BEC  1FF6               	btfss	___fladd@a+2,7
  7827     0BED  2BEF               	goto	u2261
  7828     0BEE  2BF0               	goto	u2260
  7829     0BEF                     u2261:
  7830     0BEF  2BF1               	goto	l2269
  7831     0BF0                     u2260:
  7832     0BF0                     l2267:
  7833     0BF0  1479               	bsf	___fladd@aexp,0
  7834     0BF1                     l2269:
  7835     0BF1  0879               	movf	___fladd@aexp,w
  7836     0BF2  1903               	btfsc	3,2
  7837     0BF3  2BF5               	goto	u2271
  7838     0BF4  2BF6               	goto	u2270
  7839     0BF5                     u2271:
  7840     0BF5  2C06               	goto	l2279
  7841     0BF6                     u2270:
  7842     0BF6                     l2271:
  7843     0BF6  0A79               	incf	___fladd@aexp,w
  7844     0BF7  1D03               	btfss	3,2
  7845     0BF8  2BFA               	goto	u2281
  7846     0BF9  2BFB               	goto	u2280
  7847     0BFA                     u2281:
  7848     0BFA  2C03               	goto	l2275
  7849     0BFB                     u2280:
  7850     0BFB                     l2273:
  7851     0BFB  3000               	movlw	0
  7852     0BFC  00F7               	movwf	___fladd@a+3
  7853     0BFD  3000               	movlw	0
  7854     0BFE  00F6               	movwf	___fladd@a+2
  7855     0BFF  3000               	movlw	0
  7856     0C00  00F5               	movwf	___fladd@a+1
  7857     0C01  3000               	movlw	0
  7858     0C02  00F4               	movwf	___fladd@a
  7859     0C03                     l2275:
  7860     0C03  17F6               	bsf	___fladd@a+2,7
  7861     0C04                     l2277:
  7862     0C04  01F7               	clrf	___fladd@a+3
  7863     0C05  2C0E               	goto	l540
  7864     0C06                     l2279:
  7865     0C06  3000               	movlw	0
  7866     0C07  00F7               	movwf	___fladd@a+3
  7867     0C08  3000               	movlw	0
  7868     0C09  00F6               	movwf	___fladd@a+2
  7869     0C0A  3000               	movlw	0
  7870     0C0B  00F5               	movwf	___fladd@a+1
  7871     0C0C  3000               	movlw	0
  7872     0C0D  00F4               	movwf	___fladd@a
  7873     0C0E                     l540:
  7874     0C0E  087A               	movf	___fladd@bexp,w
  7875     0C0F  0279               	subwf	___fladd@aexp,w
  7876     0C10  1803               	skipnc
  7877     0C11  2C13               	goto	u2291
  7878     0C12  2C14               	goto	u2290
  7879     0C13                     u2291:
  7880     0C13  2C3B               	goto	l2315
  7881     0C14                     u2290:
  7882     0C14                     l2281:
  7883     0C14  1F78               	btfss	___fladd@signs,6
  7884     0C15  2C17               	goto	u2301
  7885     0C16  2C18               	goto	u2300
  7886     0C17                     u2301:
  7887     0C17  2C1D               	goto	l2285
  7888     0C18                     u2300:
  7889     0C18                     l2283:
  7890     0C18  3080               	movlw	128
  7891     0C19  0140               	movlb	0	; select bank0
  7892     0C1A  00A0               	movwf	??___fladd
  7893     0C1B  0820               	movf	??___fladd,w
  7894     0C1C  06F8               	xorwf	___fladd@signs,f
  7895     0C1D                     l2285:
  7896     0C1D  087A               	movf	___fladd@bexp,w
  7897     0C1E  00FB               	movwf	___fladd@grs
  7898     0C1F                     l2287:
  7899     0C1F  0879               	movf	___fladd@aexp,w
  7900     0C20  00FA               	movwf	___fladd@bexp
  7901     0C21                     l2289:
  7902     0C21  087B               	movf	___fladd@grs,w
  7903     0C22  00F9               	movwf	___fladd@aexp
  7904     0C23                     l2291:
  7905     0C23  0870               	movf	___fladd@b,w
  7906     0C24  00FB               	movwf	___fladd@grs
  7907     0C25                     l2293:
  7908     0C25  0874               	movf	___fladd@a,w
  7909     0C26  00F0               	movwf	___fladd@b
  7910     0C27                     l2295:
  7911     0C27  087B               	movf	___fladd@grs,w
  7912     0C28  00F4               	movwf	___fladd@a
  7913     0C29                     l2297:
  7914     0C29  0871               	movf	___fladd@b+1,w
  7915     0C2A  00FB               	movwf	___fladd@grs
  7916     0C2B                     l2299:
  7917     0C2B  0875               	movf	___fladd@a+1,w
  7918     0C2C  00F1               	movwf	___fladd@b+1
  7919     0C2D                     l2301:
  7920     0C2D  087B               	movf	___fladd@grs,w
  7921     0C2E  00F5               	movwf	___fladd@a+1
  7922     0C2F                     l2303:
  7923     0C2F  0872               	movf	___fladd@b+2,w
  7924     0C30  00FB               	movwf	___fladd@grs
  7925     0C31                     l2305:
  7926     0C31  0876               	movf	___fladd@a+2,w
  7927     0C32  00F2               	movwf	___fladd@b+2
  7928     0C33                     l2307:
  7929     0C33  087B               	movf	___fladd@grs,w
  7930     0C34  00F6               	movwf	___fladd@a+2
  7931     0C35                     l2309:
  7932     0C35  0873               	movf	___fladd@b+3,w
  7933     0C36  00FB               	movwf	___fladd@grs
  7934     0C37                     l2311:
  7935     0C37  0877               	movf	___fladd@a+3,w
  7936     0C38  00F3               	movwf	___fladd@b+3
  7937     0C39                     l2313:
  7938     0C39  087B               	movf	___fladd@grs,w
  7939     0C3A  00F7               	movwf	___fladd@a+3
  7940     0C3B                     l2315:
  7941     0C3B  01FB               	clrf	___fladd@grs
  7942     0C3C                     l2317:
  7943     0C3C  0879               	movf	___fladd@aexp,w
  7944     0C3D  0140               	movlb	0	; select bank0
  7945     0C3E  00A0               	movwf	??___fladd
  7946     0C3F  01A1               	clrf	??___fladd+1
  7947     0C40  0821               	movf	??___fladd+1,w
  7948     0C41  00A3               	movwf	??___fladd+3
  7949     0C42  087A               	movf	___fladd@bexp,w
  7950     0C43  0220               	subwf	??___fladd,w
  7951     0C44  00A2               	movwf	??___fladd+2
  7952     0C45  1C03               	skipc
  7953     0C46  03A3               	decf	??___fladd+3,f
  7954     0C47  0823               	movf	??___fladd+3,w
  7955     0C48  3A80               	xorlw	128
  7956     0C49  00A4               	movwf	??___fladd+4
  7957     0C4A  3080               	movlw	128
  7958     0C4B  0224               	subwf	??___fladd+4,w
  7959     0C4C  1D03               	skipz
  7960     0C4D  2C50               	goto	u2315
  7961     0C4E  301A               	movlw	26
  7962     0C4F  0222               	subwf	??___fladd+2,w
  7963     0C50                     u2315:
  7964     0C50  1C03               	skipc
  7965     0C51  2C53               	goto	u2311
  7966     0C52  2C54               	goto	u2310
  7967     0C53                     u2311:
  7968     0C53  2C86               	goto	l2333
  7969     0C54                     u2310:
  7970     0C54                     l2319:
  7971     0C54  0873               	movf	___fladd@b+3,w
  7972     0C55  0472               	iorwf	___fladd@b+2,w
  7973     0C56  0471               	iorwf	___fladd@b+1,w
  7974     0C57  0470               	iorwf	___fladd@b,w
  7975     0C58  1D03               	skipz
  7976     0C59  2C5B               	goto	u2321
  7977     0C5A  2C5D               	goto	u2320
  7978     0C5B                     u2321:
  7979     0C5B  3001               	movlw	1
  7980     0C5C  2C5E               	goto	u2330
  7981     0C5D                     u2320:
  7982     0C5D  3000               	movlw	0
  7983     0C5E                     u2330:
  7984     0C5E  00FB               	movwf	___fladd@grs
  7985     0C5F  3000               	movlw	0
  7986     0C60  00F3               	movwf	___fladd@b+3
  7987     0C61  3000               	movlw	0
  7988     0C62  00F2               	movwf	___fladd@b+2
  7989     0C63  3000               	movlw	0
  7990     0C64  00F1               	movwf	___fladd@b+1
  7991     0C65  3000               	movlw	0
  7992     0C66  00F0               	movwf	___fladd@b
  7993     0C67  0879               	movf	___fladd@aexp,w
  7994     0C68  00FA               	movwf	___fladd@bexp
  7995     0C69  2C8C               	goto	l544
  7996     0C6A                     l546:
  7997     0C6A  1C7B               	btfss	___fladd@grs,0
  7998     0C6B  2C6D               	goto	u2341
  7999     0C6C  2C6E               	goto	u2340
  8000     0C6D                     u2341:
  8001     0C6D  2C72               	goto	l2323
  8002     0C6E                     u2340:
  8003     0C6E                     l2321:
  8004     0C6E  367B               	lsrf	___fladd@grs,w
  8005     0C6F  3801               	iorlw	1
  8006     0C70  00FB               	movwf	___fladd@grs
  8007     0C71  2C74               	goto	l2325
  8008     0C72                     l2323:
  8009     0C72  1003               	clrc
  8010     0C73  0CFB               	rrf	___fladd@grs,f
  8011     0C74                     l2325:
  8012     0C74  1C70               	btfss	___fladd@b,0
  8013     0C75  2C77               	goto	u2351
  8014     0C76  2C78               	goto	u2350
  8015     0C77                     u2351:
  8016     0C77  2C79               	goto	l2329
  8017     0C78                     u2350:
  8018     0C78                     l2327:
  8019     0C78  17FB               	bsf	___fladd@grs,7
  8020     0C79                     l2329:
  8021     0C79  3001               	movlw	1
  8022     0C7A  0140               	movlb	0	; select bank0
  8023     0C7B  00A0               	movwf	??___fladd
  8024     0C7C                     u2365:
  8025     0C7C  37F3               	asrf	___fladd@b+3,f
  8026     0C7D  0CF2               	rrf	___fladd@b+2,f
  8027     0C7E  0CF1               	rrf	___fladd@b+1,f
  8028     0C7F  0CF0               	rrf	___fladd@b,f
  8029     0C80  0BA0               	decfsz	??___fladd& (0+127),f
  8030     0C81  2C7C               	goto	u2365
  8031     0C82                     l2331:
  8032     0C82  3001               	movlw	1
  8033     0C83  00A0               	movwf	??___fladd
  8034     0C84  0820               	movf	??___fladd,w
  8035     0C85  07FA               	addwf	___fladd@bexp,f
  8036     0C86                     l2333:
  8037     0C86  0879               	movf	___fladd@aexp,w
  8038     0C87  027A               	subwf	___fladd@bexp,w
  8039     0C88  1C03               	skipc
  8040     0C89  2C8B               	goto	u2371
  8041     0C8A  2C8C               	goto	u2370
  8042     0C8B                     u2371:
  8043     0C8B  2C6A               	goto	l546
  8044     0C8C                     u2370:
  8045     0C8C                     l544:
  8046     0C8C  1B78               	btfsc	___fladd@signs,6
  8047     0C8D  2C8F               	goto	u2381
  8048     0C8E  2C90               	goto	u2380
  8049     0C8F                     u2381:
  8050     0C8F  2CC7               	goto	l2359
  8051     0C90                     u2380:
  8052     0C90                     l2335:
  8053     0C90  087A               	movf	___fladd@bexp,w
  8054     0C91  1D03               	btfss	3,2
  8055     0C92  2C94               	goto	u2391
  8056     0C93  2C95               	goto	u2390
  8057     0C94                     u2391:
  8058     0C94  2C9E               	goto	l2341
  8059     0C95                     u2390:
  8060     0C95                     l2337:
  8061     0C95  3000               	movlw	0
  8062     0C96  00F3               	movwf	?___fladd+3
  8063     0C97  3000               	movlw	0
  8064     0C98  00F2               	movwf	?___fladd+2
  8065     0C99  3000               	movlw	0
  8066     0C9A  00F1               	movwf	?___fladd+1
  8067     0C9B  3000               	movlw	0
  8068     0C9C  00F0               	movwf	?___fladd
  8069     0C9D  2DC4               	goto	l553
  8070     0C9E                     l2341:
  8071     0C9E  0874               	movf	___fladd@a,w
  8072     0C9F  07F0               	addwf	___fladd@b,f
  8073     0CA0  0875               	movf	___fladd@a+1,w
  8074     0CA1  3DF1               	addwfc	___fladd@b+1,f
  8075     0CA2  0876               	movf	___fladd@a+2,w
  8076     0CA3  3DF2               	addwfc	___fladd@b+2,f
  8077     0CA4  0877               	movf	___fladd@a+3,w
  8078     0CA5  3DF3               	addwfc	___fladd@b+3,f
  8079     0CA6                     l2343:
  8080     0CA6  1C73               	btfss	___fladd@b+3,0
  8081     0CA7  2CA9               	goto	u2401
  8082     0CA8  2CAA               	goto	u2400
  8083     0CA9                     u2401:
  8084     0CA9  2D54               	goto	l2393
  8085     0CAA                     u2400:
  8086     0CAA                     l2345:
  8087     0CAA  1C7B               	btfss	___fladd@grs,0
  8088     0CAB  2CAD               	goto	u2411
  8089     0CAC  2CAE               	goto	u2410
  8090     0CAD                     u2411:
  8091     0CAD  2CB2               	goto	l2349
  8092     0CAE                     u2410:
  8093     0CAE                     l2347:
  8094     0CAE  367B               	lsrf	___fladd@grs,w
  8095     0CAF  3801               	iorlw	1
  8096     0CB0  00FB               	movwf	___fladd@grs
  8097     0CB1  2CB4               	goto	l2351
  8098     0CB2                     l2349:
  8099     0CB2  1003               	clrc
  8100     0CB3  0CFB               	rrf	___fladd@grs,f
  8101     0CB4                     l2351:
  8102     0CB4  1C70               	btfss	___fladd@b,0
  8103     0CB5  2CB7               	goto	u2421
  8104     0CB6  2CB8               	goto	u2420
  8105     0CB7                     u2421:
  8106     0CB7  2CB9               	goto	l2355
  8107     0CB8                     u2420:
  8108     0CB8                     l2353:
  8109     0CB8  17FB               	bsf	___fladd@grs,7
  8110     0CB9                     l2355:
  8111     0CB9  3001               	movlw	1
  8112     0CBA  0140               	movlb	0	; select bank0
  8113     0CBB  00A0               	movwf	??___fladd
  8114     0CBC                     u2435:
  8115     0CBC  37F3               	asrf	___fladd@b+3,f
  8116     0CBD  0CF2               	rrf	___fladd@b+2,f
  8117     0CBE  0CF1               	rrf	___fladd@b+1,f
  8118     0CBF  0CF0               	rrf	___fladd@b,f
  8119     0CC0  0BA0               	decfsz	??___fladd& (0+127),f
  8120     0CC1  2CBC               	goto	u2435
  8121     0CC2                     l2357:
  8122     0CC2  3001               	movlw	1
  8123     0CC3  00A0               	movwf	??___fladd
  8124     0CC4  0820               	movf	??___fladd,w
  8125     0CC5  07FA               	addwf	___fladd@bexp,f
  8126     0CC6  2D54               	goto	l2393
  8127     0CC7                     l2359:
  8128     0CC7  0873               	movf	___fladd@b+3,w
  8129     0CC8  3A80               	xorlw	128
  8130     0CC9  0140               	movlb	0	; select bank0
  8131     0CCA  00A0               	movwf	??___fladd
  8132     0CCB  0877               	movf	___fladd@a+3,w
  8133     0CCC  3A80               	xorlw	128
  8134     0CCD  0220               	subwf	??___fladd,w
  8135     0CCE  1D03               	skipz
  8136     0CCF  2CDA               	goto	u2443
  8137     0CD0  0876               	movf	___fladd@a+2,w
  8138     0CD1  0272               	subwf	___fladd@b+2,w
  8139     0CD2  1D03               	skipz
  8140     0CD3  2CDA               	goto	u2443
  8141     0CD4  0875               	movf	___fladd@a+1,w
  8142     0CD5  0271               	subwf	___fladd@b+1,w
  8143     0CD6  1D03               	skipz
  8144     0CD7  2CDA               	goto	u2443
  8145     0CD8  0874               	movf	___fladd@a,w
  8146     0CD9  0270               	subwf	___fladd@b,w
  8147     0CDA                     u2443:
  8148     0CDA  1803               	skipnc
  8149     0CDB  2CDD               	goto	u2441
  8150     0CDC  2CDE               	goto	u2440
  8151     0CDD                     u2441:
  8152     0CDD  2D16               	goto	l2369
  8153     0CDE                     u2440:
  8154     0CDE                     l2361:
  8155     0CDE  30FF               	movlw	255
  8156     0CDF  00A0               	movwf	??___fladd
  8157     0CE0  30FF               	movlw	255
  8158     0CE1  00A1               	movwf	??___fladd+1
  8159     0CE2  30FF               	movlw	255
  8160     0CE3  00A2               	movwf	??___fladd+2
  8161     0CE4  30FF               	movlw	255
  8162     0CE5  00A3               	movwf	??___fladd+3
  8163     0CE6  0870               	movf	___fladd@b,w
  8164     0CE7  0274               	subwf	___fladd@a,w
  8165     0CE8  00A4               	movwf	??___fladd+4
  8166     0CE9  0871               	movf	___fladd@b+1,w
  8167     0CEA  3B75               	subwfb	___fladd@a+1,w
  8168     0CEB  00A5               	movwf	??___fladd+5
  8169     0CEC  0872               	movf	___fladd@b+2,w
  8170     0CED  3B76               	subwfb	___fladd@a+2,w
  8171     0CEE  00A6               	movwf	??___fladd+6
  8172     0CEF  0873               	movf	___fladd@b+3,w
  8173     0CF0  3B77               	subwfb	___fladd@a+3,w
  8174     0CF1  00A7               	movwf	??___fladd+7
  8175     0CF2  0824               	movf	??___fladd+4,w
  8176     0CF3  07A0               	addwf	??___fladd,f
  8177     0CF4  0825               	movf	??___fladd+5,w
  8178     0CF5  3DA1               	addwfc	??___fladd+1,f
  8179     0CF6  0826               	movf	??___fladd+6,w
  8180     0CF7  3DA2               	addwfc	??___fladd+2,f
  8181     0CF8  0827               	movf	??___fladd+7,w
  8182     0CF9  3DA3               	addwfc	??___fladd+3,f
  8183     0CFA  0823               	movf	??___fladd+3,w
  8184     0CFB  00F3               	movwf	___fladd@b+3
  8185     0CFC  0822               	movf	??___fladd+2,w
  8186     0CFD  00F2               	movwf	___fladd@b+2
  8187     0CFE  0821               	movf	??___fladd+1,w
  8188     0CFF  00F1               	movwf	___fladd@b+1
  8189     0D00  0820               	movf	??___fladd,w
  8190     0D01  00F0               	movwf	___fladd@b
  8191     0D02                     l2363:
  8192     0D02  3080               	movlw	128
  8193     0D03  00A0               	movwf	??___fladd
  8194     0D04  0820               	movf	??___fladd,w
  8195     0D05  06F8               	xorwf	___fladd@signs,f
  8196     0D06  09FB               	comf	___fladd@grs,f
  8197     0D07  0AFB               	incf	___fladd@grs,f
  8198     0D08                     l2365:
  8199     0D08  087B               	movf	___fladd@grs,w
  8200     0D09  1D03               	btfss	3,2
  8201     0D0A  2D0C               	goto	u2451
  8202     0D0B  2D0D               	goto	u2450
  8203     0D0C                     u2451:
  8204     0D0C  2D1E               	goto	l561
  8205     0D0D                     u2450:
  8206     0D0D                     l2367:
  8207     0D0D  3001               	movlw	1
  8208     0D0E  07F0               	addwf	___fladd@b,f
  8209     0D0F  3000               	movlw	0
  8210     0D10  3DF1               	addwfc	___fladd@b+1,f
  8211     0D11  3000               	movlw	0
  8212     0D12  3DF2               	addwfc	___fladd@b+2,f
  8213     0D13  3000               	movlw	0
  8214     0D14  3DF3               	addwfc	___fladd@b+3,f
  8215     0D15  2D1E               	goto	l561
  8216     0D16                     l2369:
  8217     0D16  0874               	movf	___fladd@a,w
  8218     0D17  02F0               	subwf	___fladd@b,f
  8219     0D18  0875               	movf	___fladd@a+1,w
  8220     0D19  3BF1               	subwfb	___fladd@b+1,f
  8221     0D1A  0876               	movf	___fladd@a+2,w
  8222     0D1B  3BF2               	subwfb	___fladd@b+2,f
  8223     0D1C  0877               	movf	___fladd@a+3,w
  8224     0D1D  3BF3               	subwfb	___fladd@b+3,f
  8225     0D1E                     l561:
  8226     0D1E  0873               	movf	___fladd@b+3,w
  8227     0D1F  0472               	iorwf	___fladd@b+2,w
  8228     0D20  0471               	iorwf	___fladd@b+1,w
  8229     0D21  0470               	iorwf	___fladd@b,w
  8230     0D22  1D03               	skipz
  8231     0D23  2D25               	goto	u2461
  8232     0D24  2D26               	goto	u2460
  8233     0D25                     u2461:
  8234     0D25  2D50               	goto	l2391
  8235     0D26                     u2460:
  8236     0D26                     l2371:
  8237     0D26  087B               	movf	___fladd@grs,w
  8238     0D27  1D03               	btfss	3,2
  8239     0D28  2D2A               	goto	u2471
  8240     0D29  2D2B               	goto	u2470
  8241     0D2A                     u2471:
  8242     0D2A  2D50               	goto	l2391
  8243     0D2B                     u2470:
  8244     0D2B                     l2373:
  8245     0D2B  3000               	movlw	0
  8246     0D2C  00F3               	movwf	?___fladd+3
  8247     0D2D  3000               	movlw	0
  8248     0D2E  00F2               	movwf	?___fladd+2
  8249     0D2F  3000               	movlw	0
  8250     0D30  00F1               	movwf	?___fladd+1
  8251     0D31  3000               	movlw	0
  8252     0D32  00F0               	movwf	?___fladd
  8253     0D33  2DC4               	goto	l553
  8254     0D34                     l2377:
  8255     0D34  3001               	movlw	1
  8256     0D35                     u2485:
  8257     0D35  35F0               	lslf	___fladd@b,f
  8258     0D36  0DF1               	rlf	___fladd@b+1,f
  8259     0D37  0DF2               	rlf	___fladd@b+2,f
  8260     0D38  0DF3               	rlf	___fladd@b+3,f
  8261     0D39  0B89               	decfsz	9,f
  8262     0D3A  2D35               	goto	u2485
  8263     0D3B                     l2379:
  8264     0D3B  1FFB               	btfss	___fladd@grs,7
  8265     0D3C  2D3E               	goto	u2491
  8266     0D3D  2D3F               	goto	u2490
  8267     0D3E                     u2491:
  8268     0D3E  2D40               	goto	l565
  8269     0D3F                     u2490:
  8270     0D3F                     l2381:
  8271     0D3F  1470               	bsf	___fladd@b,0
  8272     0D40                     l565:
  8273     0D40  1C7B               	btfss	___fladd@grs,0
  8274     0D41  2D43               	goto	u2501
  8275     0D42  2D44               	goto	u2500
  8276     0D43                     u2501:
  8277     0D43  2D47               	goto	l2385
  8278     0D44                     u2500:
  8279     0D44                     l2383:
  8280     0D44  1403               	setc
  8281     0D45  0DFB               	rlf	___fladd@grs,f
  8282     0D46  2D49               	goto	l2387
  8283     0D47                     l2385:
  8284     0D47  1003               	clrc
  8285     0D48  0DFB               	rlf	___fladd@grs,f
  8286     0D49                     l2387:
  8287     0D49  087A               	movf	___fladd@bexp,w
  8288     0D4A  1903               	btfsc	3,2
  8289     0D4B  2D4D               	goto	u2511
  8290     0D4C  2D4E               	goto	u2510
  8291     0D4D                     u2511:
  8292     0D4D  2D50               	goto	l2391
  8293     0D4E                     u2510:
  8294     0D4E                     l2389:
  8295     0D4E  3001               	movlw	1
  8296     0D4F  02FA               	subwf	___fladd@bexp,f
  8297     0D50                     l2391:
  8298     0D50  1FF2               	btfss	___fladd@b+2,7
  8299     0D51  2D53               	goto	u2521
  8300     0D52  2D54               	goto	u2520
  8301     0D53                     u2521:
  8302     0D53  2D34               	goto	l2377
  8303     0D54                     u2520:
  8304     0D54                     l2393:
  8305     0D54  01F9               	clrf	___fladd@aexp
  8306     0D55                     l2395:
  8307     0D55  1FFB               	btfss	___fladd@grs,7
  8308     0D56  2D58               	goto	u2531
  8309     0D57  2D59               	goto	u2530
  8310     0D58                     u2531:
  8311     0D58  2D67               	goto	l2403
  8312     0D59                     u2530:
  8313     0D59                     l2397:
  8314     0D59  087B               	movf	___fladd@grs,w
  8315     0D5A  397F               	andlw	127
  8316     0D5B  1903               	btfsc	3,2
  8317     0D5C  2D5E               	goto	u2541
  8318     0D5D  2D5F               	goto	u2540
  8319     0D5E                     u2541:
  8320     0D5E  2D62               	goto	l571
  8321     0D5F                     u2540:
  8322     0D5F                     l2399:
  8323     0D5F  01F9               	clrf	___fladd@aexp
  8324     0D60  0AF9               	incf	___fladd@aexp,f
  8325     0D61  2D67               	goto	l2403
  8326     0D62                     l571:
  8327     0D62  1C70               	btfss	___fladd@b,0
  8328     0D63  2D65               	goto	u2551
  8329     0D64  2D66               	goto	u2550
  8330     0D65                     u2551:
  8331     0D65  2D67               	goto	l2403
  8332     0D66                     u2550:
  8333     0D66  2D5F               	goto	l2399
  8334     0D67                     l2403:
  8335     0D67  0879               	movf	___fladd@aexp,w
  8336     0D68  1903               	btfsc	3,2
  8337     0D69  2D6B               	goto	u2561
  8338     0D6A  2D6C               	goto	u2560
  8339     0D6B                     u2561:
  8340     0D6B  2D9A               	goto	l574
  8341     0D6C                     u2560:
  8342     0D6C                     l2405:
  8343     0D6C  3001               	movlw	1
  8344     0D6D  07F0               	addwf	___fladd@b,f
  8345     0D6E  3000               	movlw	0
  8346     0D6F  3DF1               	addwfc	___fladd@b+1,f
  8347     0D70  3000               	movlw	0
  8348     0D71  3DF2               	addwfc	___fladd@b+2,f
  8349     0D72  3000               	movlw	0
  8350     0D73  3DF3               	addwfc	___fladd@b+3,f
  8351     0D74                     l2407:
  8352     0D74  1C73               	btfss	___fladd@b+3,0
  8353     0D75  2D77               	goto	u2571
  8354     0D76  2D78               	goto	u2570
  8355     0D77                     u2571:
  8356     0D77  2D9A               	goto	l574
  8357     0D78                     u2570:
  8358     0D78                     l2409:
  8359     0D78  0870               	movf	___fladd@b,w
  8360     0D79  0140               	movlb	0	; select bank0
  8361     0D7A  00A0               	movwf	??___fladd
  8362     0D7B  0871               	movf	___fladd@b+1,w
  8363     0D7C  00A1               	movwf	??___fladd+1
  8364     0D7D  0872               	movf	___fladd@b+2,w
  8365     0D7E  00A2               	movwf	??___fladd+2
  8366     0D7F  0873               	movf	___fladd@b+3,w
  8367     0D80  00A3               	movwf	??___fladd+3
  8368     0D81  3001               	movlw	1
  8369     0D82  00A4               	movwf	??___fladd+4
  8370     0D83                     u2585:
  8371     0D83  37A3               	asrf	??___fladd+3,f
  8372     0D84  0CA2               	rrf	??___fladd+2,f
  8373     0D85  0CA1               	rrf	??___fladd+1,f
  8374     0D86  0CA0               	rrf	??___fladd,f
  8375     0D87                     u2580:
  8376     0D87  0BA4               	decfsz	??___fladd+4,f
  8377     0D88  2D83               	goto	u2585
  8378     0D89  0823               	movf	??___fladd+3,w
  8379     0D8A  00F3               	movwf	___fladd@b+3
  8380     0D8B  0822               	movf	??___fladd+2,w
  8381     0D8C  00F2               	movwf	___fladd@b+2
  8382     0D8D  0821               	movf	??___fladd+1,w
  8383     0D8E  00F1               	movwf	___fladd@b+1
  8384     0D8F  0820               	movf	??___fladd,w
  8385     0D90  00F0               	movwf	___fladd@b
  8386     0D91  0A7A               	incf	___fladd@bexp,w
  8387     0D92  1903               	btfsc	3,2
  8388     0D93  2D95               	goto	u2591
  8389     0D94  2D96               	goto	u2590
  8390     0D95                     u2591:
  8391     0D95  2D9A               	goto	l574
  8392     0D96                     u2590:
  8393     0D96                     l2411:
  8394     0D96  3001               	movlw	1
  8395     0D97  00A0               	movwf	??___fladd
  8396     0D98  0820               	movf	??___fladd,w
  8397     0D99  07FA               	addwf	___fladd@bexp,f
  8398     0D9A                     l574:
  8399     0D9A  0A7A               	incf	___fladd@bexp,w
  8400     0D9B  1903               	btfsc	3,2
  8401     0D9C  2D9E               	goto	u2601
  8402     0D9D  2D9F               	goto	u2600
  8403     0D9E                     u2601:
  8404     0D9E  2DA4               	goto	l2415
  8405     0D9F                     u2600:
  8406     0D9F                     l2413:
  8407     0D9F  087A               	movf	___fladd@bexp,w
  8408     0DA0  1D03               	btfss	3,2
  8409     0DA1  2DA3               	goto	u2611
  8410     0DA2  2DA4               	goto	u2610
  8411     0DA3                     u2611:
  8412     0DA3  2DB2               	goto	l2421
  8413     0DA4                     u2610:
  8414     0DA4                     l2415:
  8415     0DA4  3000               	movlw	0
  8416     0DA5  00F3               	movwf	___fladd@b+3
  8417     0DA6  3000               	movlw	0
  8418     0DA7  00F2               	movwf	___fladd@b+2
  8419     0DA8  3000               	movlw	0
  8420     0DA9  00F1               	movwf	___fladd@b+1
  8421     0DAA  3000               	movlw	0
  8422     0DAB  00F0               	movwf	___fladd@b
  8423     0DAC                     l2417:
  8424     0DAC  087A               	movf	___fladd@bexp,w
  8425     0DAD  1D03               	btfss	3,2
  8426     0DAE  2DB0               	goto	u2621
  8427     0DAF  2DB1               	goto	u2620
  8428     0DB0                     u2621:
  8429     0DB0  2DB2               	goto	l2421
  8430     0DB1                     u2620:
  8431     0DB1                     l2419:
  8432     0DB1  01F8               	clrf	___fladd@signs
  8433     0DB2                     l2421:
  8434     0DB2  1C7A               	btfss	___fladd@bexp,0
  8435     0DB3  2DB5               	goto	u2631
  8436     0DB4  2DB6               	goto	u2630
  8437     0DB5                     u2631:
  8438     0DB5  2DB8               	goto	l2425
  8439     0DB6                     u2630:
  8440     0DB6                     l2423:
  8441     0DB6  17F2               	bsf	___fladd@b+2,7
  8442     0DB7  2DBD               	goto	l582
  8443     0DB8                     l2425:
  8444     0DB8  307F               	movlw	127
  8445     0DB9  0140               	movlb	0	; select bank0
  8446     0DBA  00A0               	movwf	??___fladd
  8447     0DBB  0820               	movf	??___fladd,w
  8448     0DBC  05F2               	andwf	___fladd@b+2,f
  8449     0DBD                     l582:
  8450     0DBD  367A               	lsrf	___fladd@bexp,w
  8451     0DBE  00F3               	movwf	___fladd@b+3
  8452     0DBF                     l2427:
  8453     0DBF  1FF8               	btfss	___fladd@signs,7
  8454     0DC0  2DC2               	goto	u2641
  8455     0DC1  2DC3               	goto	u2640
  8456     0DC2                     u2641:
  8457     0DC2  2DC4               	goto	l583
  8458     0DC3                     u2640:
  8459     0DC3                     l2429:
  8460     0DC3  17F3               	bsf	___fladd@b+3,7
  8461     0DC4                     l583:
  8462     0DC4                     l553:
  8463     0DC4  0008               	return
  8464     0DC5                     __end_of___fladd:
  8465                           
  8466                           	psect	text27
  8467     1290                     __ptext27:	
  8468 ;; *************** function ___flneg *****************
  8469 ;; Defined at:
  8470 ;;		line 15 in file "C:\Program Files\Microchip\xc8\v2.41\pic\sources\c99\common\flneg.c"
  8471 ;; Parameters:    Size  Location     Type
  8472 ;;  f1              4    0[COMMON] unsigned char 
  8473 ;; Auto vars:     Size  Location     Type
  8474 ;;		None
  8475 ;; Return value:  Size  Location     Type
  8476 ;;                  4    0[COMMON] unsigned char 
  8477 ;; Registers used:
  8478 ;;		wreg
  8479 ;; Tracked objects:
  8480 ;;		On entry : 0/0
  8481 ;;		On exit  : 0/0
  8482 ;;		Unchanged: 0/0
  8483 ;; Data sizes:     COMMON   BANK0   BANK1   BANK2   BANK3   BANK4   BANK5   BANK6   BANK7   BANK8   BANK9  BANK10  BANK1
      +1  BANK12  BANK13  BANK14  BANK15  BANK16  BANK17  BANK18  BANK19  BANK20  BANK21  BANK22  BANK23  BANK24  BANK25  BANK2
      +6  BANK27  BANK28  BANK29  BANK30  BANK31  BANK32  BANK33  BANK34  BANK35  BANK36  BANK37  BANK38  BANK39  BANK40  BANK4
      +1  BANK42  BANK43  BANK44  BANK45  BANK46  BANK47  BANK48  BANK49  BANK50
  8484 ;;      Params:         4       0       0       0       0       0       0       0       0       0       0       0       
      +0       0       0       0       0       0       0       0       0       0       0       0       0       0       0       
      +0       0       0       0       0       0       0       0       0       0       0       0       0       0       0       
      +0       0       0       0       0       0       0       0       0       0
  8485 ;;      Locals:         0       0       0       0       0       0       0       0       0       0       0       0       
      +0       0       0       0       0       0       0       0       0       0       0       0       0       0       0       
      +0       0       0       0       0       0       0       0       0       0       0       0       0       0       0       
      +0       0       0       0       0       0       0       0       0       0
  8486 ;;      Temps:          0       0       0       0       0       0       0       0       0       0       0       0       
      +0       0       0       0       0       0       0       0       0       0       0       0       0       0       0       
      +0       0       0       0       0       0       0       0       0       0       0       0       0       0       0       
      +0       0       0       0       0       0       0       0       0       0
  8487 ;;      Totals:         4       0       0       0       0       0       0       0       0       0       0       0       
      +0       0       0       0       0       0       0       0       0       0       0       0       0       0       0       
      +0       0       0       0       0       0       0       0       0       0       0       0       0       0       0       
      +0       0       0       0       0       0       0       0       0       0
  8488 ;;Total ram usage:        4 bytes
  8489 ;; Hardware stack levels used: 1
  8490 ;; This function calls:
  8491 ;;		Nothing
  8492 ;; This function is called by:
  8493 ;;		_efgtoa
  8494 ;; This function uses a non-reentrant model
  8495 ;;
  8496                           
  8497     1290                     ___flneg:	
  8498                           ;psect for function ___flneg
  8499                           
  8500     1290                     l2499:	
  8501                           ;incstack = 0
  8502                           ; Regs used in ___flneg: [wreg]
  8503                           
  8504     1290  0873               	movf	___flneg@f1+3,w
  8505     1291  0472               	iorwf	___flneg@f1+2,w
  8506     1292  0471               	iorwf	___flneg@f1+1,w
  8507     1293  0470               	iorwf	___flneg@f1,w
  8508     1294  1903               	skipnz
  8509     1295  2A97               	goto	u2811
  8510     1296  2A98               	goto	u2810
  8511     1297                     u2811:
  8512     1297  2A9A               	goto	l2503
  8513     1298                     u2810:
  8514     1298                     l2501:
  8515     1298  3080               	movlw	128
  8516     1299  06F3               	xorwf	___flneg@f1+3,f
  8517     129A                     l2503:
  8518     129A                     l429:
  8519     129A  0008               	return
  8520     129B                     __end_of___flneg:
  8521                           
  8522                           	psect	text28
  8523     0DC5                     __ptext28:	
  8524 ;; *************** function ___flmul *****************
  8525 ;; Defined at:
  8526 ;;		line 8 in file "C:\Program Files\Microchip\xc8\v2.41\pic\sources\c99\common\sprcmul.c"
  8527 ;; Parameters:    Size  Location     Type
  8528 ;;  b               4    0[BANK0 ] unsigned char 
  8529 ;;  a               4    4[BANK0 ] unsigned char 
  8530 ;; Auto vars:     Size  Location     Type
  8531 ;;  prod            4   15[BANK0 ] struct .
  8532 ;;  grs             4    9[BANK0 ] unsigned long 
  8533 ;;  temp            2   19[BANK0 ] struct .
  8534 ;;  bexp            1   14[BANK0 ] unsigned char 
  8535 ;;  aexp            1   13[BANK0 ] unsigned char 
  8536 ;;  sign            1    8[BANK0 ] unsigned char 
  8537 ;; Return value:  Size  Location     Type
  8538 ;;                  4    0[BANK0 ] unsigned char 
  8539 ;; Registers used:
  8540 ;;		wreg, status,2, status,0, pclath, cstack
  8541 ;; Tracked objects:
  8542 ;;		On entry : 0/0
  8543 ;;		On exit  : 0/0
  8544 ;;		Unchanged: 0/0
  8545 ;; Data sizes:     COMMON   BANK0   BANK1   BANK2   BANK3   BANK4   BANK5   BANK6   BANK7   BANK8   BANK9  BANK10  BANK1
      +1  BANK12  BANK13  BANK14  BANK15  BANK16  BANK17  BANK18  BANK19  BANK20  BANK21  BANK22  BANK23  BANK24  BANK25  BANK2
      +6  BANK27  BANK28  BANK29  BANK30  BANK31  BANK32  BANK33  BANK34  BANK35  BANK36  BANK37  BANK38  BANK39  BANK40  BANK4
      +1  BANK42  BANK43  BANK44  BANK45  BANK46  BANK47  BANK48  BANK49  BANK50
  8546 ;;      Params:         0       8       0       0       0       0       0       0       0       0       0       0       
      +0       0       0       0       0       0       0       0       0       0       0       0       0       0       0       
      +0       0       0       0       0       0       0       0       0       0       0       0       0       0       0       
      +0       0       0       0       0       0       0       0       0       0
  8547 ;;      Locals:         0      13       0       0       0       0       0       0       0       0       0       0       
      +0       0       0       0       0       0       0       0       0       0       0       0       0       0       0       
      +0       0       0       0       0       0       0       0       0       0       0       0       0       0       0       
      +0       0       0       0       0       0       0       0       0       0
  8548 ;;      Temps:          5       0       0       0       0       0       0       0       0       0       0       0       
      +0       0       0       0       0       0       0       0       0       0       0       0       0       0       0       
      +0       0       0       0       0       0       0       0       0       0       0       0       0       0       0       
      +0       0       0       0       0       0       0       0       0       0
  8549 ;;      Totals:         5      21       0       0       0       0       0       0       0       0       0       0       
      +0       0       0       0       0       0       0       0       0       0       0       0       0       0       0       
      +0       0       0       0       0       0       0       0       0       0       0       0       0       0       0       
      +0       0       0       0       0       0       0       0       0       0
  8550 ;;Total ram usage:       26 bytes
  8551 ;; Hardware stack levels used: 1
  8552 ;; Hardware stack levels required when called: 1
  8553 ;; This function calls:
  8554 ;;		__Umul8_16
  8555 ;; This function is called by:
  8556 ;;		_efgtoa
  8557 ;;		_Display_Temperature
  8558 ;; This function uses a non-reentrant model
  8559 ;;
  8560                           
  8561     0DC5                     ___flmul:	
  8562                           ;psect for function ___flmul
  8563                           
  8564     0DC5                     l2737:	
  8565                           ;incstack = 0
  8566                           ; Regs used in ___flmul: [wreg+status,2+status,0+pclath+cstack]
  8567                           
  8568     0DC5  0140               	movlb	0	; select bank0
  8569     0DC6  0823               	movf	___flmul@b+3,w
  8570     0DC7  3980               	andlw	128
  8571     0DC8  00A8               	movwf	___flmul@sign
  8572     0DC9                     l2739:
  8573     0DC9  3523               	lslf	___flmul@b+3,w
  8574     0DCA  00AE               	movwf	___flmul@bexp
  8575     0DCB                     l2741:
  8576     0DCB  1FA2               	btfss	___flmul@b+2,7
  8577     0DCC  2DCE               	goto	u3341
  8578     0DCD  2DCF               	goto	u3340
  8579     0DCE                     u3341:
  8580     0DCE  2DD0               	goto	l2745
  8581     0DCF                     u3340:
  8582     0DCF                     l2743:
  8583     0DCF  142E               	bsf	___flmul@bexp,0
  8584     0DD0                     l2745:
  8585     0DD0  082E               	movf	___flmul@bexp,w
  8586     0DD1  1903               	btfsc	3,2
  8587     0DD2  2DD4               	goto	u3351
  8588     0DD3  2DD5               	goto	u3350
  8589     0DD4                     u3351:
  8590     0DD4  2DE4               	goto	l2753
  8591     0DD5                     u3350:
  8592     0DD5                     l2747:
  8593     0DD5  0A2E               	incf	___flmul@bexp,w
  8594     0DD6  1D03               	btfss	3,2
  8595     0DD7  2DD9               	goto	u3361
  8596     0DD8  2DDA               	goto	u3360
  8597     0DD9                     u3361:
  8598     0DD9  2DE2               	goto	l2751
  8599     0DDA                     u3360:
  8600     0DDA                     l2749:
  8601     0DDA  3000               	movlw	0
  8602     0DDB  00A3               	movwf	___flmul@b+3
  8603     0DDC  3000               	movlw	0
  8604     0DDD  00A2               	movwf	___flmul@b+2
  8605     0DDE  3000               	movlw	0
  8606     0DDF  00A1               	movwf	___flmul@b+1
  8607     0DE0  3000               	movlw	0
  8608     0DE1  00A0               	movwf	___flmul@b
  8609     0DE2                     l2751:
  8610     0DE2  17A2               	bsf	___flmul@b+2,7
  8611     0DE3  2DEC               	goto	l2755
  8612     0DE4                     l2753:
  8613     0DE4  3000               	movlw	0
  8614     0DE5  00A3               	movwf	___flmul@b+3
  8615     0DE6  3000               	movlw	0
  8616     0DE7  00A2               	movwf	___flmul@b+2
  8617     0DE8  3000               	movlw	0
  8618     0DE9  00A1               	movwf	___flmul@b+1
  8619     0DEA  3000               	movlw	0
  8620     0DEB  00A0               	movwf	___flmul@b
  8621     0DEC                     l2755:
  8622     0DEC  0827               	movf	___flmul@a+3,w
  8623     0DED  3980               	andlw	128
  8624     0DEE  00F9               	movwf	??___flmul
  8625     0DEF  0879               	movf	??___flmul,w
  8626     0DF0  06A8               	xorwf	___flmul@sign,f
  8627     0DF1                     l2757:
  8628     0DF1  3527               	lslf	___flmul@a+3,w
  8629     0DF2  00AD               	movwf	___flmul@aexp
  8630     0DF3                     l2759:
  8631     0DF3  1FA6               	btfss	___flmul@a+2,7
  8632     0DF4  2DF6               	goto	u3371
  8633     0DF5  2DF7               	goto	u3370
  8634     0DF6                     u3371:
  8635     0DF6  2DF8               	goto	l2763
  8636     0DF7                     u3370:
  8637     0DF7                     l2761:
  8638     0DF7  142D               	bsf	___flmul@aexp,0
  8639     0DF8                     l2763:
  8640     0DF8  082D               	movf	___flmul@aexp,w
  8641     0DF9  1903               	btfsc	3,2
  8642     0DFA  2DFC               	goto	u3381
  8643     0DFB  2DFD               	goto	u3380
  8644     0DFC                     u3381:
  8645     0DFC  2E0C               	goto	l2771
  8646     0DFD                     u3380:
  8647     0DFD                     l2765:
  8648     0DFD  0A2D               	incf	___flmul@aexp,w
  8649     0DFE  1D03               	btfss	3,2
  8650     0DFF  2E01               	goto	u3391
  8651     0E00  2E02               	goto	u3390
  8652     0E01                     u3391:
  8653     0E01  2E0A               	goto	l2769
  8654     0E02                     u3390:
  8655     0E02                     l2767:
  8656     0E02  3000               	movlw	0
  8657     0E03  00A7               	movwf	___flmul@a+3
  8658     0E04  3000               	movlw	0
  8659     0E05  00A6               	movwf	___flmul@a+2
  8660     0E06  3000               	movlw	0
  8661     0E07  00A5               	movwf	___flmul@a+1
  8662     0E08  3000               	movlw	0
  8663     0E09  00A4               	movwf	___flmul@a
  8664     0E0A                     l2769:
  8665     0E0A  17A6               	bsf	___flmul@a+2,7
  8666     0E0B  2E14               	goto	l2773
  8667     0E0C                     l2771:
  8668     0E0C  3000               	movlw	0
  8669     0E0D  00A7               	movwf	___flmul@a+3
  8670     0E0E  3000               	movlw	0
  8671     0E0F  00A6               	movwf	___flmul@a+2
  8672     0E10  3000               	movlw	0
  8673     0E11  00A5               	movwf	___flmul@a+1
  8674     0E12  3000               	movlw	0
  8675     0E13  00A4               	movwf	___flmul@a
  8676     0E14                     l2773:
  8677     0E14  082D               	movf	___flmul@aexp,w
  8678     0E15  1903               	btfsc	3,2
  8679     0E16  2E18               	goto	u3401
  8680     0E17  2E19               	goto	u3400
  8681     0E18                     u3401:
  8682     0E18  2E1E               	goto	l2777
  8683     0E19                     u3400:
  8684     0E19                     l2775:
  8685     0E19  082E               	movf	___flmul@bexp,w
  8686     0E1A  1D03               	btfss	3,2
  8687     0E1B  2E1D               	goto	u3411
  8688     0E1C  2E1E               	goto	u3410
  8689     0E1D                     u3411:
  8690     0E1D  2E27               	goto	l2781
  8691     0E1E                     u3410:
  8692     0E1E                     l2777:
  8693     0E1E  3000               	movlw	0
  8694     0E1F  00A3               	movwf	?___flmul+3
  8695     0E20  3000               	movlw	0
  8696     0E21  00A2               	movwf	?___flmul+2
  8697     0E22  3000               	movlw	0
  8698     0E23  00A1               	movwf	?___flmul+1
  8699     0E24  3000               	movlw	0
  8700     0E25  00A0               	movwf	?___flmul
  8701     0E26  2FFF               	goto	l636
  8702     0E27                     l2781:
  8703     0E27  0820               	movf	___flmul@b,w
  8704     0E28  00F0               	movwf	__Umul8_16@multiplicand
  8705     0E29  0826               	movf	___flmul@a+2,w
  8706     0E2A  3193  2371  318D   	fcall	__Umul8_16
  8707     0E2D  0871               	movf	?__Umul8_16+1,w
  8708     0E2E  0140               	movlb	0	; select bank0
  8709     0E2F  00B4               	movwf	___flmul@temp+1
  8710     0E30  0870               	movf	?__Umul8_16,w
  8711     0E31  00B3               	movwf	___flmul@temp
  8712     0E32                     l2783:
  8713     0E32  0833               	movf	___flmul@temp,w
  8714     0E33  00F9               	movwf	??___flmul
  8715     0E34  01FA               	clrf	??___flmul+1
  8716     0E35  01FB               	clrf	??___flmul+2
  8717     0E36  01FC               	clrf	??___flmul+3
  8718     0E37  087C               	movf	??___flmul+3,w
  8719     0E38  00AC               	movwf	___flmul@grs+3
  8720     0E39  087B               	movf	??___flmul+2,w
  8721     0E3A  00AB               	movwf	___flmul@grs+2
  8722     0E3B  087A               	movf	??___flmul+1,w
  8723     0E3C  00AA               	movwf	___flmul@grs+1
  8724     0E3D  0879               	movf	??___flmul,w
  8725     0E3E  00A9               	movwf	___flmul@grs
  8726     0E3F                     l2785:
  8727     0E3F  0834               	movf	___flmul@temp+1,w
  8728     0E40  00F9               	movwf	??___flmul
  8729     0E41  01FA               	clrf	??___flmul+1
  8730     0E42  01FB               	clrf	??___flmul+2
  8731     0E43  01FC               	clrf	??___flmul+3
  8732     0E44  087C               	movf	??___flmul+3,w
  8733     0E45  00B2               	movwf	___flmul@prod+3
  8734     0E46  087B               	movf	??___flmul+2,w
  8735     0E47  00B1               	movwf	___flmul@prod+2
  8736     0E48  087A               	movf	??___flmul+1,w
  8737     0E49  00B0               	movwf	___flmul@prod+1
  8738     0E4A  0879               	movf	??___flmul,w
  8739     0E4B  00AF               	movwf	___flmul@prod
  8740     0E4C  0821               	movf	___flmul@b+1,w
  8741     0E4D  00F0               	movwf	__Umul8_16@multiplicand
  8742     0E4E  0825               	movf	___flmul@a+1,w
  8743     0E4F  3193  2371  318D   	fcall	__Umul8_16
  8744     0E52  0871               	movf	?__Umul8_16+1,w
  8745     0E53  0140               	movlb	0	; select bank0
  8746     0E54  00B4               	movwf	___flmul@temp+1
  8747     0E55  0870               	movf	?__Umul8_16,w
  8748     0E56  00B3               	movwf	___flmul@temp
  8749     0E57                     l2787:
  8750     0E57  0833               	movf	___flmul@temp,w
  8751     0E58  00F9               	movwf	??___flmul
  8752     0E59  01FA               	clrf	??___flmul+1
  8753     0E5A  01FB               	clrf	??___flmul+2
  8754     0E5B  01FC               	clrf	??___flmul+3
  8755     0E5C  0879               	movf	??___flmul,w
  8756     0E5D  07A9               	addwf	___flmul@grs,f
  8757     0E5E  087A               	movf	??___flmul+1,w
  8758     0E5F  3DAA               	addwfc	___flmul@grs+1,f
  8759     0E60  087B               	movf	??___flmul+2,w
  8760     0E61  3DAB               	addwfc	___flmul@grs+2,f
  8761     0E62  087C               	movf	??___flmul+3,w
  8762     0E63  3DAC               	addwfc	___flmul@grs+3,f
  8763     0E64                     l2789:
  8764     0E64  0834               	movf	___flmul@temp+1,w
  8765     0E65  00F9               	movwf	??___flmul
  8766     0E66  01FA               	clrf	??___flmul+1
  8767     0E67  01FB               	clrf	??___flmul+2
  8768     0E68  01FC               	clrf	??___flmul+3
  8769     0E69  0879               	movf	??___flmul,w
  8770     0E6A  07AF               	addwf	___flmul@prod,f
  8771     0E6B  087A               	movf	??___flmul+1,w
  8772     0E6C  3DB0               	addwfc	___flmul@prod+1,f
  8773     0E6D  087B               	movf	??___flmul+2,w
  8774     0E6E  3DB1               	addwfc	___flmul@prod+2,f
  8775     0E6F  087C               	movf	??___flmul+3,w
  8776     0E70  3DB2               	addwfc	___flmul@prod+3,f
  8777     0E71  0822               	movf	___flmul@b+2,w
  8778     0E72  00F0               	movwf	__Umul8_16@multiplicand
  8779     0E73  0824               	movf	___flmul@a,w
  8780     0E74  3193  2371  318D   	fcall	__Umul8_16
  8781     0E77  0871               	movf	?__Umul8_16+1,w
  8782     0E78  0140               	movlb	0	; select bank0
  8783     0E79  00B4               	movwf	___flmul@temp+1
  8784     0E7A  0870               	movf	?__Umul8_16,w
  8785     0E7B  00B3               	movwf	___flmul@temp
  8786     0E7C                     l2791:
  8787     0E7C  0833               	movf	___flmul@temp,w
  8788     0E7D  00F9               	movwf	??___flmul
  8789     0E7E  01FA               	clrf	??___flmul+1
  8790     0E7F  01FB               	clrf	??___flmul+2
  8791     0E80  01FC               	clrf	??___flmul+3
  8792     0E81  0879               	movf	??___flmul,w
  8793     0E82  07A9               	addwf	___flmul@grs,f
  8794     0E83  087A               	movf	??___flmul+1,w
  8795     0E84  3DAA               	addwfc	___flmul@grs+1,f
  8796     0E85  087B               	movf	??___flmul+2,w
  8797     0E86  3DAB               	addwfc	___flmul@grs+2,f
  8798     0E87  087C               	movf	??___flmul+3,w
  8799     0E88  3DAC               	addwfc	___flmul@grs+3,f
  8800     0E89                     l2793:
  8801     0E89  0834               	movf	___flmul@temp+1,w
  8802     0E8A  00F9               	movwf	??___flmul
  8803     0E8B  01FA               	clrf	??___flmul+1
  8804     0E8C  01FB               	clrf	??___flmul+2
  8805     0E8D  01FC               	clrf	??___flmul+3
  8806     0E8E  0879               	movf	??___flmul,w
  8807     0E8F  07AF               	addwf	___flmul@prod,f
  8808     0E90  087A               	movf	??___flmul+1,w
  8809     0E91  3DB0               	addwfc	___flmul@prod+1,f
  8810     0E92  087B               	movf	??___flmul+2,w
  8811     0E93  3DB1               	addwfc	___flmul@prod+2,f
  8812     0E94  087C               	movf	??___flmul+3,w
  8813     0E95  3DB2               	addwfc	___flmul@prod+3,f
  8814     0E96                     l2795:
  8815     0E96  3008               	movlw	8
  8816     0E97                     u3425:
  8817     0E97  35A9               	lslf	___flmul@grs,f
  8818     0E98  0DAA               	rlf	___flmul@grs+1,f
  8819     0E99  0DAB               	rlf	___flmul@grs+2,f
  8820     0E9A  0DAC               	rlf	___flmul@grs+3,f
  8821     0E9B  0B89               	decfsz	9,f
  8822     0E9C  2E97               	goto	u3425
  8823     0E9D                     l2797:
  8824     0E9D  0821               	movf	___flmul@b+1,w
  8825     0E9E  00F0               	movwf	__Umul8_16@multiplicand
  8826     0E9F  0824               	movf	___flmul@a,w
  8827     0EA0  3193  2371  318D   	fcall	__Umul8_16
  8828     0EA3  0871               	movf	?__Umul8_16+1,w
  8829     0EA4  0140               	movlb	0	; select bank0
  8830     0EA5  00B4               	movwf	___flmul@temp+1
  8831     0EA6  0870               	movf	?__Umul8_16,w
  8832     0EA7  00B3               	movwf	___flmul@temp
  8833     0EA8                     l2799:
  8834     0EA8  0833               	movf	___flmul@temp,w
  8835     0EA9  07A9               	addwf	___flmul@grs,f
  8836     0EAA  0834               	movf	___flmul@temp+1,w
  8837     0EAB  3DAA               	addwfc	___flmul@grs+1,f
  8838     0EAC  3000               	movlw	0
  8839     0EAD  3DAB               	addwfc	___flmul@grs+2,f
  8840     0EAE  3DAC               	addwfc	___flmul@grs+3,f
  8841     0EAF                     l2801:
  8842     0EAF  0820               	movf	___flmul@b,w
  8843     0EB0  00F0               	movwf	__Umul8_16@multiplicand
  8844     0EB1  0825               	movf	___flmul@a+1,w
  8845     0EB2  3193  2371  318D   	fcall	__Umul8_16
  8846     0EB5  0871               	movf	?__Umul8_16+1,w
  8847     0EB6  0140               	movlb	0	; select bank0
  8848     0EB7  00B4               	movwf	___flmul@temp+1
  8849     0EB8  0870               	movf	?__Umul8_16,w
  8850     0EB9  00B3               	movwf	___flmul@temp
  8851     0EBA                     l2803:
  8852     0EBA  0833               	movf	___flmul@temp,w
  8853     0EBB  07A9               	addwf	___flmul@grs,f
  8854     0EBC  0834               	movf	___flmul@temp+1,w
  8855     0EBD  3DAA               	addwfc	___flmul@grs+1,f
  8856     0EBE  3000               	movlw	0
  8857     0EBF  3DAB               	addwfc	___flmul@grs+2,f
  8858     0EC0  3DAC               	addwfc	___flmul@grs+3,f
  8859     0EC1                     l2805:
  8860     0EC1  3008               	movlw	8
  8861     0EC2                     u3435:
  8862     0EC2  35A9               	lslf	___flmul@grs,f
  8863     0EC3  0DAA               	rlf	___flmul@grs+1,f
  8864     0EC4  0DAB               	rlf	___flmul@grs+2,f
  8865     0EC5  0DAC               	rlf	___flmul@grs+3,f
  8866     0EC6  0B89               	decfsz	9,f
  8867     0EC7  2EC2               	goto	u3435
  8868     0EC8  0820               	movf	___flmul@b,w
  8869     0EC9  00F0               	movwf	__Umul8_16@multiplicand
  8870     0ECA  0824               	movf	___flmul@a,w
  8871     0ECB  3193  2371  318D   	fcall	__Umul8_16
  8872     0ECE  0871               	movf	?__Umul8_16+1,w
  8873     0ECF  0140               	movlb	0	; select bank0
  8874     0ED0  00B4               	movwf	___flmul@temp+1
  8875     0ED1  0870               	movf	?__Umul8_16,w
  8876     0ED2  00B3               	movwf	___flmul@temp
  8877     0ED3                     l2807:
  8878     0ED3  0833               	movf	___flmul@temp,w
  8879     0ED4  07A9               	addwf	___flmul@grs,f
  8880     0ED5  0834               	movf	___flmul@temp+1,w
  8881     0ED6  3DAA               	addwfc	___flmul@grs+1,f
  8882     0ED7  3000               	movlw	0
  8883     0ED8  3DAB               	addwfc	___flmul@grs+2,f
  8884     0ED9  3DAC               	addwfc	___flmul@grs+3,f
  8885     0EDA                     l2809:
  8886     0EDA  0821               	movf	___flmul@b+1,w
  8887     0EDB  00F0               	movwf	__Umul8_16@multiplicand
  8888     0EDC  0826               	movf	___flmul@a+2,w
  8889     0EDD  3193  2371  318D   	fcall	__Umul8_16
  8890     0EE0  0871               	movf	?__Umul8_16+1,w
  8891     0EE1  0140               	movlb	0	; select bank0
  8892     0EE2  00B4               	movwf	___flmul@temp+1
  8893     0EE3  0870               	movf	?__Umul8_16,w
  8894     0EE4  00B3               	movwf	___flmul@temp
  8895     0EE5  0833               	movf	___flmul@temp,w
  8896     0EE6  07AF               	addwf	___flmul@prod,f
  8897     0EE7  0834               	movf	___flmul@temp+1,w
  8898     0EE8  3DB0               	addwfc	___flmul@prod+1,f
  8899     0EE9  3000               	movlw	0
  8900     0EEA  3DB1               	addwfc	___flmul@prod+2,f
  8901     0EEB  3DB2               	addwfc	___flmul@prod+3,f
  8902     0EEC                     l2811:
  8903     0EEC  0822               	movf	___flmul@b+2,w
  8904     0EED  00F0               	movwf	__Umul8_16@multiplicand
  8905     0EEE  0825               	movf	___flmul@a+1,w
  8906     0EEF  3193  2371  318D   	fcall	__Umul8_16
  8907     0EF2  0871               	movf	?__Umul8_16+1,w
  8908     0EF3  0140               	movlb	0	; select bank0
  8909     0EF4  00B4               	movwf	___flmul@temp+1
  8910     0EF5  0870               	movf	?__Umul8_16,w
  8911     0EF6  00B3               	movwf	___flmul@temp
  8912     0EF7                     l2813:
  8913     0EF7  0833               	movf	___flmul@temp,w
  8914     0EF8  07AF               	addwf	___flmul@prod,f
  8915     0EF9  0834               	movf	___flmul@temp+1,w
  8916     0EFA  3DB0               	addwfc	___flmul@prod+1,f
  8917     0EFB  3000               	movlw	0
  8918     0EFC  3DB1               	addwfc	___flmul@prod+2,f
  8919     0EFD  3DB2               	addwfc	___flmul@prod+3,f
  8920     0EFE  0822               	movf	___flmul@b+2,w
  8921     0EFF  00F0               	movwf	__Umul8_16@multiplicand
  8922     0F00  0826               	movf	___flmul@a+2,w
  8923     0F01  3193  2371  318D   	fcall	__Umul8_16
  8924     0F04  0871               	movf	?__Umul8_16+1,w
  8925     0F05  0140               	movlb	0	; select bank0
  8926     0F06  00B4               	movwf	___flmul@temp+1
  8927     0F07  0870               	movf	?__Umul8_16,w
  8928     0F08  00B3               	movwf	___flmul@temp
  8929     0F09                     l2815:
  8930     0F09  0833               	movf	___flmul@temp,w
  8931     0F0A  00F9               	movwf	??___flmul
  8932     0F0B  0834               	movf	___flmul@temp+1,w
  8933     0F0C  00FA               	movwf	??___flmul+1
  8934     0F0D  01FB               	clrf	??___flmul+2
  8935     0F0E  01FC               	clrf	??___flmul+3
  8936     0F0F  3008               	movlw	8
  8937     0F10                     u3445:
  8938     0F10  35F9               	lslf	??___flmul,f
  8939     0F11  0DFA               	rlf	??___flmul+1,f
  8940     0F12  0DFB               	rlf	??___flmul+2,f
  8941     0F13  0DFC               	rlf	??___flmul+3,f
  8942     0F14                     u3440:
  8943     0F14  0B89               	decfsz	9,f
  8944     0F15  2F10               	goto	u3445
  8945     0F16  0879               	movf	??___flmul,w
  8946     0F17  07AF               	addwf	___flmul@prod,f
  8947     0F18  087A               	movf	??___flmul+1,w
  8948     0F19  3DB0               	addwfc	___flmul@prod+1,f
  8949     0F1A  087B               	movf	??___flmul+2,w
  8950     0F1B  3DB1               	addwfc	___flmul@prod+2,f
  8951     0F1C  087C               	movf	??___flmul+3,w
  8952     0F1D  3DB2               	addwfc	___flmul@prod+3,f
  8953     0F1E                     l2817:
  8954     0F1E  0829               	movf	___flmul@grs,w
  8955     0F1F  00F9               	movwf	??___flmul
  8956     0F20  082A               	movf	___flmul@grs+1,w
  8957     0F21  00FA               	movwf	??___flmul+1
  8958     0F22  082B               	movf	___flmul@grs+2,w
  8959     0F23  00FB               	movwf	??___flmul+2
  8960     0F24  082C               	movf	___flmul@grs+3,w
  8961     0F25  00FC               	movwf	??___flmul+3
  8962     0F26  3018               	movlw	24
  8963     0F27                     u3455:
  8964     0F27  36FC               	lsrf	??___flmul+3,f
  8965     0F28  0CFB               	rrf	??___flmul+2,f
  8966     0F29  0CFA               	rrf	??___flmul+1,f
  8967     0F2A  0CF9               	rrf	??___flmul,f
  8968     0F2B                     u3450:
  8969     0F2B  0B89               	decfsz	9,f
  8970     0F2C  2F27               	goto	u3455
  8971     0F2D  0879               	movf	??___flmul,w
  8972     0F2E  07AF               	addwf	___flmul@prod,f
  8973     0F2F  087A               	movf	??___flmul+1,w
  8974     0F30  3DB0               	addwfc	___flmul@prod+1,f
  8975     0F31  087B               	movf	??___flmul+2,w
  8976     0F32  3DB1               	addwfc	___flmul@prod+2,f
  8977     0F33  087C               	movf	??___flmul+3,w
  8978     0F34  3DB2               	addwfc	___flmul@prod+3,f
  8979     0F35                     l2819:
  8980     0F35  3008               	movlw	8
  8981     0F36                     u3465:
  8982     0F36  35A9               	lslf	___flmul@grs,f
  8983     0F37  0DAA               	rlf	___flmul@grs+1,f
  8984     0F38  0DAB               	rlf	___flmul@grs+2,f
  8985     0F39  0DAC               	rlf	___flmul@grs+3,f
  8986     0F3A  0B89               	decfsz	9,f
  8987     0F3B  2F36               	goto	u3465
  8988     0F3C                     l2821:
  8989     0F3C  082E               	movf	___flmul@bexp,w
  8990     0F3D  072D               	addwf	___flmul@aexp,w
  8991     0F3E  00F9               	movwf	??___flmul
  8992     0F3F  01FA               	clrf	??___flmul+1
  8993     0F40  0DFA               	rlf	??___flmul+1,f
  8994     0F41  0879               	movf	??___flmul,w
  8995     0F42  3E82               	addlw	130
  8996     0F43  00B3               	movwf	___flmul@temp
  8997     0F44  30FF               	movlw	255
  8998     0F45  3D7A               	addwfc	??___flmul+1,w
  8999     0F46  00B4               	movwf	___flmul@temp+1
  9000     0F47  2F5F               	goto	l2833
  9001     0F48                     l2823:
  9002     0F48  3001               	movlw	1
  9003     0F49                     u3475:
  9004     0F49  35AF               	lslf	___flmul@prod,f
  9005     0F4A  0DB0               	rlf	___flmul@prod+1,f
  9006     0F4B  0DB1               	rlf	___flmul@prod+2,f
  9007     0F4C  0DB2               	rlf	___flmul@prod+3,f
  9008     0F4D  0B89               	decfsz	9,f
  9009     0F4E  2F49               	goto	u3475
  9010     0F4F                     l2825:
  9011     0F4F  1FAC               	btfss	___flmul@grs+3,7
  9012     0F50  2F52               	goto	u3481
  9013     0F51  2F53               	goto	u3480
  9014     0F52                     u3481:
  9015     0F52  2F54               	goto	l2829
  9016     0F53                     u3480:
  9017     0F53                     l2827:
  9018     0F53  142F               	bsf	___flmul@prod,0
  9019     0F54                     l2829:
  9020     0F54  3001               	movlw	1
  9021     0F55                     u3495:
  9022     0F55  35A9               	lslf	___flmul@grs,f
  9023     0F56  0DAA               	rlf	___flmul@grs+1,f
  9024     0F57  0DAB               	rlf	___flmul@grs+2,f
  9025     0F58  0DAC               	rlf	___flmul@grs+3,f
  9026     0F59  0B89               	decfsz	9,f
  9027     0F5A  2F55               	goto	u3495
  9028     0F5B                     l2831:
  9029     0F5B  30FF               	movlw	255
  9030     0F5C  07B3               	addwf	___flmul@temp,f
  9031     0F5D  30FF               	movlw	255
  9032     0F5E  3DB4               	addwfc	___flmul@temp+1,f
  9033     0F5F                     l2833:
  9034     0F5F  1FB1               	btfss	___flmul@prod+2,7
  9035     0F60  2F62               	goto	u3501
  9036     0F61  2F63               	goto	u3500
  9037     0F62                     u3501:
  9038     0F62  2F48               	goto	l2823
  9039     0F63                     u3500:
  9040     0F63                     l2835:
  9041     0F63  01AD               	clrf	___flmul@aexp
  9042     0F64                     l2837:
  9043     0F64  1FAC               	btfss	___flmul@grs+3,7
  9044     0F65  2F67               	goto	u3511
  9045     0F66  2F68               	goto	u3510
  9046     0F67                     u3511:
  9047     0F67  2F84               	goto	l2845
  9048     0F68                     u3510:
  9049     0F68                     l2839:
  9050     0F68  30FF               	movlw	255
  9051     0F69  0529               	andwf	___flmul@grs,w
  9052     0F6A  00F9               	movwf	??___flmul
  9053     0F6B  30FF               	movlw	255
  9054     0F6C  052A               	andwf	___flmul@grs+1,w
  9055     0F6D  00FA               	movwf	??___flmul+1
  9056     0F6E  30FF               	movlw	255
  9057     0F6F  052B               	andwf	___flmul@grs+2,w
  9058     0F70  00FB               	movwf	??___flmul+2
  9059     0F71  307F               	movlw	127
  9060     0F72  052C               	andwf	___flmul@grs+3,w
  9061     0F73  00FC               	movwf	??___flmul+3
  9062     0F74  087C               	movf	??___flmul+3,w
  9063     0F75  047B               	iorwf	??___flmul+2,w
  9064     0F76  047A               	iorwf	??___flmul+1,w
  9065     0F77  0479               	iorwf	??___flmul,w
  9066     0F78  1903               	skipnz
  9067     0F79  2F7B               	goto	u3521
  9068     0F7A  2F7C               	goto	u3520
  9069     0F7B                     u3521:
  9070     0F7B  2F7F               	goto	l642
  9071     0F7C                     u3520:
  9072     0F7C                     l2841:
  9073     0F7C  01AD               	clrf	___flmul@aexp
  9074     0F7D  0AAD               	incf	___flmul@aexp,f
  9075     0F7E  2F84               	goto	l2845
  9076     0F7F                     l642:
  9077     0F7F  1C2F               	btfss	___flmul@prod,0
  9078     0F80  2F82               	goto	u3531
  9079     0F81  2F83               	goto	u3530
  9080     0F82                     u3531:
  9081     0F82  2F84               	goto	l2845
  9082     0F83                     u3530:
  9083     0F83  2F7C               	goto	l2841
  9084     0F84                     l2845:
  9085     0F84  082D               	movf	___flmul@aexp,w
  9086     0F85  1903               	btfsc	3,2
  9087     0F86  2F88               	goto	u3541
  9088     0F87  2F89               	goto	u3540
  9089     0F88                     u3541:
  9090     0F88  2FB1               	goto	l2855
  9091     0F89                     u3540:
  9092     0F89                     l2847:
  9093     0F89  3001               	movlw	1
  9094     0F8A  07AF               	addwf	___flmul@prod,f
  9095     0F8B  3000               	movlw	0
  9096     0F8C  3DB0               	addwfc	___flmul@prod+1,f
  9097     0F8D  3000               	movlw	0
  9098     0F8E  3DB1               	addwfc	___flmul@prod+2,f
  9099     0F8F  3000               	movlw	0
  9100     0F90  3DB2               	addwfc	___flmul@prod+3,f
  9101     0F91                     l2849:
  9102     0F91  1C32               	btfss	___flmul@prod+3,0
  9103     0F92  2F94               	goto	u3551
  9104     0F93  2F95               	goto	u3550
  9105     0F94                     u3551:
  9106     0F94  2FB1               	goto	l2855
  9107     0F95                     u3550:
  9108     0F95                     l2851:
  9109     0F95  082F               	movf	___flmul@prod,w
  9110     0F96  00F9               	movwf	??___flmul
  9111     0F97  0830               	movf	___flmul@prod+1,w
  9112     0F98  00FA               	movwf	??___flmul+1
  9113     0F99  0831               	movf	___flmul@prod+2,w
  9114     0F9A  00FB               	movwf	??___flmul+2
  9115     0F9B  0832               	movf	___flmul@prod+3,w
  9116     0F9C  00FC               	movwf	??___flmul+3
  9117     0F9D  3001               	movlw	1
  9118     0F9E  00FD               	movwf	??___flmul+4
  9119     0F9F                     u3565:
  9120     0F9F  37FC               	asrf	??___flmul+3,f
  9121     0FA0  0CFB               	rrf	??___flmul+2,f
  9122     0FA1  0CFA               	rrf	??___flmul+1,f
  9123     0FA2  0CF9               	rrf	??___flmul,f
  9124     0FA3                     u3560:
  9125     0FA3  0BFD               	decfsz	??___flmul+4,f
  9126     0FA4  2F9F               	goto	u3565
  9127     0FA5  087C               	movf	??___flmul+3,w
  9128     0FA6  00B2               	movwf	___flmul@prod+3
  9129     0FA7  087B               	movf	??___flmul+2,w
  9130     0FA8  00B1               	movwf	___flmul@prod+2
  9131     0FA9  087A               	movf	??___flmul+1,w
  9132     0FAA  00B0               	movwf	___flmul@prod+1
  9133     0FAB  0879               	movf	??___flmul,w
  9134     0FAC  00AF               	movwf	___flmul@prod
  9135     0FAD                     l2853:
  9136     0FAD  3001               	movlw	1
  9137     0FAE  07B3               	addwf	___flmul@temp,f
  9138     0FAF  3000               	movlw	0
  9139     0FB0  3DB4               	addwfc	___flmul@temp+1,f
  9140     0FB1                     l2855:
  9141     0FB1  0834               	movf	___flmul@temp+1,w
  9142     0FB2  3A80               	xorlw	128
  9143     0FB3  00F9               	movwf	??___flmul
  9144     0FB4  3080               	movlw	128
  9145     0FB5  0279               	subwf	??___flmul,w
  9146     0FB6  1D03               	skipz
  9147     0FB7  2FBA               	goto	u3575
  9148     0FB8  30FF               	movlw	255
  9149     0FB9  0233               	subwf	___flmul@temp,w
  9150     0FBA                     u3575:
  9151     0FBA  1C03               	skipc
  9152     0FBB  2FBD               	goto	u3571
  9153     0FBC  2FBE               	goto	u3570
  9154     0FBD                     u3571:
  9155     0FBD  2FC8               	goto	l2859
  9156     0FBE                     u3570:
  9157     0FBE                     l2857:
  9158     0FBE  307F               	movlw	127
  9159     0FBF  0140               	movlb	0	; select bank0
  9160     0FC0  00B2               	movwf	___flmul@prod+3
  9161     0FC1  3080               	movlw	128
  9162     0FC2  00B1               	movwf	___flmul@prod+2
  9163     0FC3  3000               	movlw	0
  9164     0FC4  00B0               	movwf	___flmul@prod+1
  9165     0FC5  3000               	movlw	0
  9166     0FC6  00AF               	movwf	___flmul@prod
  9167     0FC7  2FF3               	goto	l648
  9168     0FC8                     l2859:
  9169     0FC8  0140               	movlb	0	; select bank0
  9170     0FC9  0834               	movf	___flmul@temp+1,w
  9171     0FCA  3A80               	xorlw	128
  9172     0FCB  00F9               	movwf	??___flmul
  9173     0FCC  3080               	movlw	128
  9174     0FCD  0279               	subwf	??___flmul,w
  9175     0FCE  1D03               	skipz
  9176     0FCF  2FD2               	goto	u3585
  9177     0FD0  3001               	movlw	1
  9178     0FD1  0233               	subwf	___flmul@temp,w
  9179     0FD2                     u3585:
  9180     0FD2  1803               	skipnc
  9181     0FD3  2FD5               	goto	u3581
  9182     0FD4  2FD6               	goto	u3580
  9183     0FD5                     u3581:
  9184     0FD5  2FE1               	goto	l2865
  9185     0FD6                     u3580:
  9186     0FD6                     l2861:
  9187     0FD6  3000               	movlw	0
  9188     0FD7  0140               	movlb	0	; select bank0
  9189     0FD8  00B2               	movwf	___flmul@prod+3
  9190     0FD9  3000               	movlw	0
  9191     0FDA  00B1               	movwf	___flmul@prod+2
  9192     0FDB  3000               	movlw	0
  9193     0FDC  00B0               	movwf	___flmul@prod+1
  9194     0FDD  3000               	movlw	0
  9195     0FDE  00AF               	movwf	___flmul@prod
  9196     0FDF                     l2863:
  9197     0FDF  01A8               	clrf	___flmul@sign
  9198     0FE0  2FF3               	goto	l648
  9199     0FE1                     l2865:
  9200     0FE1  0140               	movlb	0	; select bank0
  9201     0FE2  0833               	movf	___flmul@temp,w
  9202     0FE3  00AE               	movwf	___flmul@bexp
  9203     0FE4  30FF               	movlw	255
  9204     0FE5  05AF               	andwf	___flmul@prod,f
  9205     0FE6  30FF               	movlw	255
  9206     0FE7  05B0               	andwf	___flmul@prod+1,f
  9207     0FE8  307F               	movlw	127
  9208     0FE9  05B1               	andwf	___flmul@prod+2,f
  9209     0FEA  3000               	movlw	0
  9210     0FEB  05B2               	andwf	___flmul@prod+3,f
  9211     0FEC                     l2867:
  9212     0FEC  1C2E               	btfss	___flmul@bexp,0
  9213     0FED  2FEF               	goto	u3591
  9214     0FEE  2FF0               	goto	u3590
  9215     0FEF                     u3591:
  9216     0FEF  2FF1               	goto	l2871
  9217     0FF0                     u3590:
  9218     0FF0                     l2869:
  9219     0FF0  17B1               	bsf	___flmul@prod+2,7
  9220     0FF1                     l2871:
  9221     0FF1  362E               	lsrf	___flmul@bexp,w
  9222     0FF2  00B2               	movwf	___flmul@prod+3
  9223     0FF3                     l648:
  9224     0FF3  0828               	movf	___flmul@sign,w
  9225     0FF4  00F9               	movwf	??___flmul
  9226     0FF5  0879               	movf	??___flmul,w
  9227     0FF6  04B2               	iorwf	___flmul@prod+3,f
  9228     0FF7                     l2873:
  9229     0FF7  0832               	movf	___flmul@prod+3,w
  9230     0FF8  00A3               	movwf	?___flmul+3
  9231     0FF9  0831               	movf	___flmul@prod+2,w
  9232     0FFA  00A2               	movwf	?___flmul+2
  9233     0FFB  0830               	movf	___flmul@prod+1,w
  9234     0FFC  00A1               	movwf	?___flmul+1
  9235     0FFD  082F               	movf	___flmul@prod,w
  9236     0FFE  00A0               	movwf	?___flmul
  9237     0FFF                     l636:
  9238     0FFF  0008               	return
  9239     1000                     __end_of___flmul:
  9240                           
  9241                           	psect	text29
  9242     1371                     __ptext29:	
  9243 ;; *************** function __Umul8_16 *****************
  9244 ;; Defined at:
  9245 ;;		line 4 in file "C:\Program Files\Microchip\xc8\v2.41\pic\sources\c99\common\Umul8_16.c"
  9246 ;; Parameters:    Size  Location     Type
  9247 ;;  multiplier      1    wreg     unsigned char 
  9248 ;;  multiplicand    1    0[COMMON] unsigned char 
  9249 ;; Auto vars:     Size  Location     Type
  9250 ;;  multiplier      1    8[COMMON] unsigned char 
  9251 ;;  word_mpld       2    6[COMMON] unsigned int 
  9252 ;;  product         2    4[COMMON] unsigned int 
  9253 ;; Return value:  Size  Location     Type
  9254 ;;                  2    0[COMMON] unsigned int 
  9255 ;; Registers used:
  9256 ;;		wreg, status,2, status,0
  9257 ;; Tracked objects:
  9258 ;;		On entry : 0/0
  9259 ;;		On exit  : 0/0
  9260 ;;		Unchanged: 0/0
  9261 ;; Data sizes:     COMMON   BANK0   BANK1   BANK2   BANK3   BANK4   BANK5   BANK6   BANK7   BANK8   BANK9  BANK10  BANK1
      +1  BANK12  BANK13  BANK14  BANK15  BANK16  BANK17  BANK18  BANK19  BANK20  BANK21  BANK22  BANK23  BANK24  BANK25  BANK2
      +6  BANK27  BANK28  BANK29  BANK30  BANK31  BANK32  BANK33  BANK34  BANK35  BANK36  BANK37  BANK38  BANK39  BANK40  BANK4
      +1  BANK42  BANK43  BANK44  BANK45  BANK46  BANK47  BANK48  BANK49  BANK50
  9262 ;;      Params:         2       0       0       0       0       0       0       0       0       0       0       0       
      +0       0       0       0       0       0       0       0       0       0       0       0       0       0       0       
      +0       0       0       0       0       0       0       0       0       0       0       0       0       0       0       
      +0       0       0       0       0       0       0       0       0       0
  9263 ;;      Locals:         5       0       0       0       0       0       0       0       0       0       0       0       
      +0       0       0       0       0       0       0       0       0       0       0       0       0       0       0       
      +0       0       0       0       0       0       0       0       0       0       0       0       0       0       0       
      +0       0       0       0       0       0       0       0       0       0
  9264 ;;      Temps:          2       0       0       0       0       0       0       0       0       0       0       0       
      +0       0       0       0       0       0       0       0       0       0       0       0       0       0       0       
      +0       0       0       0       0       0       0       0       0       0       0       0       0       0       0       
      +0       0       0       0       0       0       0       0       0       0
  9265 ;;      Totals:         9       0       0       0       0       0       0       0       0       0       0       0       
      +0       0       0       0       0       0       0       0       0       0       0       0       0       0       0       
      +0       0       0       0       0       0       0       0       0       0       0       0       0       0       0       
      +0       0       0       0       0       0       0       0       0       0
  9266 ;;Total ram usage:        9 bytes
  9267 ;; Hardware stack levels used: 1
  9268 ;; This function calls:
  9269 ;;		Nothing
  9270 ;; This function is called by:
  9271 ;;		___flmul
  9272 ;; This function uses a non-reentrant model
  9273 ;;
  9274                           
  9275     1371                     __Umul8_16:	
  9276                           ;psect for function __Umul8_16
  9277                           
  9278                           
  9279                           ;incstack = 0
  9280                           ; Regs used in __Umul8_16: [wreg+status,2+status,0]
  9281                           ;__Umul8_16@multiplier stored from wreg
  9282     1371  00F8               	movwf	__Umul8_16@multiplier
  9283     1372                     l2431:
  9284     1372  01F4               	clrf	__Umul8_16@product
  9285     1373  01F5               	clrf	__Umul8_16@product+1
  9286     1374                     l2433:
  9287     1374  0870               	movf	__Umul8_16@multiplicand,w
  9288     1375  00F2               	movwf	??__Umul8_16
  9289     1376  01F3               	clrf	??__Umul8_16+1
  9290     1377  0872               	movf	??__Umul8_16,w
  9291     1378  00F6               	movwf	__Umul8_16@word_mpld
  9292     1379  0873               	movf	??__Umul8_16+1,w
  9293     137A  00F7               	movwf	__Umul8_16@word_mpld+1
  9294     137B                     l2435:
  9295     137B  1C78               	btfss	__Umul8_16@multiplier,0
  9296     137C  2B7E               	goto	u2651
  9297     137D  2B7F               	goto	u2650
  9298     137E                     u2651:
  9299     137E  2B83               	goto	l655
  9300     137F                     u2650:
  9301     137F                     l2437:
  9302     137F  0876               	movf	__Umul8_16@word_mpld,w
  9303     1380  07F4               	addwf	__Umul8_16@product,f
  9304     1381  0877               	movf	__Umul8_16@word_mpld+1,w
  9305     1382  3DF5               	addwfc	__Umul8_16@product+1,f
  9306     1383                     l655:
  9307     1383  3001               	movlw	1
  9308     1384                     u2665:
  9309     1384  35F6               	lslf	__Umul8_16@word_mpld,f
  9310     1385  0DF7               	rlf	__Umul8_16@word_mpld+1,f
  9311     1386  0B89               	decfsz	9,f
  9312     1387  2B84               	goto	u2665
  9313     1388  1003               	clrc
  9314     1389  0CF8               	rrf	__Umul8_16@multiplier,f
  9315     138A                     l2439:
  9316     138A  0878               	movf	__Umul8_16@multiplier,w
  9317     138B  1D03               	btfss	3,2
  9318     138C  2B8E               	goto	u2671
  9319     138D  2B8F               	goto	u2670
  9320     138E                     u2671:
  9321     138E  2B7B               	goto	l2435
  9322     138F                     u2670:
  9323     138F                     l2441:
  9324     138F  0875               	movf	__Umul8_16@product+1,w
  9325     1390  00F1               	movwf	?__Umul8_16+1
  9326     1391  0874               	movf	__Umul8_16@product,w
  9327     1392  00F0               	movwf	?__Umul8_16
  9328     1393                     l657:
  9329     1393  0008               	return
  9330     1394                     __end_of__Umul8_16:
  9331                           
  9332                           	psect	text30
  9333     1775                     __ptext30:	
  9334 ;; *************** function ___flge *****************
  9335 ;; Defined at:
  9336 ;;		line 4 in file "C:\Program Files\Microchip\xc8\v2.41\pic\sources\c99\common\flge.c"
  9337 ;; Parameters:    Size  Location     Type
  9338 ;;  ff1             4   21[BANK0 ] unsigned int 
  9339 ;;  ff2             4   25[BANK0 ] unsigned int 
  9340 ;; Auto vars:     Size  Location     Type
  9341 ;;		None
  9342 ;; Return value:  Size  Location     Type
  9343 ;;		None               void
  9344 ;; Registers used:
  9345 ;;		wreg, status,2, status,0
  9346 ;; Tracked objects:
  9347 ;;		On entry : 0/0
  9348 ;;		On exit  : 0/0
  9349 ;;		Unchanged: 0/0
  9350 ;; Data sizes:     COMMON   BANK0   BANK1   BANK2   BANK3   BANK4   BANK5   BANK6   BANK7   BANK8   BANK9  BANK10  BANK1
      +1  BANK12  BANK13  BANK14  BANK15  BANK16  BANK17  BANK18  BANK19  BANK20  BANK21  BANK22  BANK23  BANK24  BANK25  BANK2
      +6  BANK27  BANK28  BANK29  BANK30  BANK31  BANK32  BANK33  BANK34  BANK35  BANK36  BANK37  BANK38  BANK39  BANK40  BANK4
      +1  BANK42  BANK43  BANK44  BANK45  BANK46  BANK47  BANK48  BANK49  BANK50
  9351 ;;      Params:         0       8       0       0       0       0       0       0       0       0       0       0       
      +0       0       0       0       0       0       0       0       0       0       0       0       0       0       0       
      +0       0       0       0       0       0       0       0       0       0       0       0       0       0       0       
      +0       0       0       0       0       0       0       0       0       0
  9352 ;;      Locals:         0       0       0       0       0       0       0       0       0       0       0       0       
      +0       0       0       0       0       0       0       0       0       0       0       0       0       0       0       
      +0       0       0       0       0       0       0       0       0       0       0       0       0       0       0       
      +0       0       0       0       0       0       0       0       0       0
  9353 ;;      Temps:          0       4       0       0       0       0       0       0       0       0       0       0       
      +0       0       0       0       0       0       0       0       0       0       0       0       0       0       0       
      +0       0       0       0       0       0       0       0       0       0       0       0       0       0       0       
      +0       0       0       0       0       0       0       0       0       0
  9354 ;;      Totals:         0      12       0       0       0       0       0       0       0       0       0       0       
      +0       0       0       0       0       0       0       0       0       0       0       0       0       0       0       
      +0       0       0       0       0       0       0       0       0       0       0       0       0       0       0       
      +0       0       0       0       0       0       0       0       0       0
  9355 ;;Total ram usage:       12 bytes
  9356 ;; Hardware stack levels used: 1
  9357 ;; This function calls:
  9358 ;;		Nothing
  9359 ;; This function is called by:
  9360 ;;		_efgtoa
  9361 ;; This function uses a non-reentrant model
  9362 ;;
  9363                           
  9364     1775                     ___flge:	
  9365                           ;psect for function ___flge
  9366                           
  9367     1775                     l2479:	
  9368                           ;incstack = 0
  9369                           ; Regs used in ___flge: [wreg+status,2+status,0]
  9370                           
  9371     1775  3000               	movlw	0
  9372     1776  0140               	movlb	0	; select bank0
  9373     1777  0535               	andwf	___flge@ff1,w
  9374     1778  00BD               	movwf	??___flge
  9375     1779  3000               	movlw	0
  9376     177A  0536               	andwf	___flge@ff1+1,w
  9377     177B  00BE               	movwf	??___flge+1
  9378     177C  3080               	movlw	128
  9379     177D  0537               	andwf	___flge@ff1+2,w
  9380     177E  00BF               	movwf	??___flge+2
  9381     177F  307F               	movlw	127
  9382     1780  0538               	andwf	___flge@ff1+3,w
  9383     1781  00C0               	movwf	??___flge+3
  9384     1782  0840               	movf	??___flge+3,w
  9385     1783  043F               	iorwf	??___flge+2,w
  9386     1784  043E               	iorwf	??___flge+1,w
  9387     1785  043D               	iorwf	??___flge,w
  9388     1786  1D03               	skipz
  9389     1787  2F89               	goto	u2761
  9390     1788  2F8A               	goto	u2760
  9391     1789                     u2761:
  9392     1789  2F92               	goto	l417
  9393     178A                     u2760:
  9394     178A                     l2481:
  9395     178A  3000               	movlw	0
  9396     178B  00B8               	movwf	___flge@ff1+3
  9397     178C  3000               	movlw	0
  9398     178D  00B7               	movwf	___flge@ff1+2
  9399     178E  3000               	movlw	0
  9400     178F  00B6               	movwf	___flge@ff1+1
  9401     1790  3000               	movlw	0
  9402     1791  00B5               	movwf	___flge@ff1
  9403     1792                     l417:
  9404     1792  3000               	movlw	0
  9405     1793  0539               	andwf	___flge@ff2,w
  9406     1794  00BD               	movwf	??___flge
  9407     1795  3000               	movlw	0
  9408     1796  053A               	andwf	___flge@ff2+1,w
  9409     1797  00BE               	movwf	??___flge+1
  9410     1798  3080               	movlw	128
  9411     1799  053B               	andwf	___flge@ff2+2,w
  9412     179A  00BF               	movwf	??___flge+2
  9413     179B  307F               	movlw	127
  9414     179C  053C               	andwf	___flge@ff2+3,w
  9415     179D  00C0               	movwf	??___flge+3
  9416     179E  0840               	movf	??___flge+3,w
  9417     179F  043F               	iorwf	??___flge+2,w
  9418     17A0  043E               	iorwf	??___flge+1,w
  9419     17A1  043D               	iorwf	??___flge,w
  9420     17A2  1D03               	skipz
  9421     17A3  2FA5               	goto	u2771
  9422     17A4  2FA6               	goto	u2770
  9423     17A5                     u2771:
  9424     17A5  2FAE               	goto	l2485
  9425     17A6                     u2770:
  9426     17A6                     l2483:
  9427     17A6  3000               	movlw	0
  9428     17A7  00BC               	movwf	___flge@ff2+3
  9429     17A8  3000               	movlw	0
  9430     17A9  00BB               	movwf	___flge@ff2+2
  9431     17AA  3000               	movlw	0
  9432     17AB  00BA               	movwf	___flge@ff2+1
  9433     17AC  3000               	movlw	0
  9434     17AD  00B9               	movwf	___flge@ff2
  9435     17AE                     l2485:
  9436     17AE  1FB8               	btfss	___flge@ff1+3,7
  9437     17AF  2FB1               	goto	u2781
  9438     17B0  2FB2               	goto	u2780
  9439     17B1                     u2781:
  9440     17B1  2FCA               	goto	l2489
  9441     17B2                     u2780:
  9442     17B2                     l2487:
  9443     17B2  3000               	movlw	0
  9444     17B3  00BD               	movwf	??___flge
  9445     17B4  3000               	movlw	0
  9446     17B5  00BE               	movwf	??___flge+1
  9447     17B6  3000               	movlw	0
  9448     17B7  00BF               	movwf	??___flge+2
  9449     17B8  3080               	movlw	128
  9450     17B9  00C0               	movwf	??___flge+3
  9451     17BA  0835               	movf	___flge@ff1,w
  9452     17BB  02BD               	subwf	??___flge,f
  9453     17BC  0836               	movf	___flge@ff1+1,w
  9454     17BD  3BBE               	subwfb	??___flge+1,f
  9455     17BE  0837               	movf	___flge@ff1+2,w
  9456     17BF  3BBF               	subwfb	??___flge+2,f
  9457     17C0  0838               	movf	___flge@ff1+3,w
  9458     17C1  3BC0               	subwfb	??___flge+3,f
  9459     17C2  0840               	movf	??___flge+3,w
  9460     17C3  00B8               	movwf	___flge@ff1+3
  9461     17C4  083F               	movf	??___flge+2,w
  9462     17C5  00B7               	movwf	___flge@ff1+2
  9463     17C6  083E               	movf	??___flge+1,w
  9464     17C7  00B6               	movwf	___flge@ff1+1
  9465     17C8  083D               	movf	??___flge,w
  9466     17C9  00B5               	movwf	___flge@ff1
  9467     17CA                     l2489:
  9468     17CA  1FBC               	btfss	___flge@ff2+3,7
  9469     17CB  2FCD               	goto	u2791
  9470     17CC  2FCE               	goto	u2790
  9471     17CD                     u2791:
  9472     17CD  2FE6               	goto	l420
  9473     17CE                     u2790:
  9474     17CE                     l2491:
  9475     17CE  3000               	movlw	0
  9476     17CF  00BD               	movwf	??___flge
  9477     17D0  3000               	movlw	0
  9478     17D1  00BE               	movwf	??___flge+1
  9479     17D2  3000               	movlw	0
  9480     17D3  00BF               	movwf	??___flge+2
  9481     17D4  3080               	movlw	128
  9482     17D5  00C0               	movwf	??___flge+3
  9483     17D6  0839               	movf	___flge@ff2,w
  9484     17D7  02BD               	subwf	??___flge,f
  9485     17D8  083A               	movf	___flge@ff2+1,w
  9486     17D9  3BBE               	subwfb	??___flge+1,f
  9487     17DA  083B               	movf	___flge@ff2+2,w
  9488     17DB  3BBF               	subwfb	??___flge+2,f
  9489     17DC  083C               	movf	___flge@ff2+3,w
  9490     17DD  3BC0               	subwfb	??___flge+3,f
  9491     17DE  0840               	movf	??___flge+3,w
  9492     17DF  00BC               	movwf	___flge@ff2+3
  9493     17E0  083F               	movf	??___flge+2,w
  9494     17E1  00BB               	movwf	___flge@ff2+2
  9495     17E2  083E               	movf	??___flge+1,w
  9496     17E3  00BA               	movwf	___flge@ff2+1
  9497     17E4  083D               	movf	??___flge,w
  9498     17E5  00B9               	movwf	___flge@ff2
  9499     17E6                     l420:
  9500     17E6  3080               	movlw	128
  9501     17E7  06B8               	xorwf	___flge@ff1+3,f
  9502     17E8  3080               	movlw	128
  9503     17E9  06BC               	xorwf	___flge@ff2+3,f
  9504     17EA  083C               	movf	___flge@ff2+3,w
  9505     17EB  0238               	subwf	___flge@ff1+3,w
  9506     17EC  1D03               	skipz
  9507     17ED  2FF8               	goto	u2805
  9508     17EE  083B               	movf	___flge@ff2+2,w
  9509     17EF  0237               	subwf	___flge@ff1+2,w
  9510     17F0  1D03               	skipz
  9511     17F1  2FF8               	goto	u2805
  9512     17F2  083A               	movf	___flge@ff2+1,w
  9513     17F3  0236               	subwf	___flge@ff1+1,w
  9514     17F4  1D03               	skipz
  9515     17F5  2FF8               	goto	u2805
  9516     17F6  0839               	movf	___flge@ff2,w
  9517     17F7  0235               	subwf	___flge@ff1,w
  9518     17F8                     u2805:
  9519     17F8  1803               	skipnc
  9520     17F9  2FFB               	goto	u2801
  9521     17FA  2FFC               	goto	u2800
  9522     17FB                     u2801:
  9523     17FB  2FFE               	goto	l2495
  9524     17FC                     u2800:
  9525     17FC                     l2493:
  9526     17FC  1003               	clrc
  9527     17FD  2FFF               	goto	l425
  9528     17FE                     l2495:
  9529     17FE  1403               	setc
  9530     17FF                     l425:
  9531     17FF  0008               	return
  9532     1800                     __end_of___flge:
  9533                           
  9534                           	psect	text31
  9535     150D                     __ptext31:	
  9536 ;; *************** function ___fleq *****************
  9537 ;; Defined at:
  9538 ;;		line 4 in file "C:\Program Files\Microchip\xc8\v2.41\pic\sources\c99\common\fleq.c"
  9539 ;; Parameters:    Size  Location     Type
  9540 ;;  ff1             4    0[COMMON] unsigned int 
  9541 ;;  ff2             4    4[COMMON] unsigned int 
  9542 ;; Auto vars:     Size  Location     Type
  9543 ;;		None
  9544 ;; Return value:  Size  Location     Type
  9545 ;;		None               void
  9546 ;; Registers used:
  9547 ;;		wreg, status,2, status,0
  9548 ;; Tracked objects:
  9549 ;;		On entry : 0/0
  9550 ;;		On exit  : 0/0
  9551 ;;		Unchanged: 0/0
  9552 ;; Data sizes:     COMMON   BANK0   BANK1   BANK2   BANK3   BANK4   BANK5   BANK6   BANK7   BANK8   BANK9  BANK10  BANK1
      +1  BANK12  BANK13  BANK14  BANK15  BANK16  BANK17  BANK18  BANK19  BANK20  BANK21  BANK22  BANK23  BANK24  BANK25  BANK2
      +6  BANK27  BANK28  BANK29  BANK30  BANK31  BANK32  BANK33  BANK34  BANK35  BANK36  BANK37  BANK38  BANK39  BANK40  BANK4
      +1  BANK42  BANK43  BANK44  BANK45  BANK46  BANK47  BANK48  BANK49  BANK50
  9553 ;;      Params:         8       0       0       0       0       0       0       0       0       0       0       0       
      +0       0       0       0       0       0       0       0       0       0       0       0       0       0       0       
      +0       0       0       0       0       0       0       0       0       0       0       0       0       0       0       
      +0       0       0       0       0       0       0       0       0       0
  9554 ;;      Locals:         0       0       0       0       0       0       0       0       0       0       0       0       
      +0       0       0       0       0       0       0       0       0       0       0       0       0       0       0       
      +0       0       0       0       0       0       0       0       0       0       0       0       0       0       0       
      +0       0       0       0       0       0       0       0       0       0
  9555 ;;      Temps:          4       0       0       0       0       0       0       0       0       0       0       0       
      +0       0       0       0       0       0       0       0       0       0       0       0       0       0       0       
      +0       0       0       0       0       0       0       0       0       0       0       0       0       0       0       
      +0       0       0       0       0       0       0       0       0       0
  9556 ;;      Totals:        12       0       0       0       0       0       0       0       0       0       0       0       
      +0       0       0       0       0       0       0       0       0       0       0       0       0       0       0       
      +0       0       0       0       0       0       0       0       0       0       0       0       0       0       0       
      +0       0       0       0       0       0       0       0       0       0
  9557 ;;Total ram usage:       12 bytes
  9558 ;; Hardware stack levels used: 1
  9559 ;; This function calls:
  9560 ;;		Nothing
  9561 ;; This function is called by:
  9562 ;;		_efgtoa
  9563 ;; This function uses a non-reentrant model
  9564 ;;
  9565                           
  9566     150D                     ___fleq:	
  9567                           ;psect for function ___fleq
  9568                           
  9569     150D                     l2467:	
  9570                           ;incstack = 0
  9571                           ; Regs used in ___fleq: [wreg+status,2+status,0]
  9572                           
  9573     150D  3000               	movlw	0
  9574     150E  0570               	andwf	___fleq@ff1,w
  9575     150F  00F8               	movwf	??___fleq
  9576     1510  3000               	movlw	0
  9577     1511  0571               	andwf	___fleq@ff1+1,w
  9578     1512  00F9               	movwf	??___fleq+1
  9579     1513  3080               	movlw	128
  9580     1514  0572               	andwf	___fleq@ff1+2,w
  9581     1515  00FA               	movwf	??___fleq+2
  9582     1516  307F               	movlw	127
  9583     1517  0573               	andwf	___fleq@ff1+3,w
  9584     1518  00FB               	movwf	??___fleq+3
  9585     1519  087B               	movf	??___fleq+3,w
  9586     151A  047A               	iorwf	??___fleq+2,w
  9587     151B  0479               	iorwf	??___fleq+1,w
  9588     151C  0478               	iorwf	??___fleq,w
  9589     151D  1D03               	skipz
  9590     151E  2D20               	goto	u2731
  9591     151F  2D21               	goto	u2730
  9592     1520                     u2731:
  9593     1520  2D29               	goto	l408
  9594     1521                     u2730:
  9595     1521                     l2469:
  9596     1521  3000               	movlw	0
  9597     1522  00F3               	movwf	___fleq@ff1+3
  9598     1523  3000               	movlw	0
  9599     1524  00F2               	movwf	___fleq@ff1+2
  9600     1525  3000               	movlw	0
  9601     1526  00F1               	movwf	___fleq@ff1+1
  9602     1527  3000               	movlw	0
  9603     1528  00F0               	movwf	___fleq@ff1
  9604     1529                     l408:
  9605     1529  3000               	movlw	0
  9606     152A  0574               	andwf	___fleq@ff2,w
  9607     152B  00F8               	movwf	??___fleq
  9608     152C  3000               	movlw	0
  9609     152D  0575               	andwf	___fleq@ff2+1,w
  9610     152E  00F9               	movwf	??___fleq+1
  9611     152F  3080               	movlw	128
  9612     1530  0576               	andwf	___fleq@ff2+2,w
  9613     1531  00FA               	movwf	??___fleq+2
  9614     1532  307F               	movlw	127
  9615     1533  0577               	andwf	___fleq@ff2+3,w
  9616     1534  00FB               	movwf	??___fleq+3
  9617     1535  087B               	movf	??___fleq+3,w
  9618     1536  047A               	iorwf	??___fleq+2,w
  9619     1537  0479               	iorwf	??___fleq+1,w
  9620     1538  0478               	iorwf	??___fleq,w
  9621     1539  1D03               	skipz
  9622     153A  2D3C               	goto	u2741
  9623     153B  2D3D               	goto	u2740
  9624     153C                     u2741:
  9625     153C  2D45               	goto	l409
  9626     153D                     u2740:
  9627     153D                     l2471:
  9628     153D  3000               	movlw	0
  9629     153E  00F7               	movwf	___fleq@ff2+3
  9630     153F  3000               	movlw	0
  9631     1540  00F6               	movwf	___fleq@ff2+2
  9632     1541  3000               	movlw	0
  9633     1542  00F5               	movwf	___fleq@ff2+1
  9634     1543  3000               	movlw	0
  9635     1544  00F4               	movwf	___fleq@ff2
  9636     1545                     l409:
  9637     1545  0877               	movf	___fleq@ff2+3,w
  9638     1546  0673               	xorwf	___fleq@ff1+3,w
  9639     1547  1D03               	skipz
  9640     1548  2D53               	goto	u2755
  9641     1549  0876               	movf	___fleq@ff2+2,w
  9642     154A  0672               	xorwf	___fleq@ff1+2,w
  9643     154B  1D03               	skipz
  9644     154C  2D53               	goto	u2755
  9645     154D  0875               	movf	___fleq@ff2+1,w
  9646     154E  0671               	xorwf	___fleq@ff1+1,w
  9647     154F  1D03               	skipz
  9648     1550  2D53               	goto	u2755
  9649     1551  0874               	movf	___fleq@ff2,w
  9650     1552  0670               	xorwf	___fleq@ff1,w
  9651     1553                     u2755:
  9652     1553  1903               	skipnz
  9653     1554  2D56               	goto	u2751
  9654     1555  2D57               	goto	u2750
  9655     1556                     u2751:
  9656     1556  2D59               	goto	l2475
  9657     1557                     u2750:
  9658     1557                     l2473:
  9659     1557  1003               	clrc
  9660     1558  2D5A               	goto	l414
  9661     1559                     l2475:
  9662     1559  1403               	setc
  9663     155A                     l414:
  9664     155A  0008               	return
  9665     155B                     __end_of___fleq:
  9666                           
  9667                           	psect	text32
  9668     0041                     __ptext32:	
  9669 ;; *************** function ___fldiv *****************
  9670 ;; Defined at:
  9671 ;;		line 8 in file "C:\Program Files\Microchip\xc8\v2.41\pic\sources\c99\common\sprcdiv.c"
  9672 ;; Parameters:    Size  Location     Type
  9673 ;;  a               4    0[COMMON] unsigned int 
  9674 ;;  b               4    4[COMMON] unsigned int 
  9675 ;; Auto vars:     Size  Location     Type
  9676 ;;  grs             4    7[BANK0 ] unsigned long 
  9677 ;;  rem             4    0[BANK0 ] unsigned long 
  9678 ;;  new_exp         2    5[BANK0 ] int 
  9679 ;;  aexp            1   12[BANK0 ] unsigned char 
  9680 ;;  bexp            1   11[BANK0 ] unsigned char 
  9681 ;;  sign            1    4[BANK0 ] unsigned char 
  9682 ;; Return value:  Size  Location     Type
  9683 ;;                  4    0[COMMON] unsigned char 
  9684 ;; Registers used:
  9685 ;;		wreg, status,2, status,0
  9686 ;; Tracked objects:
  9687 ;;		On entry : 0/0
  9688 ;;		On exit  : 0/0
  9689 ;;		Unchanged: 0/0
  9690 ;; Data sizes:     COMMON   BANK0   BANK1   BANK2   BANK3   BANK4   BANK5   BANK6   BANK7   BANK8   BANK9  BANK10  BANK1
      +1  BANK12  BANK13  BANK14  BANK15  BANK16  BANK17  BANK18  BANK19  BANK20  BANK21  BANK22  BANK23  BANK24  BANK25  BANK2
      +6  BANK27  BANK28  BANK29  BANK30  BANK31  BANK32  BANK33  BANK34  BANK35  BANK36  BANK37  BANK38  BANK39  BANK40  BANK4
      +1  BANK42  BANK43  BANK44  BANK45  BANK46  BANK47  BANK48  BANK49  BANK50
  9691 ;;      Params:         8       0       0       0       0       0       0       0       0       0       0       0       
      +0       0       0       0       0       0       0       0       0       0       0       0       0       0       0       
      +0       0       0       0       0       0       0       0       0       0       0       0       0       0       0       
      +0       0       0       0       0       0       0       0       0       0
  9692 ;;      Locals:         0      13       0       0       0       0       0       0       0       0       0       0       
      +0       0       0       0       0       0       0       0       0       0       0       0       0       0       0       
      +0       0       0       0       0       0       0       0       0       0       0       0       0       0       0       
      +0       0       0       0       0       0       0       0       0       0
  9693 ;;      Temps:          5       0       0       0       0       0       0       0       0       0       0       0       
      +0       0       0       0       0       0       0       0       0       0       0       0       0       0       0       
      +0       0       0       0       0       0       0       0       0       0       0       0       0       0       0       
      +0       0       0       0       0       0       0       0       0       0
  9694 ;;      Totals:        13      13       0       0       0       0       0       0       0       0       0       0       
      +0       0       0       0       0       0       0       0       0       0       0       0       0       0       0       
      +0       0       0       0       0       0       0       0       0       0       0       0       0       0       0       
      +0       0       0       0       0       0       0       0       0       0
  9695 ;;Total ram usage:       26 bytes
  9696 ;; Hardware stack levels used: 1
  9697 ;; This function calls:
  9698 ;;		Nothing
  9699 ;; This function is called by:
  9700 ;;		_efgtoa
  9701 ;; This function uses a non-reentrant model
  9702 ;;
  9703                           
  9704     0041                     ___fldiv:	
  9705                           ;psect for function ___fldiv
  9706                           
  9707     0041                     l2597:	
  9708                           ;incstack = 0
  9709                           ; Regs used in ___fldiv: [wreg+status,2+status,0]
  9710                           
  9711     0041  0877               	movf	___fldiv@b+3,w
  9712     0042  3980               	andlw	128
  9713     0043  0140               	movlb	0	; select bank0
  9714     0044  00A4               	movwf	___fldiv@sign
  9715     0045                     l2599:
  9716     0045  3577               	lslf	___fldiv@b+3,w
  9717     0046  00AB               	movwf	___fldiv@bexp
  9718     0047                     l2601:
  9719     0047  1FF6               	btfss	___fldiv@b+2,7
  9720     0048  284A               	goto	u3051
  9721     0049  284B               	goto	u3050
  9722     004A                     u3051:
  9723     004A  284C               	goto	l2605
  9724     004B                     u3050:
  9725     004B                     l2603:
  9726     004B  142B               	bsf	___fldiv@bexp,0
  9727     004C                     l2605:
  9728     004C  082B               	movf	___fldiv@bexp,w
  9729     004D  1903               	btfsc	3,2
  9730     004E  2850               	goto	u3061
  9731     004F  2851               	goto	u3060
  9732     0050                     u3061:
  9733     0050  2861               	goto	l2615
  9734     0051                     u3060:
  9735     0051                     l2607:
  9736     0051  0A2B               	incf	___fldiv@bexp,w
  9737     0052  1D03               	btfss	3,2
  9738     0053  2855               	goto	u3071
  9739     0054  2856               	goto	u3070
  9740     0055                     u3071:
  9741     0055  285E               	goto	l2611
  9742     0056                     u3070:
  9743     0056                     l2609:
  9744     0056  3000               	movlw	0
  9745     0057  00F7               	movwf	___fldiv@b+3
  9746     0058  3000               	movlw	0
  9747     0059  00F6               	movwf	___fldiv@b+2
  9748     005A  3000               	movlw	0
  9749     005B  00F5               	movwf	___fldiv@b+1
  9750     005C  3000               	movlw	0
  9751     005D  00F4               	movwf	___fldiv@b
  9752     005E                     l2611:
  9753     005E  17F6               	bsf	___fldiv@b+2,7
  9754     005F                     l2613:
  9755     005F  01F7               	clrf	___fldiv@b+3
  9756     0060  2869               	goto	l2617
  9757     0061                     l2615:
  9758     0061  3000               	movlw	0
  9759     0062  00F7               	movwf	___fldiv@b+3
  9760     0063  3000               	movlw	0
  9761     0064  00F6               	movwf	___fldiv@b+2
  9762     0065  3000               	movlw	0
  9763     0066  00F5               	movwf	___fldiv@b+1
  9764     0067  3000               	movlw	0
  9765     0068  00F4               	movwf	___fldiv@b
  9766     0069                     l2617:
  9767     0069  0873               	movf	___fldiv@a+3,w
  9768     006A  3980               	andlw	128
  9769     006B  00F8               	movwf	??___fldiv
  9770     006C  0878               	movf	??___fldiv,w
  9771     006D  06A4               	xorwf	___fldiv@sign,f
  9772     006E                     l2619:
  9773     006E  3573               	lslf	___fldiv@a+3,w
  9774     006F  00AC               	movwf	___fldiv@aexp
  9775     0070                     l2621:
  9776     0070  1FF2               	btfss	___fldiv@a+2,7
  9777     0071  2873               	goto	u3081
  9778     0072  2874               	goto	u3080
  9779     0073                     u3081:
  9780     0073  2875               	goto	l2625
  9781     0074                     u3080:
  9782     0074                     l2623:
  9783     0074  142C               	bsf	___fldiv@aexp,0
  9784     0075                     l2625:
  9785     0075  082C               	movf	___fldiv@aexp,w
  9786     0076  1903               	btfsc	3,2
  9787     0077  2879               	goto	u3091
  9788     0078  287A               	goto	u3090
  9789     0079                     u3091:
  9790     0079  288A               	goto	l2635
  9791     007A                     u3090:
  9792     007A                     l2627:
  9793     007A  0A2C               	incf	___fldiv@aexp,w
  9794     007B  1D03               	btfss	3,2
  9795     007C  287E               	goto	u3101
  9796     007D  287F               	goto	u3100
  9797     007E                     u3101:
  9798     007E  2887               	goto	l2631
  9799     007F                     u3100:
  9800     007F                     l2629:
  9801     007F  3000               	movlw	0
  9802     0080  00F3               	movwf	___fldiv@a+3
  9803     0081  3000               	movlw	0
  9804     0082  00F2               	movwf	___fldiv@a+2
  9805     0083  3000               	movlw	0
  9806     0084  00F1               	movwf	___fldiv@a+1
  9807     0085  3000               	movlw	0
  9808     0086  00F0               	movwf	___fldiv@a
  9809     0087                     l2631:
  9810     0087  17F2               	bsf	___fldiv@a+2,7
  9811     0088                     l2633:
  9812     0088  01F3               	clrf	___fldiv@a+3
  9813     0089  2892               	goto	l596
  9814     008A                     l2635:
  9815     008A  3000               	movlw	0
  9816     008B  00F3               	movwf	___fldiv@a+3
  9817     008C  3000               	movlw	0
  9818     008D  00F2               	movwf	___fldiv@a+2
  9819     008E  3000               	movlw	0
  9820     008F  00F1               	movwf	___fldiv@a+1
  9821     0090  3000               	movlw	0
  9822     0091  00F0               	movwf	___fldiv@a
  9823     0092                     l596:
  9824     0092  0873               	movf	___fldiv@a+3,w
  9825     0093  0472               	iorwf	___fldiv@a+2,w
  9826     0094  0471               	iorwf	___fldiv@a+1,w
  9827     0095  0470               	iorwf	___fldiv@a,w
  9828     0096  1D03               	skipz
  9829     0097  2899               	goto	u3111
  9830     0098  289A               	goto	u3110
  9831     0099                     u3111:
  9832     0099  28B3               	goto	l2645
  9833     009A                     u3110:
  9834     009A                     l2637:
  9835     009A  3000               	movlw	0
  9836     009B  00F7               	movwf	___fldiv@b+3
  9837     009C  3000               	movlw	0
  9838     009D  00F6               	movwf	___fldiv@b+2
  9839     009E  3000               	movlw	0
  9840     009F  00F5               	movwf	___fldiv@b+1
  9841     00A0  3000               	movlw	0
  9842     00A1  00F4               	movwf	___fldiv@b
  9843     00A2  3080               	movlw	128
  9844     00A3  04F6               	iorwf	___fldiv@b+2,f
  9845     00A4  307F               	movlw	127
  9846     00A5  04F7               	iorwf	___fldiv@b+3,f
  9847     00A6                     l2639:
  9848     00A6  0824               	movf	___fldiv@sign,w
  9849     00A7  00F8               	movwf	??___fldiv
  9850     00A8  0878               	movf	??___fldiv,w
  9851     00A9  04F7               	iorwf	___fldiv@b+3,f
  9852     00AA                     l2641:
  9853     00AA  0877               	movf	___fldiv@b+3,w
  9854     00AB  00F3               	movwf	?___fldiv+3
  9855     00AC  0876               	movf	___fldiv@b+2,w
  9856     00AD  00F2               	movwf	?___fldiv+2
  9857     00AE  0875               	movf	___fldiv@b+1,w
  9858     00AF  00F1               	movwf	?___fldiv+1
  9859     00B0  0874               	movf	___fldiv@b,w
  9860     00B1  00F0               	movwf	?___fldiv
  9861     00B2  29EA               	goto	l598
  9862     00B3                     l2645:
  9863     00B3  082B               	movf	___fldiv@bexp,w
  9864     00B4  1D03               	btfss	3,2
  9865     00B5  28B7               	goto	u3121
  9866     00B6  28B8               	goto	u3120
  9867     00B7                     u3121:
  9868     00B7  28C1               	goto	l2651
  9869     00B8                     u3120:
  9870     00B8                     l2647:
  9871     00B8  3000               	movlw	0
  9872     00B9  00F3               	movwf	?___fldiv+3
  9873     00BA  3000               	movlw	0
  9874     00BB  00F2               	movwf	?___fldiv+2
  9875     00BC  3000               	movlw	0
  9876     00BD  00F1               	movwf	?___fldiv+1
  9877     00BE  3000               	movlw	0
  9878     00BF  00F0               	movwf	?___fldiv
  9879     00C0  29EA               	goto	l598
  9880     00C1                     l2651:
  9881     00C1  082B               	movf	___fldiv@bexp,w
  9882     00C2  00F8               	movwf	??___fldiv
  9883     00C3  01F9               	clrf	??___fldiv+1
  9884     00C4  0879               	movf	??___fldiv+1,w
  9885     00C5  00FB               	movwf	??___fldiv+3
  9886     00C6  082C               	movf	___fldiv@aexp,w
  9887     00C7  0278               	subwf	??___fldiv,w
  9888     00C8  00FA               	movwf	??___fldiv+2
  9889     00C9  1C03               	skipc
  9890     00CA  03FB               	decf	??___fldiv+3,f
  9891     00CB  087A               	movf	??___fldiv+2,w
  9892     00CC  3E7F               	addlw	127
  9893     00CD  00A5               	movwf	___fldiv@new_exp
  9894     00CE  3000               	movlw	0
  9895     00CF  3D7B               	addwfc	??___fldiv+3,w
  9896     00D0  00A6               	movwf	___fldiv@new_exp+1
  9897     00D1                     l2653:
  9898     00D1  0877               	movf	___fldiv@b+3,w
  9899     00D2  00A3               	movwf	___fldiv@rem+3
  9900     00D3  0876               	movf	___fldiv@b+2,w
  9901     00D4  00A2               	movwf	___fldiv@rem+2
  9902     00D5  0875               	movf	___fldiv@b+1,w
  9903     00D6  00A1               	movwf	___fldiv@rem+1
  9904     00D7  0874               	movf	___fldiv@b,w
  9905     00D8  00A0               	movwf	___fldiv@rem
  9906     00D9                     l2655:
  9907     00D9  3000               	movlw	0
  9908     00DA  00F7               	movwf	___fldiv@b+3
  9909     00DB  3000               	movlw	0
  9910     00DC  00F6               	movwf	___fldiv@b+2
  9911     00DD  3000               	movlw	0
  9912     00DE  00F5               	movwf	___fldiv@b+1
  9913     00DF  3000               	movlw	0
  9914     00E0  00F4               	movwf	___fldiv@b
  9915     00E1                     l2657:
  9916     00E1  3000               	movlw	0
  9917     00E2  00AA               	movwf	___fldiv@grs+3
  9918     00E3  3000               	movlw	0
  9919     00E4  00A9               	movwf	___fldiv@grs+2
  9920     00E5  3000               	movlw	0
  9921     00E6  00A8               	movwf	___fldiv@grs+1
  9922     00E7  3000               	movlw	0
  9923     00E8  00A7               	movwf	___fldiv@grs
  9924     00E9                     l2659:
  9925     00E9  01AC               	clrf	___fldiv@aexp
  9926     00EA  2929               	goto	l2679
  9927     00EB                     l2661:
  9928     00EB  082C               	movf	___fldiv@aexp,w
  9929     00EC  1903               	btfsc	3,2
  9930     00ED  28EF               	goto	u3131
  9931     00EE  28F0               	goto	u3130
  9932     00EF                     u3131:
  9933     00EF  290A               	goto	l2671
  9934     00F0                     u3130:
  9935     00F0                     l2663:
  9936     00F0  3001               	movlw	1
  9937     00F1                     u3145:
  9938     00F1  35A0               	lslf	___fldiv@rem,f
  9939     00F2  0DA1               	rlf	___fldiv@rem+1,f
  9940     00F3  0DA2               	rlf	___fldiv@rem+2,f
  9941     00F4  0DA3               	rlf	___fldiv@rem+3,f
  9942     00F5  0B89               	decfsz	9,f
  9943     00F6  28F1               	goto	u3145
  9944     00F7  3001               	movlw	1
  9945     00F8                     u3155:
  9946     00F8  35F4               	lslf	___fldiv@b,f
  9947     00F9  0DF5               	rlf	___fldiv@b+1,f
  9948     00FA  0DF6               	rlf	___fldiv@b+2,f
  9949     00FB  0DF7               	rlf	___fldiv@b+3,f
  9950     00FC  0B89               	decfsz	9,f
  9951     00FD  28F8               	goto	u3155
  9952     00FE                     l2665:
  9953     00FE  1FAA               	btfss	___fldiv@grs+3,7
  9954     00FF  2901               	goto	u3161
  9955     0100  2902               	goto	u3160
  9956     0101                     u3161:
  9957     0101  2903               	goto	l2669
  9958     0102                     u3160:
  9959     0102                     l2667:
  9960     0102  1474               	bsf	___fldiv@b,0
  9961     0103                     l2669:
  9962     0103  3001               	movlw	1
  9963     0104                     u3175:
  9964     0104  35A7               	lslf	___fldiv@grs,f
  9965     0105  0DA8               	rlf	___fldiv@grs+1,f
  9966     0106  0DA9               	rlf	___fldiv@grs+2,f
  9967     0107  0DAA               	rlf	___fldiv@grs+3,f
  9968     0108  0B89               	decfsz	9,f
  9969     0109  2904               	goto	u3175
  9970     010A                     l2671:
  9971     010A  0873               	movf	___fldiv@a+3,w
  9972     010B  0223               	subwf	___fldiv@rem+3,w
  9973     010C  1D03               	skipz
  9974     010D  2918               	goto	u3185
  9975     010E  0872               	movf	___fldiv@a+2,w
  9976     010F  0222               	subwf	___fldiv@rem+2,w
  9977     0110  1D03               	skipz
  9978     0111  2918               	goto	u3185
  9979     0112  0871               	movf	___fldiv@a+1,w
  9980     0113  0221               	subwf	___fldiv@rem+1,w
  9981     0114  1D03               	skipz
  9982     0115  2918               	goto	u3185
  9983     0116  0870               	movf	___fldiv@a,w
  9984     0117  0220               	subwf	___fldiv@rem,w
  9985     0118                     u3185:
  9986     0118  1C03               	skipc
  9987     0119  291B               	goto	u3181
  9988     011A  291C               	goto	u3180
  9989     011B                     u3181:
  9990     011B  2925               	goto	l2677
  9991     011C                     u3180:
  9992     011C                     l2673:
  9993     011C  172A               	bsf	___fldiv@grs+3,6
  9994     011D                     l2675:
  9995     011D  0870               	movf	___fldiv@a,w
  9996     011E  02A0               	subwf	___fldiv@rem,f
  9997     011F  0871               	movf	___fldiv@a+1,w
  9998     0120  3BA1               	subwfb	___fldiv@rem+1,f
  9999     0121  0872               	movf	___fldiv@a+2,w
 10000     0122  3BA2               	subwfb	___fldiv@rem+2,f
 10001     0123  0873               	movf	___fldiv@a+3,w
 10002     0124  3BA3               	subwfb	___fldiv@rem+3,f
 10003     0125                     l2677:
 10004     0125  3001               	movlw	1
 10005     0126  00F8               	movwf	??___fldiv
 10006     0127  0878               	movf	??___fldiv,w
 10007     0128  07AC               	addwf	___fldiv@aexp,f
 10008     0129                     l2679:
 10009     0129  301A               	movlw	26
 10010     012A  022C               	subwf	___fldiv@aexp,w
 10011     012B  1C03               	skipc
 10012     012C  292E               	goto	u3191
 10013     012D  292F               	goto	u3190
 10014     012E                     u3191:
 10015     012E  28EB               	goto	l2661
 10016     012F                     u3190:
 10017     012F                     l2681:
 10018     012F  0823               	movf	___fldiv@rem+3,w
 10019     0130  0422               	iorwf	___fldiv@rem+2,w
 10020     0131  0421               	iorwf	___fldiv@rem+1,w
 10021     0132  0420               	iorwf	___fldiv@rem,w
 10022     0133  1903               	skipnz
 10023     0134  2936               	goto	u3201
 10024     0135  2937               	goto	u3200
 10025     0136                     u3201:
 10026     0136  2950               	goto	l2695
 10027     0137                     u3200:
 10028     0137                     l2683:
 10029     0137  1427               	bsf	___fldiv@grs,0
 10030     0138  2950               	goto	l2695
 10031     0139                     l2685:
 10032     0139  3001               	movlw	1
 10033     013A                     u3215:
 10034     013A  35F4               	lslf	___fldiv@b,f
 10035     013B  0DF5               	rlf	___fldiv@b+1,f
 10036     013C  0DF6               	rlf	___fldiv@b+2,f
 10037     013D  0DF7               	rlf	___fldiv@b+3,f
 10038     013E  0B89               	decfsz	9,f
 10039     013F  293A               	goto	u3215
 10040     0140                     l2687:
 10041     0140  1FAA               	btfss	___fldiv@grs+3,7
 10042     0141  2943               	goto	u3221
 10043     0142  2944               	goto	u3220
 10044     0143                     u3221:
 10045     0143  2945               	goto	l2691
 10046     0144                     u3220:
 10047     0144                     l2689:
 10048     0144  1474               	bsf	___fldiv@b,0
 10049     0145                     l2691:
 10050     0145  3001               	movlw	1
 10051     0146                     u3235:
 10052     0146  35A7               	lslf	___fldiv@grs,f
 10053     0147  0DA8               	rlf	___fldiv@grs+1,f
 10054     0148  0DA9               	rlf	___fldiv@grs+2,f
 10055     0149  0DAA               	rlf	___fldiv@grs+3,f
 10056     014A  0B89               	decfsz	9,f
 10057     014B  2946               	goto	u3235
 10058     014C                     l2693:
 10059     014C  30FF               	movlw	255
 10060     014D  07A5               	addwf	___fldiv@new_exp,f
 10061     014E  30FF               	movlw	255
 10062     014F  3DA6               	addwfc	___fldiv@new_exp+1,f
 10063     0150                     l2695:
 10064     0150  1FF6               	btfss	___fldiv@b+2,7
 10065     0151  2953               	goto	u3241
 10066     0152  2954               	goto	u3240
 10067     0153                     u3241:
 10068     0153  2939               	goto	l2685
 10069     0154                     u3240:
 10070     0154                     l2697:
 10071     0154  01AC               	clrf	___fldiv@aexp
 10072     0155                     l2699:
 10073     0155  1FAA               	btfss	___fldiv@grs+3,7
 10074     0156  2958               	goto	u3251
 10075     0157  2959               	goto	u3250
 10076     0158                     u3251:
 10077     0158  2975               	goto	l2707
 10078     0159                     u3250:
 10079     0159                     l2701:
 10080     0159  30FF               	movlw	255
 10081     015A  0527               	andwf	___fldiv@grs,w
 10082     015B  00F8               	movwf	??___fldiv
 10083     015C  30FF               	movlw	255
 10084     015D  0528               	andwf	___fldiv@grs+1,w
 10085     015E  00F9               	movwf	??___fldiv+1
 10086     015F  30FF               	movlw	255
 10087     0160  0529               	andwf	___fldiv@grs+2,w
 10088     0161  00FA               	movwf	??___fldiv+2
 10089     0162  307F               	movlw	127
 10090     0163  052A               	andwf	___fldiv@grs+3,w
 10091     0164  00FB               	movwf	??___fldiv+3
 10092     0165  087B               	movf	??___fldiv+3,w
 10093     0166  047A               	iorwf	??___fldiv+2,w
 10094     0167  0479               	iorwf	??___fldiv+1,w
 10095     0168  0478               	iorwf	??___fldiv,w
 10096     0169  1903               	skipnz
 10097     016A  296C               	goto	u3261
 10098     016B  296D               	goto	u3260
 10099     016C                     u3261:
 10100     016C  2970               	goto	l612
 10101     016D                     u3260:
 10102     016D                     l2703:
 10103     016D  01AC               	clrf	___fldiv@aexp
 10104     016E  0AAC               	incf	___fldiv@aexp,f
 10105     016F  2975               	goto	l2707
 10106     0170                     l612:
 10107     0170  1C74               	btfss	___fldiv@b,0
 10108     0171  2973               	goto	u3271
 10109     0172  2974               	goto	u3270
 10110     0173                     u3271:
 10111     0173  2975               	goto	l2707
 10112     0174                     u3270:
 10113     0174  296D               	goto	l2703
 10114     0175                     l2707:
 10115     0175  082C               	movf	___fldiv@aexp,w
 10116     0176  1903               	btfsc	3,2
 10117     0177  2979               	goto	u3281
 10118     0178  297A               	goto	u3280
 10119     0179                     u3281:
 10120     0179  29A2               	goto	l2717
 10121     017A                     u3280:
 10122     017A                     l2709:
 10123     017A  3001               	movlw	1
 10124     017B  07F4               	addwf	___fldiv@b,f
 10125     017C  3000               	movlw	0
 10126     017D  3DF5               	addwfc	___fldiv@b+1,f
 10127     017E  3000               	movlw	0
 10128     017F  3DF6               	addwfc	___fldiv@b+2,f
 10129     0180  3000               	movlw	0
 10130     0181  3DF7               	addwfc	___fldiv@b+3,f
 10131     0182                     l2711:
 10132     0182  1C77               	btfss	___fldiv@b+3,0
 10133     0183  2985               	goto	u3291
 10134     0184  2986               	goto	u3290
 10135     0185                     u3291:
 10136     0185  29A2               	goto	l2717
 10137     0186                     u3290:
 10138     0186                     l2713:
 10139     0186  0874               	movf	___fldiv@b,w
 10140     0187  00F8               	movwf	??___fldiv
 10141     0188  0875               	movf	___fldiv@b+1,w
 10142     0189  00F9               	movwf	??___fldiv+1
 10143     018A  0876               	movf	___fldiv@b+2,w
 10144     018B  00FA               	movwf	??___fldiv+2
 10145     018C  0877               	movf	___fldiv@b+3,w
 10146     018D  00FB               	movwf	??___fldiv+3
 10147     018E  3001               	movlw	1
 10148     018F  00FC               	movwf	??___fldiv+4
 10149     0190                     u3305:
 10150     0190  37FB               	asrf	??___fldiv+3,f
 10151     0191  0CFA               	rrf	??___fldiv+2,f
 10152     0192  0CF9               	rrf	??___fldiv+1,f
 10153     0193  0CF8               	rrf	??___fldiv,f
 10154     0194                     u3300:
 10155     0194  0BFC               	decfsz	??___fldiv+4,f
 10156     0195  2990               	goto	u3305
 10157     0196  087B               	movf	??___fldiv+3,w
 10158     0197  00F7               	movwf	___fldiv@b+3
 10159     0198  087A               	movf	??___fldiv+2,w
 10160     0199  00F6               	movwf	___fldiv@b+2
 10161     019A  0879               	movf	??___fldiv+1,w
 10162     019B  00F5               	movwf	___fldiv@b+1
 10163     019C  0878               	movf	??___fldiv,w
 10164     019D  00F4               	movwf	___fldiv@b
 10165     019E                     l2715:
 10166     019E  3001               	movlw	1
 10167     019F  07A5               	addwf	___fldiv@new_exp,f
 10168     01A0  3000               	movlw	0
 10169     01A1  3DA6               	addwfc	___fldiv@new_exp+1,f
 10170     01A2                     l2717:
 10171     01A2  0826               	movf	___fldiv@new_exp+1,w
 10172     01A3  3A80               	xorlw	128
 10173     01A4  00F8               	movwf	??___fldiv
 10174     01A5  3080               	movlw	128
 10175     01A6  0278               	subwf	??___fldiv,w
 10176     01A7  1D03               	skipz
 10177     01A8  29AB               	goto	u3315
 10178     01A9  30FF               	movlw	255
 10179     01AA  0225               	subwf	___fldiv@new_exp,w
 10180     01AB                     u3315:
 10181     01AB  1C03               	skipc
 10182     01AC  29AE               	goto	u3311
 10183     01AD  29AF               	goto	u3310
 10184     01AE                     u3311:
 10185     01AE  29BC               	goto	l617
 10186     01AF                     u3310:
 10187     01AF                     l2719:
 10188     01AF  30FF               	movlw	255
 10189     01B0  0140               	movlb	0	; select bank0
 10190     01B1  00A5               	movwf	___fldiv@new_exp
 10191     01B2  3000               	movlw	0
 10192     01B3  00A6               	movwf	___fldiv@new_exp+1
 10193     01B4  3000               	movlw	0
 10194     01B5  00F7               	movwf	___fldiv@b+3
 10195     01B6  3000               	movlw	0
 10196     01B7  00F6               	movwf	___fldiv@b+2
 10197     01B8  3000               	movlw	0
 10198     01B9  00F5               	movwf	___fldiv@b+1
 10199     01BA  3000               	movlw	0
 10200     01BB  00F4               	movwf	___fldiv@b
 10201     01BC                     l617:
 10202     01BC  0140               	movlb	0	; select bank0
 10203     01BD  0826               	movf	___fldiv@new_exp+1,w
 10204     01BE  3A80               	xorlw	128
 10205     01BF  00F8               	movwf	??___fldiv
 10206     01C0  3080               	movlw	128
 10207     01C1  0278               	subwf	??___fldiv,w
 10208     01C2  1D03               	skipz
 10209     01C3  29C6               	goto	u3325
 10210     01C4  3001               	movlw	1
 10211     01C5  0225               	subwf	___fldiv@new_exp,w
 10212     01C6                     u3325:
 10213     01C6  1803               	skipnc
 10214     01C7  29C9               	goto	u3321
 10215     01C8  29CA               	goto	u3320
 10216     01C9                     u3321:
 10217     01C9  29D6               	goto	l618
 10218     01CA                     u3320:
 10219     01CA                     l2721:
 10220     01CA  0140               	movlb	0	; select bank0
 10221     01CB  01A5               	clrf	___fldiv@new_exp
 10222     01CC  01A6               	clrf	___fldiv@new_exp+1
 10223     01CD                     l2723:
 10224     01CD  3000               	movlw	0
 10225     01CE  00F7               	movwf	___fldiv@b+3
 10226     01CF  3000               	movlw	0
 10227     01D0  00F6               	movwf	___fldiv@b+2
 10228     01D1  3000               	movlw	0
 10229     01D2  00F5               	movwf	___fldiv@b+1
 10230     01D3  3000               	movlw	0
 10231     01D4  00F4               	movwf	___fldiv@b
 10232     01D5                     l2725:
 10233     01D5  01A4               	clrf	___fldiv@sign
 10234     01D6                     l618:
 10235     01D6  0140               	movlb	0	; select bank0
 10236     01D7  0825               	movf	___fldiv@new_exp,w
 10237     01D8  00AB               	movwf	___fldiv@bexp
 10238     01D9                     l2727:
 10239     01D9  1C2B               	btfss	___fldiv@bexp,0
 10240     01DA  29DC               	goto	u3331
 10241     01DB  29DD               	goto	u3330
 10242     01DC                     u3331:
 10243     01DC  29DF               	goto	l2731
 10244     01DD                     u3330:
 10245     01DD                     l2729:
 10246     01DD  17F6               	bsf	___fldiv@b+2,7
 10247     01DE  29E3               	goto	l620
 10248     01DF                     l2731:
 10249     01DF  307F               	movlw	127
 10250     01E0  00F8               	movwf	??___fldiv
 10251     01E1  0878               	movf	??___fldiv,w
 10252     01E2  05F6               	andwf	___fldiv@b+2,f
 10253     01E3                     l620:
 10254     01E3  362B               	lsrf	___fldiv@bexp,w
 10255     01E4  00F7               	movwf	___fldiv@b+3
 10256     01E5  0824               	movf	___fldiv@sign,w
 10257     01E6  00F8               	movwf	??___fldiv
 10258     01E7  0878               	movf	??___fldiv,w
 10259     01E8  04F7               	iorwf	___fldiv@b+3,f
 10260     01E9  28AA               	goto	l2641
 10261     01EA                     l598:
 10262     01EA  0008               	return
 10263     01EB                     __end_of___fldiv:
 10264                           
 10265                           	psect	text33
 10266     12BC                     __ptext33:	
 10267 ;; *************** function _LCD_String *****************
 10268 ;; Defined at:
 10269 ;;		line 178 in file "LCD_Analog_button.c"
 10270 ;; Parameters:    Size  Location     Type
 10271 ;;  text            2    3[COMMON] PTR const unsigned char 
 10272 ;;		 -> Display_Temperature@buffer(6), Display_Oxygen_Level@buffer(5), STR_1(15), 
 10273 ;; Auto vars:     Size  Location     Type
 10274 ;;		None
 10275 ;; Return value:  Size  Location     Type
 10276 ;;                  1    wreg      void 
 10277 ;; Registers used:
 10278 ;;		wreg, fsr0l, fsr0h, status,2, status,0, pclath, cstack
 10279 ;; Tracked objects:
 10280 ;;		On entry : 0/0
 10281 ;;		On exit  : 0/0
 10282 ;;		Unchanged: 0/0
 10283 ;; Data sizes:     COMMON   BANK0   BANK1   BANK2   BANK3   BANK4   BANK5   BANK6   BANK7   BANK8   BANK9  BANK10  BANK1
      +1  BANK12  BANK13  BANK14  BANK15  BANK16  BANK17  BANK18  BANK19  BANK20  BANK21  BANK22  BANK23  BANK24  BANK25  BANK2
      +6  BANK27  BANK28  BANK29  BANK30  BANK31  BANK32  BANK33  BANK34  BANK35  BANK36  BANK37  BANK38  BANK39  BANK40  BANK4
      +1  BANK42  BANK43  BANK44  BANK45  BANK46  BANK47  BANK48  BANK49  BANK50
 10284 ;;      Params:         2       0       0       0       0       0       0       0       0       0       0       0       
      +0       0       0       0       0       0       0       0       0       0       0       0       0       0       0       
      +0       0       0       0       0       0       0       0       0       0       0       0       0       0       0       
      +0       0       0       0       0       0       0       0       0       0
 10285 ;;      Locals:         0       0       0       0       0       0       0       0       0       0       0       0       
      +0       0       0       0       0       0       0       0       0       0       0       0       0       0       0       
      +0       0       0       0       0       0       0       0       0       0       0       0       0       0       0       
      +0       0       0       0       0       0       0       0       0       0
 10286 ;;      Temps:          1       0       0       0       0       0       0       0       0       0       0       0       
      +0       0       0       0       0       0       0       0       0       0       0       0       0       0       0       
      +0       0       0       0       0       0       0       0       0       0       0       0       0       0       0       
      +0       0       0       0       0       0       0       0       0       0
 10287 ;;      Totals:         3       0       0       0       0       0       0       0       0       0       0       0       
      +0       0       0       0       0       0       0       0       0       0       0       0       0       0       0       
      +0       0       0       0       0       0       0       0       0       0       0       0       0       0       0       
      +0       0       0       0       0       0       0       0       0       0
 10288 ;;Total ram usage:        3 bytes
 10289 ;; Hardware stack levels used: 1
 10290 ;; Hardware stack levels required when called: 1
 10291 ;; This function calls:
 10292 ;;		_LCD_Char
 10293 ;; This function is called by:
 10294 ;;		_main
 10295 ;;		_Display_Oxygen_Level
 10296 ;;		_Display_Temperature
 10297 ;; This function uses a non-reentrant model
 10298 ;;
 10299                           
 10300     12BC                     _LCD_String:	
 10301                           ;psect for function _LCD_String
 10302                           
 10303     12BC                     l3349:	
 10304                           ;incstack = 0
 10305                           ; Regs used in _LCD_String: [wreg-fsr0h+status,2+status,0+pclath+cstack]
 10306                           
 10307                           
 10308                           ;LCD_Analog_button.c: 179:     while (*text != '\0') {
 10309     12BC  2AC9               	goto	l3355
 10310     12BD                     l3351:
 10311                           
 10312                           ;LCD_Analog_button.c: 180:         LCD_Char(*text++);
 10313     12BD  0873               	movf	LCD_String@text,w
 10314     12BE  0084               	movwf	4
 10315     12BF  0874               	movf	LCD_String@text+1,w
 10316     12C0  0085               	movwf	5
 10317     12C1  0800               	movf	0,w	;code access
 10318     12C2  3194  2427  3192   	fcall	_LCD_Char
 10319     12C5                     l3353:
 10320     12C5  3001               	movlw	1
 10321     12C6  07F3               	addwf	LCD_String@text,f
 10322     12C7  3000               	movlw	0
 10323     12C8  3DF4               	addwfc	LCD_String@text+1,f
 10324     12C9                     l3355:
 10325                           
 10326                           ;LCD_Analog_button.c: 179:     while (*text != '\0') {
 10327     12C9  0873               	movf	LCD_String@text,w
 10328     12CA  0084               	movwf	4
 10329     12CB  0874               	movf	LCD_String@text+1,w
 10330     12CC  0085               	movwf	5
 10331     12CD  0012               	moviw fsr0++
 10332     12CE  1D03               	btfss	3,2
 10333     12CF  2AD1               	goto	u4321
 10334     12D0  2AD2               	goto	u4320
 10335     12D1                     u4321:
 10336     12D1  2ABD               	goto	l3351
 10337     12D2                     u4320:
 10338     12D2                     l69:
 10339     12D2  0008               	return
 10340     12D3                     __end_of_LCD_String:
 10341                           
 10342                           	psect	text34
 10343     1427                     __ptext34:	
 10344 ;; *************** function _LCD_Char *****************
 10345 ;; Defined at:
 10346 ;;		line 164 in file "LCD_Analog_button.c"
 10347 ;; Parameters:    Size  Location     Type
 10348 ;;  data            1    wreg     unsigned char 
 10349 ;; Auto vars:     Size  Location     Type
 10350 ;;  data            1    2[COMMON] unsigned char 
 10351 ;; Return value:  Size  Location     Type
 10352 ;;                  1    wreg      void 
 10353 ;; Registers used:
 10354 ;;		wreg, status,2, status,0
 10355 ;; Tracked objects:
 10356 ;;		On entry : 0/0
 10357 ;;		On exit  : 0/0
 10358 ;;		Unchanged: 0/0
 10359 ;; Data sizes:     COMMON   BANK0   BANK1   BANK2   BANK3   BANK4   BANK5   BANK6   BANK7   BANK8   BANK9  BANK10  BANK1
      +1  BANK12  BANK13  BANK14  BANK15  BANK16  BANK17  BANK18  BANK19  BANK20  BANK21  BANK22  BANK23  BANK24  BANK25  BANK2
      +6  BANK27  BANK28  BANK29  BANK30  BANK31  BANK32  BANK33  BANK34  BANK35  BANK36  BANK37  BANK38  BANK39  BANK40  BANK4
      +1  BANK42  BANK43  BANK44  BANK45  BANK46  BANK47  BANK48  BANK49  BANK50
 10360 ;;      Params:         0       0       0       0       0       0       0       0       0       0       0       0       
      +0       0       0       0       0       0       0       0       0       0       0       0       0       0       0       
      +0       0       0       0       0       0       0       0       0       0       0       0       0       0       0       
      +0       0       0       0       0       0       0       0       0       0
 10361 ;;      Locals:         1       0       0       0       0       0       0       0       0       0       0       0       
      +0       0       0       0       0       0       0       0       0       0       0       0       0       0       0       
      +0       0       0       0       0       0       0       0       0       0       0       0       0       0       0       
      +0       0       0       0       0       0       0       0       0       0
 10362 ;;      Temps:          2       0       0       0       0       0       0       0       0       0       0       0       
      +0       0       0       0       0       0       0       0       0       0       0       0       0       0       0       
      +0       0       0       0       0       0       0       0       0       0       0       0       0       0       0       
      +0       0       0       0       0       0       0       0       0       0
 10363 ;;      Totals:         3       0       0       0       0       0       0       0       0       0       0       0       
      +0       0       0       0       0       0       0       0       0       0       0       0       0       0       0       
      +0       0       0       0       0       0       0       0       0       0       0       0       0       0       0       
      +0       0       0       0       0       0       0       0       0       0
 10364 ;;Total ram usage:        3 bytes
 10365 ;; Hardware stack levels used: 1
 10366 ;; This function calls:
 10367 ;;		Nothing
 10368 ;; This function is called by:
 10369 ;;		_LCD_String
 10370 ;; This function uses a non-reentrant model
 10371 ;;
 10372                           
 10373     1427                     _LCD_Char:	
 10374                           ;psect for function _LCD_Char
 10375                           
 10376                           
 10377                           ;incstack = 0
 10378                           ; Regs used in _LCD_Char: [wreg+status,2+status,0]
 10379                           ;LCD_Char@data stored from wreg
 10380     1427  00F2               	movwf	LCD_Char@data
 10381     1428                     l3319:
 10382                           
 10383                           ;LCD_Analog_button.c: 165:     PORTCbits.RC0 = 1;
 10384     1428  0140               	movlb	0	; select bank0
 10385     1429  140E               	bsf	14,0	;volatile
 10386     142A                     l3321:
 10387                           
 10388                           ;LCD_Analog_button.c: 166:     PORTC = (PORTC & 0x0F) | (data & 0xF0);
 10389     142A  30F0               	movlw	240
 10390     142B  0572               	andwf	LCD_Char@data,w
 10391     142C  00F0               	movwf	??_LCD_Char
 10392     142D  080E               	movf	14,w	;volatile
 10393     142E  390F               	andlw	15
 10394     142F  0470               	iorwf	??_LCD_Char,w
 10395     1430  008E               	movwf	14	;volatile
 10396     1431                     l3323:
 10397                           
 10398                           ;LCD_Analog_button.c: 167:     PORTEbits.RE0 = 1;
 10399     1431  1410               	bsf	16,0	;volatile
 10400     1432                     l3325:
 10401                           
 10402                           ;LCD_Analog_button.c: 168:     _delay((unsigned long)((1)*(4000000/4000000.0)));
 10403     1432  0000               	nop
 10404     1433                     l3327:
 10405                           
 10406                           ;LCD_Analog_button.c: 169:     PORTEbits.RE0 = 0;
 10407     1433  0140               	movlb	0	; select bank0
 10408     1434  1010               	bcf	16,0	;volatile
 10409     1435                     l3329:
 10410                           
 10411                           ;LCD_Analog_button.c: 170:     _delay((unsigned long)((200)*(4000000/4000000.0)));
 10412     1435  3042               	movlw	66
 10413     1436                     u4407:
 10414     1436  0B89               	decfsz	9,f
 10415     1437  2C36               	goto	u4407
 10416     1438  3200               	nop2
 10417     1439                     l3331:
 10418                           
 10419                           ;LCD_Analog_button.c: 171:     PORTC = (PORTC & 0x0F) | ((data << 4) & 0xF0);
 10420     1439  0872               	movf	LCD_Char@data,w
 10421     143A  00F0               	movwf	??_LCD_Char
 10422     143B  3004               	movlw	4
 10423     143C                     u4305:
 10424     143C  35F0               	lslf	??_LCD_Char,f
 10425     143D  0B89               	decfsz	9,f
 10426     143E  2C3C               	goto	u4305
 10427     143F  30F0               	movlw	240
 10428     1440  0570               	andwf	??_LCD_Char,w
 10429     1441  00F1               	movwf	??_LCD_Char+1
 10430     1442  0140               	movlb	0	; select bank0
 10431     1443  080E               	movf	14,w	;volatile
 10432     1444  390F               	andlw	15
 10433     1445  0471               	iorwf	??_LCD_Char+1,w
 10434     1446  008E               	movwf	14	;volatile
 10435     1447                     l3333:
 10436                           
 10437                           ;LCD_Analog_button.c: 172:     PORTEbits.RE0 = 1;
 10438     1447  1410               	bsf	16,0	;volatile
 10439     1448                     l3335:
 10440                           
 10441                           ;LCD_Analog_button.c: 173:     _delay((unsigned long)((1)*(4000000/4000000.0)));
 10442     1448  0000               	nop
 10443     1449                     l3337:
 10444                           
 10445                           ;LCD_Analog_button.c: 174:     PORTEbits.RE0 = 0;
 10446     1449  0140               	movlb	0	; select bank0
 10447     144A  1010               	bcf	16,0	;volatile
 10448                           
 10449                           ;LCD_Analog_button.c: 175:     _delay((unsigned long)((2)*(4000000/4000.0)));
 10450     144B  3003               	movlw	3
 10451     144C  00F0               	movwf	??_LCD_Char
 10452     144D  3098               	movlw	152
 10453     144E                     u4417:
 10454     144E  0B89               	decfsz	9,f
 10455     144F  2C4E               	goto	u4417
 10456     1450  0BF0               	decfsz	??_LCD_Char,f
 10457     1451  2C4E               	goto	u4417
 10458     1452                     l63:
 10459     1452  0008               	return
 10460     1453                     __end_of_LCD_Char:
 10461                           
 10462                           	psect	text35
 10463     1285                     __ptext35:	
 10464 ;; *************** function _ADC_Read *****************
 10465 ;; Defined at:
 10466 ;;		line 224 in file "LCD_Analog_button.c"
 10467 ;; Parameters:    Size  Location     Type
 10468 ;;  channel         1    wreg     unsigned char 
 10469 ;; Auto vars:     Size  Location     Type
 10470 ;;  channel         1    0[COMMON] unsigned char 
 10471 ;; Return value:  Size  Location     Type
 10472 ;;                  2    0[COMMON] unsigned short 
 10473 ;; Registers used:
 10474 ;;		wreg
 10475 ;; Tracked objects:
 10476 ;;		On entry : 0/0
 10477 ;;		On exit  : 0/0
 10478 ;;		Unchanged: 0/0
 10479 ;; Data sizes:     COMMON   BANK0   BANK1   BANK2   BANK3   BANK4   BANK5   BANK6   BANK7   BANK8   BANK9  BANK10  BANK1
      +1  BANK12  BANK13  BANK14  BANK15  BANK16  BANK17  BANK18  BANK19  BANK20  BANK21  BANK22  BANK23  BANK24  BANK25  BANK2
      +6  BANK27  BANK28  BANK29  BANK30  BANK31  BANK32  BANK33  BANK34  BANK35  BANK36  BANK37  BANK38  BANK39  BANK40  BANK4
      +1  BANK42  BANK43  BANK44  BANK45  BANK46  BANK47  BANK48  BANK49  BANK50
 10480 ;;      Params:         2       0       0       0       0       0       0       0       0       0       0       0       
      +0       0       0       0       0       0       0       0       0       0       0       0       0       0       0       
      +0       0       0       0       0       0       0       0       0       0       0       0       0       0       0       
      +0       0       0       0       0       0       0       0       0       0
 10481 ;;      Locals:         0       0       0       0       0       0       0       0       0       0       0       0       
      +0       0       0       0       0       0       0       0       0       0       0       0       0       0       0       
      +0       0       0       0       0       0       0       0       0       0       0       0       0       0       0       
      +0       0       0       0       0       0       0       0       0       0
 10482 ;;      Temps:          0       0       0       0       0       0       0       0       0       0       0       0       
      +0       0       0       0       0       0       0       0       0       0       0       0       0       0       0       
      +0       0       0       0       0       0       0       0       0       0       0       0       0       0       0       
      +0       0       0       0       0       0       0       0       0       0
 10483 ;;      Totals:         2       0       0       0       0       0       0       0       0       0       0       0       
      +0       0       0       0       0       0       0       0       0       0       0       0       0       0       0       
      +0       0       0       0       0       0       0       0       0       0       0       0       0       0       0       
      +0       0       0       0       0       0       0       0       0       0
 10484 ;;Total ram usage:        2 bytes
 10485 ;; Hardware stack levels used: 1
 10486 ;; This function calls:
 10487 ;;		Nothing
 10488 ;; This function is called by:
 10489 ;;		_main
 10490 ;; This function uses a non-reentrant model
 10491 ;;
 10492                           
 10493     1285                     _ADC_Read:	
 10494                           ;psect for function _ADC_Read
 10495                           
 10496     1285                     l3403:	
 10497                           ;incstack = 0
 10498                           ; Regs used in _ADC_Read: [wreg]
 10499                           
 10500                           
 10501                           ;LCD_Analog_button.c: 226:     ADCON0bits.ADGO = 1;
 10502     1285  0141               	movlb	1	; select bank1
 10503     1286  1413               	bsf	19,0	;volatile
 10504     1287                     l84:	
 10505                           ;LCD_Analog_button.c: 229:         ;
 10506                           
 10507                           
 10508                           ;LCD_Analog_button.c: 228:     while (ADCON0bits.ADGO)
 10509     1287  1813               	btfsc	19,0	;volatile
 10510     1288  2A8A               	goto	u4341
 10511     1289  2A8B               	goto	u4340
 10512     128A                     u4341:
 10513     128A  2A87               	goto	l84
 10514     128B                     u4340:
 10515     128B                     l3405:
 10516                           
 10517                           ;LCD_Analog_button.c: 232:     return ((ADRESH << 8) + ADRESL);
 10518     128B  080D               	movf	13,w	;volatile
 10519     128C  00F1               	movwf	?_ADC_Read+1
 10520     128D  080C               	movf	12,w	;volatile
 10521     128E  00F0               	movwf	?_ADC_Read
 10522     128F                     l87:
 10523     128F  0008               	return
 10524     1290                     __end_of_ADC_Read:
 10525     007E                     btemp	set	126	;btemp
 10526     007E                     wtemp0	set	126
 10527                           
 10528                           	psect	config
 10529                           
 10530                           ;Config register CONFIG1 @ 0x8007
 10531                           ;	External Oscillator mode selection bits
 10532                           ;	FEXTOSC = OFF, Oscillator not enabled
 10533                           ;	Power-up default value for COSC bits
 10534                           ;	RSTOSC = HFINT1, HFINTOSC (1MHz)
 10535                           ;	Clock Out Enable bit
 10536                           ;	CLKOUTEN = OFF, CLKOUT function is disabled; i/o or oscillator function on OSC2
 10537                           ;	Clock Switch Enable bit
 10538                           ;	CSWEN = ON, Writing to NOSC and NDIV is allowed
 10539                           ;	Fail-Safe Clock Monitor Enable bit
 10540                           ;	FCMEN = ON, FSCM timer enabled
 10541     8007                     	org	32775
 10542     8007  3FEC               	dw	16364
 10543                           
 10544                           ;Config register CONFIG2 @ 0x8008
 10545                           ;	Master Clear Enable bit
 10546                           ;	MCLRE = ON, MCLR pin is Master Clear function
 10547                           ;	Power-up Timer Enable bit
 10548                           ;	PWRTE = OFF, PWRT disabled
 10549                           ;	Low-Power BOR enable bit
 10550                           ;	LPBOREN = OFF, ULPBOR disabled
 10551                           ;	Brown-out reset enable bits
 10552                           ;	BOREN = ON, Brown-out Reset Enabled, SBOREN bit is ignored
 10553                           ;	Brown-out Reset Voltage Selection
 10554                           ;	BORV = LO, Brown-out Reset Voltage (VBOR) set to 1.9V on LF, and 2.45V on F Devices
 10555                           ;	Zero-cross detect disable
 10556                           ;	ZCD = OFF, Zero-cross detect circuit is disabled at POR.
 10557                           ;	Peripheral Pin Select one-way control
 10558                           ;	PPS1WAY = ON, The PPSLOCK bit can be cleared and set only once in software
 10559                           ;	Stack Overflow/Underflow Reset Enable bit
 10560                           ;	STVREN = ON, Stack Overflow or Underflow will cause a reset
 10561                           ;	Background Debugger
 10562                           ;	DEBUG = 0x1, unprogrammed default
 10563     8008                     	org	32776
 10564     8008  3FFF               	dw	16383
 10565                           
 10566                           ;Config register CONFIG3 @ 0x8009
 10567                           ;	WDT Period Select bits
 10568                           ;	WDTCPS = WDTCPS_31, Divider ratio 1:65536; software control of WDTPS
 10569                           ;	WDT operating mode
 10570                           ;	WDTE = OFF, WDT Disabled, SWDTEN is ignored
 10571                           ;	WDT Window Select bits
 10572                           ;	WDTCWS = WDTCWS_7, window always open (100%); software control; keyed access not requi
      +                          red
 10573                           ;	WDT input clock selector
 10574                           ;	WDTCCS = SC, Software Control
 10575     8009                     	org	32777
 10576     8009  3F9F               	dw	16287
 10577                           
 10578                           ;Config register CONFIG4 @ 0x800A
 10579                           ;	UserNVM self-write protection bits
 10580                           ;	WRT = OFF, Write protection off
 10581                           ;	Scanner Enable bit
 10582                           ;	SCANE = available, Scanner module is available for use
 10583                           ;	Low Voltage Programming Enable bit
 10584                           ;	LVP = ON, Low Voltage programming enabled. MCLR/Vpp pin function is MCLR.
 10585     800A                     	org	32778
 10586     800A  3FFF               	dw	16383
 10587                           
 10588                           ;Config register CONFIG5 @ 0x800B
 10589                           ;	UserNVM Program memory code protection bit
 10590                           ;	CP = OFF, Program Memory code protection disabled
 10591                           ;	DataNVM code protection bit
 10592                           ;	CPD = OFF, Data EEPROM code protection disabled
 10593     800B                     	org	32779
 10594     800B  3FFF               	dw	16383

Data Sizes:
    Strings     35
    Constant    0
    Data        0
    BSS         99
    Persistent  32
    Stack       0

Auto Spaces:
    Space          Size  Autos    Used
    COMMON           14     14      14
    BANK0            80     79      80
    BANK1            80     58      76
    BANK2            80      0      80
    BANK3            80      0       0
    BANK4            80      0       0
    BANK5            80      0       0
    BANK6            80      0       0
    BANK7            80      0       0
    BANK8            80      0       0
    BANK9            80      0       0
    BANK10           80      0       0
    BANK11           80      0       0
    BANK12           80      0       0
    BANK13           80      0       0
    BANK14           80      0       0
    BANK15           80      0       0
    BANK16           80      0       0
    BANK17           80      0       0
    BANK18           80      0       0
    BANK19           80      0       0
    BANK20           80      0       0
    BANK21           80      0       0
    BANK22           80      0       0
    BANK23           80      0       0
    BANK24           80      0       0
    BANK25           80      0       0
    BANK26           80      0       0
    BANK27           80      0       0
    BANK28           80      0       0
    BANK29           80      0       0
    BANK30           80      0       0
    BANK31           80      0       0
    BANK32           80      0       0
    BANK33           80      0       0
    BANK34           80      0       0
    BANK35           80      0       0
    BANK36           80      0       0
    BANK37           80      0       0
    BANK38           80      0       0
    BANK39           80      0       0
    BANK40           80      0       0
    BANK41           80      0       0
    BANK42           80      0       0
    BANK43           80      0       0
    BANK44           80      0       0
    BANK45           80      0       0
    BANK46           80      0       0
    BANK47           80      0       0
    BANK48           80      0       0
    BANK49           80      0       0
    BANK50           80      0       0

Pointer List with Targets:

    strcpy@dest	PTR unsigned char  size(1) Largest target is 80
		 -> dbuf(BANK2[80]), 

    strcpy@d	PTR unsigned char  size(1) Largest target is 80
		 -> dbuf(BANK2[80]), 

    strcpy@src	PTR const unsigned char  size(2) Largest target is 4
		 -> STR_7(CODE[4]), STR_4(CODE[4]), 

    strcpy@s	PTR const unsigned char  size(2) Largest target is 4
		 -> STR_7(CODE[4]), STR_4(CODE[4]), 

    fputs@s	PTR const unsigned char  size(1) Largest target is 80
		 -> dbuf(BANK2[80]), 

    fputs@fp	PTR struct _IO_FILE size(1) Largest target is 11
		 -> sprintf@f(BANK0[11]), 

    fputc@fp...source	PTR const unsigned char  size(2) Largest target is 0

    fputc@fp...buffer	PTR unsigned char  size(2) Largest target is 0

    fputc@fp	PTR struct _IO_FILE size(1) Largest target is 11
		 -> sprintf@f(BANK0[11]), 

    memcpy@d1	PTR void  size(1) Largest target is 80
		 -> dbuf(BANK2[80]), 

    memcpy@d	PTR unsigned char  size(1) Largest target is 80
		 -> dbuf(BANK2[80]), 

    memcpy@s1	PTR const void  size(1) Largest target is 80
		 -> dbuf(BANK2[80]), 

    memcpy@s	PTR const unsigned char  size(1) Largest target is 80
		 -> dbuf(BANK2[80]), 

    vfprintf@ap	PTR PTR void  size(1) Largest target is 1
		 -> sprintf@ap(BANK0[1]), 

    vfprintf@fp	PTR struct _IO_FILE size(1) Largest target is 11
		 -> sprintf@f(BANK0[11]), 

    vfprintf@fmt	PTR const unsigned char  size(2) Largest target is 6
		 -> STR_3(CODE[6]), STR_2(CODE[6]), 

    vfprintf@cfmt	PTR unsigned char  size(2) Largest target is 6
		 -> STR_3(CODE[6]), STR_2(CODE[6]), 

    vfpfcnvrt@fp	PTR struct _IO_FILE size(1) Largest target is 11
		 -> sprintf@f(BANK0[11]), 

    vfpfcnvrt@cp	PTR unsigned char  size(2) Largest target is 6
		 -> STR_3(CODE[6]), STR_2(CODE[6]), 

    vfpfcnvrt@ap	PTR PTR void  size(1) Largest target is 1
		 -> sprintf@ap(BANK0[1]), 

    vfpfcnvrt@fmt	PTR PTR unsigned char  size(1) Largest target is 2
		 -> vfprintf@cfmt(BANK0[2]), 

    S858$vp	PTR void  size(2) Largest target is 0

    convarg.vp	PTR void  size(2) Largest target is 0

    read_prec_or_width@ap	PTR PTR void [1] size(1) Largest target is 1
		 -> sprintf@ap(BANK0[1]), 

    read_prec_or_width@fmt	PTR PTR const unsigned char  size(1) Largest target is 2
		 -> vfprintf@cfmt(BANK0[2]), 

    utoa@fp	PTR struct _IO_FILE size(1) Largest target is 11
		 -> sprintf@f(BANK0[11]), 

    sp__memcpy	PTR void  size(1) Largest target is 80
		 -> dbuf(BANK2[80]), 

    efgtoa@fp	PTR struct _IO_FILE size(1) Largest target is 11
		 -> sprintf@f(BANK0[11]), 

    sp__strcpy	PTR unsigned char  size(1) Largest target is 80
		 -> dbuf(BANK2[80]), 

    pad@fp	PTR struct _IO_FILE size(1) Largest target is 11
		 -> sprintf@f(BANK0[11]), 

    pad@buf	PTR unsigned char  size(1) Largest target is 80
		 -> dbuf(BANK2[80]), 

    sprintf@fmt	PTR const unsigned char  size(2) Largest target is 6
		 -> STR_3(CODE[6]), STR_2(CODE[6]), 

    sprintf@s	PTR unsigned char  size(1) Largest target is 6
		 -> Display_Temperature@buffer(COMMON[6]), Display_Oxygen_Level@buffer(BANK0[5]), 

    sprintf@ap	PTR void [1] size(1) Largest target is 2
		 -> ?_sprintf(BANK1[2]), 

    S773$source	PTR const unsigned char  size(2) Largest target is 0

    f...source	PTR const unsigned char  size(2) Largest target is 0

    S773$buffer	PTR unsigned char  size(2) Largest target is 0

    f...buffer	PTR unsigned char  size(2) Largest target is 0

    LCD_String@text	PTR const unsigned char  size(2) Largest target is 15
		 -> Display_Temperature@buffer(COMMON[6]), Display_Oxygen_Level@buffer(BANK0[5]), STR_1(CODE[15]), 


Critical Paths under _main in COMMON

    _LCD_Init->_LCD_Cmd
    _LCD_Clear->_LCD_Cmd
    _Display_Time->___lwdiv
    _utoa->___lwdiv
    _utoa->_pad
    ___lwdiv->___lwmod
    _read_prec_or_width->___wmul
    _efgtoa->___flmul
    _efgtoa->_pad
    _pad->_fputs
    _fputs->_fputc
    _floorf->___fldiv
    ___flsub->___flmul
    ___flmul->__Umul8_16
    ___flge->___flmul
    _LCD_String->_LCD_Char

Critical Paths under _main in BANK0

    _main->_Display_Oxygen_Level
    _Display_Oxygen_Level->_sprintf
    _sprintf->_vfprintf
    _vfprintf->_vfpfcnvrt
    _vfpfcnvrt->_efgtoa
    _utoa->_pad
    _efgtoa->___flge
    _efgtoa->_floorf
    _pad->_fputs
    _floorf->___fldiv
    ___flsub->___flmul
    ___flge->___flmul

Critical Paths under _main in BANK1

    _main->_Display_Oxygen_Level
    _Display_Oxygen_Level->_sprintf
    _sprintf->_vfprintf
    _vfprintf->_vfpfcnvrt
    _vfpfcnvrt->_efgtoa

Critical Paths under _main in BANK2

    None.

Critical Paths under _main in BANK3

    None.

Critical Paths under _main in BANK4

    None.

Critical Paths under _main in BANK5

    None.

Critical Paths under _main in BANK6

    None.

Critical Paths under _main in BANK7

    None.

Critical Paths under _main in BANK8

    None.

Critical Paths under _main in BANK9

    None.

Critical Paths under _main in BANK10

    None.

Critical Paths under _main in BANK11

    None.

Critical Paths under _main in BANK12

    None.

Critical Paths under _main in BANK13

    None.

Critical Paths under _main in BANK14

    None.

Critical Paths under _main in BANK15

    None.

Critical Paths under _main in BANK16

    None.

Critical Paths under _main in BANK17

    None.

Critical Paths under _main in BANK18

    None.

Critical Paths under _main in BANK19

    None.

Critical Paths under _main in BANK20

    None.

Critical Paths under _main in BANK21

    None.

Critical Paths under _main in BANK22

    None.

Critical Paths under _main in BANK23

    None.

Critical Paths under _main in BANK24

    None.

Critical Paths under _main in BANK25

    None.

Critical Paths under _main in BANK26

    None.

Critical Paths under _main in BANK27

    None.

Critical Paths under _main in BANK28

    None.

Critical Paths under _main in BANK29

    None.

Critical Paths under _main in BANK30

    None.

Critical Paths under _main in BANK31

    None.

Critical Paths under _main in BANK32

    None.

Critical Paths under _main in BANK33

    None.

Critical Paths under _main in BANK34

    None.

Critical Paths under _main in BANK35

    None.

Critical Paths under _main in BANK36

    None.

Critical Paths under _main in BANK37

    None.

Critical Paths under _main in BANK38

    None.

Critical Paths under _main in BANK39

    None.

Critical Paths under _main in BANK40

    None.

Critical Paths under _main in BANK41

    None.

Critical Paths under _main in BANK42

    None.

Critical Paths under _main in BANK43

    None.

Critical Paths under _main in BANK44

    None.

Critical Paths under _main in BANK45

    None.

Critical Paths under _main in BANK46

    None.

Critical Paths under _main in BANK47

    None.

Critical Paths under _main in BANK48

    None.

Critical Paths under _main in BANK49

    None.

Critical Paths under _main in BANK50

    None.

Call Graph Tables:

 ---------------------------------------------------------------------------------
 (Depth) Function   	        Calls       Base Space   Used Autos Params    Refs
 ---------------------------------------------------------------------------------
 (0) _main                                                 2     2      0   32896
                                             77 BANK0      2     2      0
                           _ADC_Read
               _Display_Oxygen_Level
                       _Display_Time
                          _LCD_Clear
                            _LCD_Cmd
                           _LCD_Init
                         _LCD_String
 ---------------------------------------------------------------------------------
 (1) _LCD_Init                                             1     1      0      44
                                              3 COMMON     1     1      0
                            _LCD_Cmd
 ---------------------------------------------------------------------------------
 (1) _LCD_Clear                                            1     1      0      44
                                              3 COMMON     1     1      0
                            _LCD_Cmd
 ---------------------------------------------------------------------------------
 (2) _LCD_Cmd                                              3     3      0      44
                                              0 COMMON     3     3      0
 ---------------------------------------------------------------------------------
 (1) _Display_Time                                         7     5      2    3204
                                              0 BANK0      7     5      2
                            ___lwdiv
                            ___lwmod
 ---------------------------------------------------------------------------------
 (1) _Display_Oxygen_Level                                 7     5      2   29243
                                             72 BANK0      5     5      0
                                             56 BANK1      2     0      2
                         _LCD_String
                            _sprintf
 ---------------------------------------------------------------------------------
 (2) _sprintf                                             22    16      6   28778
                                             58 BANK0     14    14      0
                                             50 BANK1      6     0      6
                           _vfprintf
 ---------------------------------------------------------------------------------
 (3) _vfprintf                                             7     4      3   28355
                                             54 BANK0      4     4      0
                                             47 BANK1      3     0      3
                          _vfpfcnvrt
 ---------------------------------------------------------------------------------
 (4) _vfpfcnvrt                                           18    16      2   28033
                                             42 BANK0     12    12      0
                                             45 BANK1      2     0      2
                             _efgtoa
                              _fputc
                 _read_prec_or_width
                               _utoa
 ---------------------------------------------------------------------------------
 (5) _utoa                                                10     8      2    6167
                                             10 BANK0     10     8      2
                            ___lwdiv
                            ___lwmod
                                _pad
 ---------------------------------------------------------------------------------
 (2) ___lwmod                                              6     2      4    1679
                                              0 COMMON     6     2      4
 ---------------------------------------------------------------------------------
 (2) ___lwdiv                                              8     4      4    1226
                                              6 COMMON     8     4      4
                            ___lwmod (ARG)
 ---------------------------------------------------------------------------------
 (5) _read_prec_or_width                                   9     7      2     642
                                              6 COMMON     5     3      2
                                              0 BANK0      4     4      0
                             ___wmul
 ---------------------------------------------------------------------------------
 (6) ___wmul                                               6     2      4     244
                                              0 COMMON     6     2      4
 ---------------------------------------------------------------------------------
 (5) _efgtoa                                              55    50      5   19404
                                             33 BANK0      9     4      5
                                              0 BANK1     45    45      0
                            ___fladd
                            ___fldiv
                             ___fleq
                             ___flge
                            ___flmul
                            ___flneg
                            ___flsub
                            ___fltol
                      ___fpclassifyf
                             _floorf
                               _labs
                             _memcpy
                                _pad
                             _strcpy
 ---------------------------------------------------------------------------------
 (6) _strcpy                                               8     6      2     314
                                              0 COMMON     8     6      2
 ---------------------------------------------------------------------------------
 (6) _pad                                                  9     6      3    2925
                                             11 COMMON     3     0      3
                                              4 BANK0      6     6      0
                              _fputc
                              _fputs
 ---------------------------------------------------------------------------------
 (7) _fputs                                                7     6      1    1149
                                              8 COMMON     3     2      1
                                              0 BANK0      4     4      0
                              _fputc
 ---------------------------------------------------------------------------------
 (8) _fputc                                                8     5      3     834
                                              0 COMMON     8     5      3
                              _putch
 ---------------------------------------------------------------------------------
 (9) _putch                                                1     1      0       0
 ---------------------------------------------------------------------------------
 (6) _memcpy                                               8     5      3     328
                                              0 COMMON     8     5      3
 ---------------------------------------------------------------------------------
 (6) _labs                                                 4     0      4     294
                                              0 COMMON     4     0      4
 ---------------------------------------------------------------------------------
 (6) _floorf                                              20    16      4     490
                                             13 BANK0     20    16      4
                            ___fldiv (ARG)
 ---------------------------------------------------------------------------------
 (6) ___fpclassifyf                                       16    12      4     287
                                              0 COMMON    10     6      4
                                              0 BANK0      6     6      0
 ---------------------------------------------------------------------------------
 (6) ___fltol                                             10     6      4     457
                                              0 COMMON    10     6      4
 ---------------------------------------------------------------------------------
 (6) ___flsub                                              8     0      8    2789
                                             21 BANK0      8     0      8
                            ___fladd
                            ___flmul (ARG)
 ---------------------------------------------------------------------------------
 (7) ___fladd                                             20    12      8    2440
                                              0 COMMON    12     4      8
                                              0 BANK0      8     8      0
 ---------------------------------------------------------------------------------
 (6) ___flneg                                              4     0      4     121
                                              0 COMMON     4     0      4
 ---------------------------------------------------------------------------------
 (6) ___flmul                                             26    18      8    3329
                                              9 COMMON     5     5      0
                                              0 BANK0     21    13      8
                          __Umul8_16
 ---------------------------------------------------------------------------------
 (7) __Umul8_16                                            9     7      2     799
                                              0 COMMON     9     7      2
 ---------------------------------------------------------------------------------
 (6) ___flge                                              12     4      8     942
                                             21 BANK0     12     4      8
                            ___flmul (ARG)
 ---------------------------------------------------------------------------------
 (6) ___fleq                                              12     4      8     394
                                              0 COMMON    12     4      8
 ---------------------------------------------------------------------------------
 (6) ___fldiv                                             26    18      8    1881
                                              0 COMMON    13     5      8
                                              0 BANK0     13    13      0
 ---------------------------------------------------------------------------------
 (1) _LCD_String                                           3     1      2     317
                                              3 COMMON     3     1      2
                           _LCD_Char
 ---------------------------------------------------------------------------------
 (2) _LCD_Char                                             3     3      0      44
                                              0 COMMON     3     3      0
 ---------------------------------------------------------------------------------
 (1) _ADC_Read                                             3     1      2       0
                                              0 COMMON     2     0      2
 ---------------------------------------------------------------------------------
 Estimated maximum stack depth 9
 ---------------------------------------------------------------------------------

 Call Graph Graphs:

 _main (ROOT)
   _ADC_Read
   _Display_Oxygen_Level
     _LCD_String
       _LCD_Char
     _sprintf
       _vfprintf
         _vfpfcnvrt
           _efgtoa
             ___fladd
             ___fldiv
             ___fleq
             ___flge
               ___flmul (ARG)
                 __Umul8_16
             ___flmul
             ___flneg
             ___flsub
               ___fladd
               ___flmul (ARG)
             ___fltol
             ___fpclassifyf
             _floorf
               ___fldiv (ARG)
             _labs
             _memcpy
             _pad
               _fputc
                 _putch
               _fputs
                 _fputc
             _strcpy
           _fputc
           _read_prec_or_width
             ___wmul
           _utoa
             ___lwdiv
               ___lwmod (ARG)
             ___lwmod
             _pad
   _Display_Time
     ___lwdiv
     ___lwmod
   _LCD_Clear
     _LCD_Cmd
   _LCD_Cmd
   _LCD_Init
     _LCD_Cmd
   _LCD_String

 Address spaces:
Name               Size   Autos  Total    Cost      Usage
BIGRAM             FF0      0       0       0        0.0%
EEDATA             100      0       0       0        0.0%
NULL                 0      0       0       0        0.0%
CODE                 0      0       0       0        0.0%
BITCOMMON            E      0       0       1        0.0%
BITSFR0              0      0       0       1        0.0%
SFR0                 0      0       0       1        0.0%
COMMON               E      E       E       2      100.0%
BITSFR1              0      0       0       2        0.0%
SFR1                 0      0       0       2        0.0%
BITSFR2              0      0       0       3        0.0%
SFR2                 0      0       0       3        0.0%
STACK                0      0       0       3        0.0%
BITBANK0            50      0       0       4        0.0%
BITSFR3              0      0       0       4        0.0%
SFR3                 0      0       0       4        0.0%
BANK0               50     4F      50       5      100.0%
BITSFR4              0      0       0       5        0.0%
SFR4                 0      0       0       5        0.0%
BITBANK1            50      0       0       6        0.0%
BITSFR5              0      0       0       6        0.0%
SFR5                 0      0       0       6        0.0%
BANK1               50     3A      4C       7       95.0%
BITSFR6              0      0       0       7        0.0%
SFR6                 0      0       0       7        0.0%
BITBANK2            50      0       0       8        0.0%
BITSFR7              0      0       0       8        0.0%
SFR7                 0      0       0       8        0.0%
BANK2               50      0      50       9      100.0%
BITSFR8              0      0       0       9        0.0%
SFR8                 0      0       0       9        0.0%
BITBANK3            50      0       0      10        0.0%
BITSFR9              0      0       0      10        0.0%
SFR9                 0      0       0      10        0.0%
BANK3               50      0       0      11        0.0%
BITSFR10             0      0       0      11        0.0%
SFR10                0      0       0      11        0.0%
BITBANK4            50      0       0      12        0.0%
BITSFR11             0      0       0      12        0.0%
SFR11                0      0       0      12        0.0%
BANK4               50      0       0      13        0.0%
BITSFR12             0      0       0      13        0.0%
SFR12                0      0       0      13        0.0%
BITBANK5            50      0       0      14        0.0%
BITSFR13             0      0       0      14        0.0%
SFR13                0      0       0      14        0.0%
BANK5               50      0       0      15        0.0%
BITSFR14             0      0       0      15        0.0%
SFR14                0      0       0      15        0.0%
BITBANK6            50      0       0      16        0.0%
BITSFR15             0      0       0      16        0.0%
SFR15                0      0       0      16        0.0%
BANK6               50      0       0      17        0.0%
BITSFR16             0      0       0      17        0.0%
SFR16                0      0       0      17        0.0%
BITBANK7            50      0       0      18        0.0%
BITSFR17             0      0       0      18        0.0%
SFR17                0      0       0      18        0.0%
BANK7               50      0       0      19        0.0%
BITSFR18             0      0       0      19        0.0%
SFR18                0      0       0      19        0.0%
BITBANK8            50      0       0      20        0.0%
BITSFR19             0      0       0      20        0.0%
SFR19                0      0       0      20        0.0%
BANK8               50      0       0      21        0.0%
BITSFR20             0      0       0      21        0.0%
SFR20                0      0       0      21        0.0%
BITBANK9            50      0       0      22        0.0%
BITSFR21             0      0       0      22        0.0%
SFR21                0      0       0      22        0.0%
BANK9               50      0       0      23        0.0%
BITSFR22             0      0       0      23        0.0%
SFR22                0      0       0      23        0.0%
BITBANK10           50      0       0      24        0.0%
BITSFR23             0      0       0      24        0.0%
SFR23                0      0       0      24        0.0%
BANK10              50      0       0      25        0.0%
BITSFR24             0      0       0      25        0.0%
SFR24                0      0       0      25        0.0%
BITBANK11           50      0       0      26        0.0%
BITSFR25             0      0       0      26        0.0%
SFR25                0      0       0      26        0.0%
BANK11              50      0       0      27        0.0%
BITSFR26             0      0       0      27        0.0%
SFR26                0      0       0      27        0.0%
BITSFR27             0      0       0      28        0.0%
SFR27                0      0       0      28        0.0%
ABS                  0      0      FA      28        0.0%
BITBANK12           50      0       0      29        0.0%
BITSFR28             0      0       0      29        0.0%
SFR28                0      0       0      29        0.0%
BANK12              50      0       0      30        0.0%
BITSFR29             0      0       0      30        0.0%
SFR29                0      0       0      30        0.0%
BITBANK13           50      0       0      31        0.0%
BITSFR30             0      0       0      31        0.0%
SFR30                0      0       0      31        0.0%
BANK13              50      0       0      32        0.0%
BITSFR31             0      0       0      32        0.0%
SFR31                0      0       0      32        0.0%
BITBANK14           50      0       0      33        0.0%
BITSFR32             0      0       0      33        0.0%
SFR32                0      0       0      33        0.0%
BANK14              50      0       0      34        0.0%
BITSFR33             0      0       0      34        0.0%
SFR33                0      0       0      34        0.0%
BITBANK15           50      0       0      35        0.0%
BITSFR34             0      0       0      35        0.0%
SFR34                0      0       0      35        0.0%
BANK15              50      0       0      36        0.0%
BITSFR35             0      0       0      36        0.0%
SFR35                0      0       0      36        0.0%
BITBANK16           50      0       0      37        0.0%
BITSFR36             0      0       0      37        0.0%
SFR36                0      0       0      37        0.0%
BANK16              50      0       0      38        0.0%
BITSFR37             0      0       0      38        0.0%
SFR37                0      0       0      38        0.0%
BITBANK17           50      0       0      39        0.0%
BITSFR38             0      0       0      39        0.0%
SFR38                0      0       0      39        0.0%
BANK17              50      0       0      40        0.0%
BITSFR39             0      0       0      40        0.0%
SFR39                0      0       0      40        0.0%
BITBANK18           50      0       0      41        0.0%
BITSFR40             0      0       0      41        0.0%
SFR40                0      0       0      41        0.0%
BANK18              50      0       0      42        0.0%
BITSFR41             0      0       0      42        0.0%
SFR41                0      0       0      42        0.0%
BITBANK19           50      0       0      43        0.0%
BITSFR42             0      0       0      43        0.0%
SFR42                0      0       0      43        0.0%
BANK19              50      0       0      44        0.0%
BITSFR43             0      0       0      44        0.0%
SFR43                0      0       0      44        0.0%
BITBANK20           50      0       0      45        0.0%
BITSFR44             0      0       0      45        0.0%
SFR44                0      0       0      45        0.0%
BANK20              50      0       0      46        0.0%
BITSFR45             0      0       0      46        0.0%
SFR45                0      0       0      46        0.0%
BITBANK21           50      0       0      47        0.0%
BITSFR46             0      0       0      47        0.0%
SFR46                0      0       0      47        0.0%
BANK21              50      0       0      48        0.0%
BITSFR47             0      0       0      48        0.0%
SFR47                0      0       0      48        0.0%
BITBANK22           50      0       0      49        0.0%
BITSFR48             0      0       0      49        0.0%
SFR48                0      0       0      49        0.0%
BANK22              50      0       0      50        0.0%
BITSFR49             0      0       0      50        0.0%
SFR49                0      0       0      50        0.0%
BITBANK23           50      0       0      51        0.0%
BITSFR50             0      0       0      51        0.0%
SFR50                0      0       0      51        0.0%
BANK23              50      0       0      52        0.0%
BITSFR51             0      0       0      52        0.0%
SFR51                0      0       0      52        0.0%
BITBANK24           50      0       0      53        0.0%
BITSFR52             0      0       0      53        0.0%
SFR52                0      0       0      53        0.0%
BANK24              50      0       0      54        0.0%
BITSFR53             0      0       0      54        0.0%
SFR53                0      0       0      54        0.0%
BITBANK25           50      0       0      55        0.0%
BITSFR54             0      0       0      55        0.0%
SFR54                0      0       0      55        0.0%
BANK25              50      0       0      56        0.0%
BITSFR55             0      0       0      56        0.0%
SFR55                0      0       0      56        0.0%
BITBANK26           50      0       0      57        0.0%
BITSFR56             0      0       0      57        0.0%
SFR56                0      0       0      57        0.0%
BANK26              50      0       0      58        0.0%
BITSFR57             0      0       0      58        0.0%
SFR57                0      0       0      58        0.0%
BITSFR58             0      0       0      59        0.0%
SFR58                0      0       0      59        0.0%
DATA                 0      0      FA      59        0.0%
BITBANK27           50      0       0      60        0.0%
BITSFR59             0      0       0      60        0.0%
SFR59                0      0       0      60        0.0%
BANK27              50      0       0      61        0.0%
BITSFR60             0      0       0      61        0.0%
SFR60                0      0       0      61        0.0%
BITBANK28           50      0       0      62        0.0%
BITSFR61             0      0       0      62        0.0%
SFR61                0      0       0      62        0.0%
BANK28              50      0       0      63        0.0%
BITSFR62             0      0       0      63        0.0%
SFR62                0      0       0      63        0.0%
BITBANK29           50      0       0      64        0.0%
BITSFR63             0      0       0      64        0.0%
SFR63                0      0       0      64        0.0%
BANK29              50      0       0      65        0.0%
BITBANK30           50      0       0      66        0.0%
BANK30              50      0       0      67        0.0%
BITBANK31           50      0       0      68        0.0%
BANK31              50      0       0      69        0.0%
BITBANK32           50      0       0      70        0.0%
BANK32              50      0       0      71        0.0%
BITBANK33           50      0       0      72        0.0%
BANK33              50      0       0      73        0.0%
BITBANK34           50      0       0      74        0.0%
BANK34              50      0       0      75        0.0%
BITBANK35           50      0       0      76        0.0%
BANK35              50      0       0      77        0.0%
BITBANK36           50      0       0      78        0.0%
BANK36              50      0       0      79        0.0%
BITBANK37           50      0       0      80        0.0%
BANK37              50      0       0      81        0.0%
BITBANK38           50      0       0      82        0.0%
BANK38              50      0       0      83        0.0%
BITBANK39           50      0       0      84        0.0%
BANK39              50      0       0      85        0.0%
BITBANK40           50      0       0      86        0.0%
BANK40              50      0       0      87        0.0%
BITBANK41           50      0       0      88        0.0%
BANK41              50      0       0      89        0.0%
BITBANK42           50      0       0      90        0.0%
BANK42              50      0       0      91        0.0%
BITBANK43           50      0       0      92        0.0%
BANK43              50      0       0      93        0.0%
BITBANK44           50      0       0      94        0.0%
BANK44              50      0       0      95        0.0%
BITBANK45           50      0       0      96        0.0%
BANK45              50      0       0      97        0.0%
BITBANK46           50      0       0      98        0.0%
BANK46              50      0       0      99        0.0%
BITBANK47           50      0       0     100        0.0%
BANK47              50      0       0     101        0.0%
BITBANK48           50      0       0     102        0.0%
BANK48              50      0       0     103        0.0%
BITBANK49           50      0       0     104        0.0%
BANK49              50      0       0     105        0.0%
BITBANK50           50      0       0     106        0.0%
BANK50              50      0       0     107        0.0%


Microchip Technology PIC Macro Assembler V2.41 build 20230208172133 
Symbol Table                                                                                   Mon Jul 17 13:04:04 2023

                ___fldiv@aexp 002C                  ___fldiv@bexp 002B                  ___fldiv@sign 0024  
                          l60 147E                            l63 1452                            l72 12A6  
                          l57 13DA                            l75 12BB                            l84 1287  
                          l69 12D2                            l78 0A17                            l87 128F  
         ___wmul@multiplicand 0072                   ?_LCD_String 0073           __Umul8_16@word_mpld 0076  
                         l241 132E                           l420 17E6                           l414 155A  
                         l239 131A                           l408 1529                           l440 1665  
                         l409 1545                           l425 17FF                           l417 1792  
                         l433 167A                           l443 167A                           l620 01E3  
                         l612 0170                           l540 0C0E                           l429 129A  
                         l702 12F0                           l519 0040                           l544 0C8C  
                         l617 01BC                           l561 0D1E                           l553 0DC4  
                         l529 0834                           l618 01D6                           l642 0F7F  
                         l546 0C6A                           l810 160A                           l802 16F5  
                         l571 0D62                           l636 0FFF                           l565 0D40  
                         l733 1498                           l821 0BB8                           l582 0DBD  
                         l574 0D9A                           l902 13FF                           l655 1383  
                         l583 0DC4                           l911 130F                           l648 0FF3  
                         l736 14B8                           l657 1393                           l905 0004  
                         l586 134E                           l738 14C3                           l746 024D  
                         l596 0092                           l861 0876                           l765 043F  
                         l749 07EA                           l845 13B6                           l598 01EA  
                         l862 091F                           l855 1774                           l775 064B  
                         l873 1370                           l866 0917                           l882 1426  
                         l876 1370                           l796 168F                           l894 15AA  
                         l879 141A                           _pad 147F                           wreg 0009  
                ___flmul@aexp 002D                  ___flmul@bexp 002E                  ___flmul@sign 0028  
                ___flmul@temp 0033                  ___flmul@prod 002F               __end_of_LCD_Cmd 147F  
                ___fltol@exp1 0079                          l3001 029D                          l3003 02A3  
                        l3011 02C8                          l2301 0C2D                          l2221 155B  
                        l3101 065E                          l3021 02F8                          l3013 02D1  
                        l3005 02AF                          l2311 0C37                          l2303 0C2F  
                        l2231 1592                          l2223 1560                          l3111 06C7  
                        l3103 06A7                          l3031 03B4                          l3023 0324  
                        l3015 02D3                          l3007 02B8                          l2321 0C6E  
                        l2313 0C39                          l2305 0C31                          l2241 0BBE  
                        l2233 15A1                          l2225 1565                          l3121 06E0  
                        l3113 06CE                          l3105 06B9                          l3033 03D1  
                        l3025 0353                          l3041 042C                          l3201 15C8  
                        l2411 0D96                          l2403 0D67                          l2331 0C82  
                        l2323 0C72                          l2307 0C33                          l2315 0C3B  
                        l2251 0BD5                          l2243 0BC2                          l2227 156A  
                        l3131 06FA                          l3123 06E4                          l3115 06D2  
                        l3107 06BE                          l3051 044D                          l3043 0432  
                        l3035 03D5                          l3027 037A                          l3019 02EB  
                        l3203 15D5                          l2501 1298                          l2421 0DB2  
                        l2413 0D9F                          l2405 0D6C                          l2341 0C9E  
                        l2325 0C74                          l2333 0C86                          l2317 0C3C  
                        l2309 0C35                          l2261 0BE9                          l2253 0BD6  
                        l2245 0BC3                          l2237 0BB9                          l2229 1574  
                        l3141 0770                          l3133 06FE                          l3125 06E8  
                        l3117 06D6                          l3109 06C3                          l3053 0451  
                        l3061 0465                          l3045 0436                          l3029 03AA  
                        l3205 15EA                          l3221 0A43                          l3213 0A1A  
                        l2431 1372                          l2503 129A                          l2423 0DB6  
                        l2415 0DA4                          l2407 0D74                          l2351 0CB4  
                        l2343 0CA6                          l2335 0C90                          l2327 0C78  
                        l2319 0C54                          l2271 0BF6                          l2263 0BEA  
                        l2247 0BC8                          l2255 0BD8                          l2239 0BBC  
                        l3151 07A1                          l3135 0702                          l3119 06D9  
                        l3127 06EC                          l3143 0774                          l3071 0526  
                        l3063 0467                          l3055 0459                          l3047 043B  
                        l3039 0405                          l3207 15F2                          l3231 0A6C  
                        l3223 0A4E                          l3215 0A2D                          l3321 142A  
                        l2601 0047                          l2441 138F                          l2433 1374  
                        l2425 0DB8                          l2417 0DAC                          l2409 0D78  
                        l2361 0CDE                          l2353 0CB8                          l2345 0CAA  
                        l2337 0C95                          l2329 0C79                          l2281 0C14  
                        l2273 0BFB                          l2265 0BEC                          l2257 0BE0  
                        l2249 0BCD                          l2521 1639                          l2513 161D  
                        l3161 07DB                          l3153 07B3                          l3145 0786  
                        l3137 0750                          l3129 06F2                          l3081 05B1  
                        l3073 0538                          l3065 046F                          l3057 045B  
                        l3049 0447                          l3209 1606                          l3241 0AA1  
                        l3233 0A75                          l3225 0A52                          l3217 0A36  
                        l3401 13D6                          l3403 1285                          l3331 1439  
                        l3323 1431                          l2611 005E                          l2603 004B  
                        l2435 137B                          l2427 0DBF                          l2419 0DB1  
                        l2371 0D26                          l2363 0D02                          l2355 0CB9  
                        l2347 0CAE                          l2291 0C23                          l2283 0C18  
                        l2275 0C03                          l2267 0BF0                          l2259 0BE3  
                        l2523 163D                          l2531 1655                          l2515 162E  
                        l2507 160B                          l2451 13F1                          l3163 07DF  
                        l3155 07BA                          l3147 0796                          l3139 076C  
                        l3091 0641                          l3083 05B9                          l3075 058A  
                        l3067 0478                          l3059 0461                          l3171 1688  
                        l3243 0AB1                          l3251 0ACB                          l3235 0A80  
                        l3227 0A54                          l3219 0A3E                          l3411 129F  
                        l3405 128B                          l3333 1447                          l3325 1432  
                        l2701 0159                          l2621 0070                          l2613 005F  
                        l2605 004C                          l2437 137F                          l2429 0DC3  
                        l2381 0D3F                          l2373 0D2B                          l2365 0D08  
                        l2357 0CC2                          l2349 0CB2                          l2293 0C25  
                        l2285 0C1D                          l2277 0C04                          l2269 0BF1  
                        l2541 166F                          l2517 162F                          l2509 1614  
                        l2445 13DD                          l3157 07CB                          l3149 079B  
                        l3093 0647                          l3085 05D6                          l3077 0594  
                        l3069 0522                          l2461 1324                          l2453 1310  
                        l3181 16BB                          l3173 169B                          l3253 0AD4  
                        l3237 0A89                          l3229 0A5A                          l3341 139F  
                        l3413 12A7                          l3421 14C7                          l3335 1448  
                        l3327 1433                          l3319 1428                          l3351 12BD  
                        l2711 0182                          l2703 016D                          l2631 0087  
                        l2623 0074                          l2607 0051                          l2615 0061  
                        l2471 153D                          l2439 138A                          l2383 0D44  
                        l2391 0D50                          l2367 0D0D                          l2359 0CC7  
                        l2295 0C27                          l2287 0C1F                          l2279 0C06  
                        l2519 1637                          l2447 13E0                          l3159 07D0  
                        l3095 0658                          l3087 0610                          l3079 05AC  
                        l2463 132A                          l2455 1312                          l2551 0015  
                        l2543 0005                          l3191 16E9                          l3183 16BF  
                        l3175 169E                          l3167 167D                          l3255 0ADB  
                        l3263 0AE5                          l3239 0A93                          l3343 13A9  
                        l3415 12B4                          l3431 14DF                          l3423 14C9  
                        l3337 1449                          l3329 1435                          l3353 12C5  
                        l2721 01CA                          l2713 0186                          l2641 00AA  
                        l2633 0088                          l2625 0075                          l2617 0069  
                        l2609 0056                          l2473 1557                          l2481 178A  
                        l2801 0EAF                          l2385 0D47                          l2377 0D34  
                        l2369 0D16                          l2393 0D54                          l2297 0C29  
                        l2289 0C21                          l2537 165C                          l2529 1645  
                        l2449 13EC                          l3097 0659                          l3089 0615  
                        l2457 1316                          l2561 0031                          l2553 0019  
                        l2545 0007                          l3177 16A3                          l3185 16CF  
                        l3169 1682                          l3273 0B29                          l3257 0AE0  
                        l3265 0AF8                          l3249 0ABA                          l3345 13B3  
                        l3417 0920                          l3361 145D                          l3409 129B  
                        l3441 14FD                          l3433 14E2                          l3425 14CC  
                        l3355 12C9                          l2731 01DF                          l2723 01CD  
                        l2715 019E                          l2707 0175                          l2651 00C1  
                        l2627 007A                          l2635 008A                          l2619 006E  
                        l2475 1559                          l2467 150D                          l2491 17CE  
                        l2483 17A6                          l2811 0EEC                          l2803 0EBA  
                        l2395 0D55                          l2387 0D49                          l2379 0D3B  
                        l2299 0C2B                          l2539 166A                          l3099 065B  
                        l2459 131F                          l3195 15AD                          l2563 0036  
                        l2555 001D                          l2547 000D                          l2571 0807  
                        l3187 16D6                          l3179 16B6                          l3283 0B5C  
                        l3275 0B39                          l3267 0B03                          l3531 0AED  
                        l3259 0AE3                          l3339 1396                          l3371 1473  
                        l3363 145E                          l3435 14E9                          l3427 14CD  
                        l3419 14C4                          l3349 12BC                          l2725 01D5  
                        l2709 017A                          l2717 01A2                          l2661 00EB  
                        l2653 00D1                          l2637 009A                          l2645 00B3  
                        l2629 007F                          l2469 1521                          l2493 17FC  
                        l2485 17AE                          l2821 0F3C                          l2813 0EF7  
                        l2805 0EC1                          l2741 0DCB                          l2397 0D59  
                        l2389 0D4E                          l2901 1729                          l3197 15AF  
                        l2557 002C                          l2549 0010                          l2565 003C  
                        l2581 0821                          l2573 080A                          l3189 16DC  
                        l3293 0B94                          l3277 0B49                          l3533 0B31  
                        l3269 0B16                          l3285 0B6D                          l3381 12DB  
                        l3373 1474                          l3365 145F                          l3357 1454  
                        l3437 14ED                          l3429 14D6                          l2727 01D9  
                        l2719 01AF                          l2663 00F0                          l2671 010A  
                        l2655 00D9                          l2647 00B8                          l2639 00A6  
                        l2495 17FE                          l2487 17B2                          l2479 1775  
                        l2831 0F5B                          l2823 0F48                          l2815 0F09  
                        l2807 0ED3                          l2751 0DE2                          l2743 0DCF  
                        l2399 0D5F                          l2591 132F                          l2911 1750  
                        l2903 1740                          l3199 15C0                          l2559 0030  
                        l2583 0825                          l2575 080F                          l3287 0B80  
                        l3535 0B68                          l3383 12DD                          l3375 1475  
                        l3367 1461                          l3359 1456                          l3391 13BF  
                        l3439 14F5                          l2729 01DD                          l2681 012F  
                        l2673 011C                          l2665 00FE                          l2657 00E1  
                        l2489 17CA                          l2841 0F7C                          l2825 0F4F  
                        l2833 0F5F                          l2817 0F1E                          l2809 0EDA  
                        l2761 0DF7                          l2753 0DE4                          l2745 0DD0  
                        l2737 0DC5                          l2593 1332                          l2905 1745  
                        l2921 12F8                          l2585 082A                          l2577 0813  
                        l2569 0801                          l3289 0B89                          l3529 0AC6  
                        l3297 0B9E                          l3385 12E8                          l3377 12D5  
                        l3369 1465                          l3393 13C6                          l2691 0145  
                        l2683 0137                          l2675 011D                          l2667 0102  
                        l2659 00E9                          l2851 0F95                          l2835 0F63  
                        l2827 0F53                          l2819 0F35                          l2771 0E0C  
                        l2763 0DF8                          l2755 0DEC                          l2747 0DD5  
                        l2739 0DC9                          l2499 1290                          l2915 1770  
                        l2931 0868                          l2923 134F                          l2579 0817  
                        l2587 0830                          l3379 12D9                          l3395 13CA  
                        l2693 014C                          l2685 0139                          l2677 0125  
                        l2669 0103                          l2597 0041                          l2861 0FD6  
                        l2853 0FAD                          l2845 0F84                          l2837 0F64  
                        l2829 0F54                          l2781 0E27                          l2773 0E14  
                        l2765 0DFD                          l2757 0DF1                          l2749 0DDA  
                        l2909 174A                          l2941 08A8                          l2933 0875  
                        l2925 1360                          l3397 13CE                          l3389 13B7  
                        ?_pad 007B                          l2687 0140                          l2695 0150  
                        l2679 0129                          l2599 0045                          l2871 0FF1  
                        l2863 0FDF                          l2847 0F89                          l2855 0FB1  
                        l2839 0F68                          l2791 0E7C                          l2783 0E32  
                        l2775 0E19                          l2767 0E02                          l2759 0DF3  
                        l2951 08F8                          l2943 08BF                          l2935 087B  
                        l2927 0835                          l2919 12F2                          l3399 13D2  
                        l2697 0154                          l2689 0144                          l2873 0FF7  
                        l2865 0FE1                          l2857 0FBE                          l2849 0F91  
                        l2793 0E89                          l2785 0E3F                          l2777 0E1E  
                        l2769 0E0A                          l2953 090F                          l2945 08C7  
                        l2937 0893                          l2929 084D                          l2961 140C  
                        l2881 148B                          l2699 0155                          l2867 0FEC  
                        l2859 0FC8                          l2795 0E96                          l2787 0E57  
                        l2947 08D8                          l2963 1410                          l2891 14AA  
                        l2883 148F                          l2971 021C                          l2869 0FF0  
                        l2797 0E9D                          l2789 0E64                          l2949 08EF  
                        l2957 1401                          l2893 14BD                          l2885 1495  
                        l2877 1481                          l2981 023F                          l2973 021F  
                        l2965 01ED                          l2799 0EA8                          l2895 16F6  
                        l2959 1406                          l2887 149B                          l2879 1485  
                        l2991 0266                          l2983 0244                          l2975 0233  
                        l2967 01EE                          l2897 170E                          l2889 14A5  
                        l2993 0272                          l2985 0249                          l2977 0236  
                        l2969 01FE                          l2899 1723                          l2995 027B  
                        l2987 024F                          l2979 023A                          l2989 0260  
                        l2999 028B                          STR_1 1800                          STR_2 180F  
                        STR_3 1815                          STR_4 181B                          STR_7 181F  
                        u2200 1574                          u2201 1573                          u2210 1592  
                        u3010 0817                          u2211 1591                          u3011 0816  
                        u3100 007F                          u2300 0C18                          u2220 0BC2  
                        u3020 0821                          u3101 007E                          u2301 0C17  
                        u2221 0BC1                          u3021 0820                          u3005 080B  
                        u3110 009A                          u2310 0C54                          u2230 0BC8  
                        u3111 0099                          u2311 0C53                          u2231 0BC7  
                        u2215 158E                          u3200 0137                          u3120 00B8  
                        u2400 0CAA                          u2320 0C5D                          u2240 0BCD  
                        u4000 044D                          u3040 0830                          u3201 0136  
                        u3121 00B7                          u2401 0CA9                          u2321 0C5B  
                        u2241 0BCC                          u4001 044C                          u3041 082F  
                        u3025 081D                          u3130 00F0                          u3050 004B  
                        u2410 0CAE                          u2330 0C5E                          u2250 0BE9  
                        u4010 0451                          u3131 00EF                          u3051 004A  
                        u2411 0CAD                          u2315 0C50                          u2251 0BE8  
                        u4011 0450                          u3035 0826                          u3300 0194  
                        u3220 0144                          u3060 0051                          u2500 0D44  
                        u2420 0CB8                          u2340 0C6E                          u2260 0BF0  
                        u2180 1560                          u4100 06C3                          u4020 0461  
                        u3221 0143                          u3061 0050                          u2501 0D43  
                        u2421 0CB7                          u2341 0C6D                          u2261 0BEF  
                        u2181 155F                          u4101 06C2                          u4021 0460  
                        u3310 01AF                          u3070 0056                          u2510 0D4E  
                        u2350 0C78                          u2270 0BF6                          u2190 1565  
                        u4110 06C7                          u4030 0538                          u3311 01AE  
                        u3215 013A                          u3071 0055                          u2511 0D4D  
                        u2351 0C77                          u2271 0BF5                          u2191 1564  
                        u4111 06C6                          u4031 0537                          u3320 01CA  
                        u3240 0154                          u3160 0102                          u3080 0074  
                        u3400 0E19                          u2600 0D9F                          u2520 0D54  
                        u2440 0CDE                          u2280 0BFB                          u4120 06F2  
                        u4040 058A                          u4200 16DC                          u3321 01C9  
                        u3305 0190                          u3241 0153                          u3161 0101  
                        u3145 00F1                          u3081 0073                          u3401 0E18  
                        u2601 0D9E                          u2521 0D53                          u2441 0CDD  
                        u2281 0BFA                          u4121 06F1                          u4041 0589  
                        u4201 16DB                          u3330 01DD                          u3250 0159  
                        u3090 007A                          u3410 0E1E                          u2610 0DA4  
                        u2530 0D59                          u2450 0D0D                          u2370 0C8C  
                        u2290 0C14                          u4130 0786                          u4050 05AC  
                        u4210 16E9                          u3331 01DC                          u3315 01AB  
                        u3251 0158                          u3235 0146                          u3155 00F8  
                        u3091 0079                          u3411 0E1D                          u2611 0DA3  
                        u2531 0D58                          u2451 0D0C                          u2443 0CDA  
                        u2435 0CBC                          u2371 0C8B                          u2291 0C13  
                        u4131 0785                          u4051 05AB                          u4035 0534  
                        u4211 16E8                          u3260 016D                          u3180 011C  
                        u3500 0F63                          u3340 0DCF                          u2620 0DB1  
                        u2540 0D5F                          u2460 0D26                          u2380 0C90  
                        u4140 0796                          u4060 05B1                          u4220 15C0  
                        u3325 01C6                          u3261 016C                          u3181 011B  
                        u3501 0F62                          u3341 0DCE                          u2621 0DB0  
                        u2541 0D5E                          u2461 0D25                          u2381 0C8F  
                        u2365 0C7C                          u4141 0795                          u4061 05B0  
                        u4221 15BF                          u3270 0174                          u3190 012F  
                        u3510 0F68                          u3350 0DD5                          u2630 0DB6  
                        u2550 0D66                          u2470 0D2B                          u2390 0C95  
                        u4150 07C0                          u4070 0610                          u4230 1606  
                        u4310 13B3                          u3271 0173                          u3191 012E  
                        u3175 0104                          u3511 0F67                          u3351 0DD4  
                        u2631 0DB5                          u2551 0D65                          u2471 0D2A  
                        u2391 0C94                          u4151 07BE                          u4135 0782  
                        u4071 060F                          u4231 1605                          u4215 16E5  
                        u4311 13B2                          u4320 12D2                          u3280 017A  
                        u2800 17FC                          u3520 0F7C                          u3440 0F14  
                        u3360 0DDA                          u2640 0DC3                          u2560 0D6C  
                        u3600 1485                          u4160 07C1                          u4080 0647  
                        u2720 132A                          u4240 0A2D                          u4305 143C  
                        u4321 12D1                          u3281 0179                          u3185 0118  
                        u2801 17FB                          u3521 0F7B                          u3425 0E97  
                        u3361 0DD9                          u2641 0DC2                          u2561 0D6B  
                        u3601 1484                          u4145 0792                          u4081 0646  
                        u2721 1329                          u2705 131B                          u4241 0A2C  
                        u3290 0186                          u2730 1521                          u2650 137F  
                        u3530 0F83                          u3450 0F2B                          u3370 0DF7  
                        u2810 1298                          u2570 0D78                          u2490 0D3F  
                        u3610 148F                          u4170 07D0                          u4090 06A7  
                        u4250 0A52                          u3291 0185                          u2731 1520  
                        u2651 137E                          u3531 0F82                          u3435 0EC2  
                        u3371 0DF6                          u2811 1297                          u2571 0D77  
                        u2491 0D3E                          u3611 148E                          u4171 07CF  
                        u4091 06A6                          u2715 1320                          u4251 0A51  
                        u4340 128B                          u2740 153D                          u3540 0F89  
                        u3380 0DFD                          u2580 0D87                          u2900 166A  
                        u2820 1614                          u3700 1768                          u3620 14B8  
                        u4180 1682                          u4260 0A6C                          u4341 128A  
                        u2741 153C                          u2805 17F8                          u3541 0F88  
                        u3445 0F10                          u3381 0DFC                          u2485 0D35  
                        u2901 1669                          u2821 1613                          u3701 1766  
                        u3621 14B7                          u4181 1681                          u4261 0A6B  
                        u2750 1557                          u2670 138F                          u3550 0F95  
                        u3390 0E02                          u2590 0D96                          u2910 166F  
                        u2830 162A                          u3710 1769                          u3630 14BD  
                        u4190 16D6                          u4270 0A93                          u4407 1436  
                        u2751 1556                          u2671 138E                          u3551 0F94  
                        u3455 0F27                          u3391 0E01                          u2591 0D95  
                        u2911 166E                          u3631 14BC                          u4095 06A3  
                        u4191 16D5                          u4271 0A92                          u4335 1468  
                        u2760 178A                          u3560 0FA3                          u3480 0F53  
                        u2840 163D                          u3640 171B                          u3800 08BF  
                        u2680 13FF                          u3720 130F                          u2920 000D  
                        u4280 0B02                          u4417 144E                          u2761 1789  
                        u2665 1384                          u3481 0F52                          u3465 0F36  
                        u2585 0D83                          u2841 163C                          u3801 08BE  
                        u2681 13FE                          u3625 14B4                          u3721 130E  
                        u2921 000C                          u4281 0B01                          u2770 17A6  
                        u3570 0FBE                          u2850 1644                          u3650 1729  
                        u3810 08E5                          u3730 1360                          u2690 1316  
                        u4290 0B80                          u2755 1553                          u2771 17A5  
                        u3571 0FBD                          u3475 0F49                          u2851 1643  
                        u2835 1626                          u3651 1728                          u3731 135F  
                        u2691 1315                          u4291 0B7F                          u2780 17B2  
                        u3580 0FD6                          u3660 1736                          u3820 08EF  
                        u3740 085A                          u3900 0266                          u2940 001D  
                        u2781 17B1                          u3581 0FD5                          u3565 0F9F  
                        u3645 1717                          u3821 08EE                          u3901 0265  
                        u2941 001C                          u4357 1503                          u2790 17CE  
                        u3590 0FF0                          u2870 1654                          u3670 1740  
                        u3830 0905                          u3750 0875                          u3910 029D  
                        u2791 17CD                          u3591 0FEF                          u3575 0FBA  
                        u3495 0F55                          u2871 1653                          u3671 173F  
                        u3815 08E1                          u3751 0874                          u3911 029C  
                        u2935 0011                          u4367 13C2                          u2880 165B  
                        u3680 1750                          u3840 090F                          u3760 087B  
                        u3920 02A3                          u2960 002C                          u3585 0FD2  
                        u2881 165A                          u2865 1646                          u3681 174F  
                        u3665 1732                          u3841 090E                          u3761 087A  
                        u3745 0856                          u3921 02A2                          u2961 002B  
                        u4377 12A2                          u3690 175D                          u3770 0889  
                        u3850 1426                          u3930 02EA                          u3835 0901  
                        u3755 0871                          u3851 1425                          u3931 02E9  
                        u2955 001E                          u4387 1462                          u3780 08A7  
                        u3940 0353                          u3860 021C                          u2980 003C  
                        u3781 08A6                          u3941 0352                          u3861 021B  
                        u2981 003B                          u2965 0028                          u4397 147A  
                        u3790 08B5                          u3950 037A                          u3870 023F  
                        u2990 0807                          u2895 165D                          u3695 1759  
                        u3775 0885                          u3951 0379                          u3871 023E  
                        u2975 0032                          u2991 0806                          u3960 03AA  
                        u3880 0244                          u3961 03A9                          u3881 0243  
                        u3970 0404                          u3890 0260                          u3795 08B1  
                        u3971 0403                          u3891 025F                          u3980 042C  
                        u3981 042B                          u3990 0436                          u3991 0435  
                        _TMR1 020C                          _dbuf 0120                          _labs 134F  
                        _main 14C4                   _oxygenLevel 00EA                          _prec 00E4  
                        pad@i 0025                          pad@p 007C                          fsr0h 0005  
                        fsr1h 0007                          indf0 0000                          fsr0l 0004  
                        indf1 0001                          fsr1l 0006                          pad@w 0027  
                        btemp 007E                          _utoa 167B              __end_of_ADC_Read 1290  
               ___fpclassifyf 16F6                          start 0002               ___fldiv@new_exp 0025  
                       ??_pad 0024              __end_of_LCD_Char 1453              __end_of_LCD_Init 13DB  
                LCD_Char@data 0072                 ___fltol@sign1 0078                         ?_labs 0070  
             __end_of___fladd 0DC5                         ?_main 0070               __end_of___fldiv 01EB  
             __end_of___flneg 129B               __end_of___flmul 1000               __end_of___flsub 134F  
             __end_of___fltol 167B                         ?_utoa 002A               __end_of___lwdiv 0041  
             __end_of___lwmod 0835                  vfpfcnvrt@fmt 00CD                         _PORTC 000E  
                       _flags 006F           read_prec_or_width@c 0020           read_prec_or_width@n 0021  
                       _fputc 155B                         _fputs 13DB                         labs@a 0070  
                       pad@fp 0029                         _width 00E2                         _putch 0004  
                       utoa@d 002A                         utoa@i 0032                         utoa@p 0030  
                       utoa@w 002D                         status 0003                         wtemp0 007E  
             __end_of_sprintf 12F1                ?___fpclassifyf 0070               __initialization 07EB  
                __end_of_labs 1371                  __end_of_main 150D                  __end_of_utoa 16F6  
                      ??_labs 0074                        ??_main 006D                        ??_utoa 002C  
           __end_of_LCD_Clear 12A7                     ??_LCD_Cmd 0070    __end_of_read_prec_or_width 160B  
        __end_of_Display_Time 0A18                        ?_fputc 0070                        ?_fputs 0078  
                      _ADRESH 008D                        _ADRESL 008C                        ?_putch 0070  
           Display_Time@hours 0025                  vfprintf@cfmt 0058                        ___flge 1775  
                      ___fleq 150D                     ??___fladd 0020                        ___wmul 1310  
                   ??___fldiv 0078                     ??___flneg 0074                     ??___flmul 0079  
                   ??___flsub 007E                     ??___fltol 0074                        _efgtoa 01EB  
                   ??___lwdiv 007A                     ??___lwmod 0074               ADC_Read@channel 0070  
                      _floorf 0835                        _memcpy 1400          read_prec_or_width@ap 0076  
                      pad@buf 007B                        _strcpy 12F1                        fputc@c 0070  
                      fputs@c 0020                        fputs@i 0021                        fputs@s 0023  
             ___fpclassifyf@e 0020               ___fpclassifyf@u 0022                     ?_ADC_Read 0070  
             ___fpclassifyf@x 0070                        putch@c 0070              __end_of_vfprintf 13B7  
                      utoa@fp 002F                     ??_sprintf 005A                    ___flge@ff1 0035  
                  ___flge@ff2 0039               ??___fpclassifyf 0074                    ___fleq@ff1 0070  
                  ___fleq@ff2 0074                     ?_LCD_Char 0070       __end_of__initialization 07FD  
                   ?_LCD_Init 0070                    ___flneg@f1 0070                    ___fltol@f1 0070  
              __pcstackCOMMON 0070                 __end_of_fputc 15AB                 __end_of_fputs 1400  
               __end_of_putch 0005                  ??_LCD_String 0075                    ??_ADC_Read 0072  
                     ??_fputc 0073                       ??_fputs 0079                       ??_putch 0070  
                  __pbssBANK0 006F                    __pbssBANK1 00DA                    __pbssBANK2 0120  
              LCD_Cmd@command 0072                    ??_LCD_Char 0070                    ??_LCD_Init 0073  
          __end_of_LCD_String 12D3             __end_of__Umul8_16 1394                    _efgtoa$902 00A6  
                  __pmaintext 14C4                       ?___flge 0035                       ?___fleq 0070  
                     ?___wmul 0070                       ?_efgtoa 0041                       ?_floorf 002D  
                     ?_memcpy 0070                       ?_strcpy 0070                       _LCD_Cmd 1453  
                _Display_Time 0920                       ___fladd 0BB9                       ___fldiv 0041  
                     ___flneg 1290                       ___flmul 0DC5                       ___flsub 132F  
                     ___fltol 160B                       ___lwdiv 0005                       ___lwmod 0801  
                   ?_vfprintf 00CF                       __ptext1 13B7                       __ptext2 129B  
                     __ptext3 1453                       __ptext4 0920                       __ptext5 12A7  
                     __ptext6 12D3                       __ptext7 1394                       __ptext8 0A18  
                     __ptext9 167B                     _T1CONbits 020E         read_prec_or_width@fmt 0023  
                     efgtoa@c 0045                       efgtoa@d 00AB                       efgtoa@e 00B0  
                     efgtoa@f 0041                       efgtoa@g 00C5                       efgtoa@h 00BA  
                     efgtoa@i 00B8                       efgtoa@l 00BE                       efgtoa@m 00AD  
                     efgtoa@n 00C3                       efgtoa@p 00A2                       efgtoa@t 00A4  
                     efgtoa@u 00C9                       efgtoa@w 00B2                     _LCD_Clear 129B  
                     _sprintf 12D3                       clrloop0 1280          end_of_initialization 07FD  
                     floorf@e 003B                       floorf@m 0037                       floorf@u 003D  
                     floorf@x 002D                       memcpy@d 0076                       memcpy@n 0071  
                     memcpy@s 0077                       fputc@fp 0072                       fputs@fp 0078  
          _read_prec_or_width 15AB     Display_Oxygen_Level@level 00D8             __end_of_vfpfcnvrt 0BB9  
                  efgtoa@mode 00A9                    efgtoa@sign 00C2           ?_read_prec_or_width 0076  
            vfpfcnvrt@convarg 004E                    ??_vfprintf 0056                    _timerCount 00E8  
                     strcpy@d 0076                       strcpy@s 0074                     _PORTBbits 000D  
                   _PORTCbits 000E                     _PORTEbits 0010                   ___fladd@grs 007B  
                   _TRISCbits 0013                     _TRISEbits 0015                    ?_LCD_Clear 0070  
        ??_read_prec_or_width 0078                   ___fldiv@grs 0027                   ___fldiv@rem 0020  
                 ___flmul@grs 0029                __end_of___flge 1800                __end_of___fleq 155B  
                 vfpfcnvrt@ap 00CE                   vfpfcnvrt@cp 0054                   vfpfcnvrt@fp 0053  
              __end_of___wmul 132F                __end_of_efgtoa 07EB                __end_of_floorf 0920  
              __end_of_memcpy 1427                    floorf@F526 00DA                __end_of_strcpy 1310  
         start_initialization 07EB                   __end_of_pad 14C4         __end_of___fpclassifyf 1775  
                 vfprintf@fmt 00CF                      ??___flge 003D                      ??___fleq 0078  
__end_of_Display_Oxygen_Level 12BC                      ??___wmul 0074                      ??_efgtoa 0046  
                   __Umul8_16 1371                      ??_floorf 0031                      ??_memcpy 0073  
                    ??_strcpy 0072                     ___fladd@a 0074                     ___fladd@b 0070  
                    ?_LCD_Cmd 0070                     ___fldiv@a 0070                     ___fldiv@b 0074  
                   ___flmul@a 0024                     ___flmul@b 0020                     ___flsub@a 0035  
                   ___flsub@b 0039                     ___latbits 0004                 __pcstackBANK0 0020  
               __pcstackBANK1 00A0                   ??_LCD_Clear 0073              ___lwdiv@dividend 0078  
                    ?___fladd 0070                      ?___fldiv 0070                      ?___flneg 0070  
                    ?___flmul 0020                      ?___flsub 0035                      ?___fltol 0070  
                  ?__Umul8_16 0070                      ?___lwdiv 0076                      ?___lwmod 0070  
                    _ADC_Read 1285              ___lwdiv@quotient 007B                      ?_sprintf 00D2  
                    _LCD_Char 1427                      _LCD_Init 13B7                ___wmul@product 0074  
                   clear_ram0 127F                     _vfpfcnvrt 0A18                    _ADCON0bits 0093  
           ___wmul@multiplier 0070                    vfpfcnvrt@c 0052          _Display_Oxygen_Level 12A7  
              LCD_String@text 0073                     memcpy@tmp 0074                    vfprintf@ap 00D1  
                  vfprintf@fp 0057           Display_Time@minutes 0023           Display_Time@seconds 0020  
                 ??__Umul8_16 0072                    ?_vfpfcnvrt 00CD            ___fpclassifyf@F465 00DE  
                  sprintf@fmt 00D2               ___lwdiv@divisor 0076               ___lwdiv@counter 007D  
                    __ptext10 0801                      __ptext11 0005                      __ptext20 1400  
                    __ptext12 15AB                      __ptext21 134F                      __ptext13 1310  
                    __ptext30 1775                      __ptext22 0835                      __ptext14 01EB  
                    __ptext31 150D                      __ptext23 16F6                      __ptext15 12F1  
                    __ptext32 0041                      __ptext24 160B                      __ptext16 147F  
                    __ptext33 12BC                      __ptext25 132F                      __ptext17 13DB  
                    __ptext34 1427                      __ptext26 0BB9                      __ptext18 155B  
                    __ptext35 1285                      __ptext27 1290                      __ptext19 0004  
                    __ptext28 0DC5                      __ptext29 1371         ?_Display_Oxygen_Level 00D8  
                  strcpy@dest 0077                      efgtoa@fp 00AF                      efgtoa@ne 00A0  
                    efgtoa@pp 00A8                      efgtoa@ou 00B4                      _vfprintf 1394  
                  _LCD_String 12BC                      memcpy@d1 0075                      memcpy@s1 0070  
  Display_Oxygen_Level@buffer 0068                     sprintf@ap 005C              ___lwmod@dividend 0072  
                   strcpy@src 0070                 ?_Display_Time 0020                   efgtoa@nmode 00AA  
                 ??_vfpfcnvrt 004A                 __pstringtext1 1800                 __pstringtext2 180F  
               __pstringtext3 1815                 __pstringtext4 181B                 __pstringtext5 181F  
               __pstringtext6 0000        __Umul8_16@multiplicand 0070                   _temperature 00E6  
                    sprintf@f 005D                      sprintf@s 005B               ___lwmod@divisor 0070  
             ___lwmod@counter 0075        ??_Display_Oxygen_Level 007E                 ___fladd@signs 0078  
                ___fladd@aexp 0079                  ___fladd@bexp 007A          __Umul8_16@multiplier 0078  
              ??_Display_Time 0022             __Umul8_16@product 0074  
