

Microchip MPLAB XC8 Assembler V2.41 build 20230208172133 
                                                                                               Sun Jul 30 20:22:12 2023

Microchip MPLAB XC8 C Compiler v2.41 (Free license) build 20230208172133 Og1 
     1                           	processor	16F18877
     2                           	pagewidth 120
     3                           	opt	flic
     4                           	psect	idataBANK0,global,class=CODE,delta=2,noexec
     5                           	psect	stringtext1,global,class=STRCODE,delta=2,noexec
     6                           	psect	stringtext2,global,class=STRCODE,delta=2,noexec
     7                           	psect	stringtext3,global,class=STRCODE,delta=2,noexec
     8                           	psect	stringtext4,global,class=STRCODE,delta=2,noexec
     9                           	psect	stringtext5,global,class=STRCODE,delta=2,noexec
    10                           	psect	cinit,global,class=CODE,merge=1,delta=2
    11                           	psect	bssCOMMON,global,class=COMMON,space=1,delta=1,noexec
    12                           	psect	bssBANK0,global,class=BANK0,space=1,delta=1,noexec
    13                           	psect	dataBANK0,global,class=BANK0,space=1,delta=1,noexec
    14                           	psect	cstackCOMMON,global,class=COMMON,space=1,delta=1,noexec
    15                           	psect	maintext,global,class=CODE,merge=1,split=1,delta=2
    16                           	psect	text1,local,class=CODE,merge=1,delta=2
    17                           	psect	text2,local,class=CODE,merge=1,delta=2
    18                           	psect	text3,local,class=CODE,merge=1,delta=2
    19                           	psect	text4,local,class=CODE,merge=1,delta=2
    20                           	psect	text5,local,class=CODE,merge=1,delta=2
    21                           	psect	text6,local,class=CODE,merge=1,delta=2
    22                           	psect	text7,local,class=CODE,merge=1,delta=2
    23                           	psect	config,global,abs,ovrld,class=CONFIG,space=4,delta=2,noexec
    24                           	dabs	1,0x7E,2
    25     0000                     
    26                           ; Generated 09/02/2023 GMT
    27                           ; 
    28                           ; Copyright © 2023, Microchip Technology Inc. and its subsidiaries ("Microchip")
    29                           ; All rights reserved.
    30                           ; 
    31                           ; This software is developed by Microchip Technology Inc. and its subsidiaries ("Microch
      +                          ip").
    32                           ; 
    33                           ; Redistribution and use in source and binary forms, with or without modification, are
    34                           ; permitted provided that the following conditions are met:
    35                           ; 
    36                           ;     1. Redistributions of source code must retain the above copyright notice, this lis
      +                          t of
    37                           ;        conditions and the following disclaimer.
    38                           ; 
    39                           ;     2. Redistributions in binary form must reproduce the above copyright notice, this 
      +                          list
    40                           ;        of conditions and the following disclaimer in the documentation and/or other
    41                           ;        materials provided with the distribution. Publication is not required when
    42                           ;        this file is used in an embedded application.
    43                           ; 
    44                           ;     3. Microchip's name may not be used to endorse or promote products derived from th
      +                          is
    45                           ;        software without specific prior written permission.
    46                           ; 
    47                           ; THIS SOFTWARE IS PROVIDED BY MICROCHIP "AS IS" AND ANY EXPRESS OR IMPLIED WARRANTIES,
    48                           ; INCLUDING, BUT NOT LIMITED TO, THE IMPLIED WARRANTIES OF MERCHANTABILITY AND FITNESS F
      +                          OR
    49                           ; PURPOSE ARE DISCLAIMED.  IN NO EVENT SHALL MICROCHIP BE LIABLE FOR ANY DIRECT, INDIREC
      +                          T,
    50                           ; INCIDENTAL, SPECIAL, EXEMPLARY, OR CONSEQUENTIAL DAMAGES (INCLUDING BUT NOT LIMITED TO
    51                           ; PROCUREMENT OF SUBSTITUTE GOODS OR SERVICES; LOSS OF USE, DATA OR PROFITS; OR BUSINESS
    52                           ; INTERRUPTION) HOWSOEVER CAUSED AND ON ANY THEORY OF LIABILITY, WHETHER IN CONTRACT, ST
      +                          RICT
    53                           ; LIABILITY, OR TORT (INCLUDING NEGLIGENCE OR OTHERWISE) ARISING IN ANY WAY OUT OF THE U
      +                          SE OF
    54                           ; THIS SOFTWARE, EVEN IF ADVISED OF THE POSSIBILITY OF SUCH DAMAGE.
    55                           ; 
    56                           ; 
    57                           ; Code-generator required, PIC16F18877 Definitions
    58                           ; 
    59                           ; SFR Addresses
    60     0000                     	;# 
    61     0001                     	;# 
    62     0002                     	;# 
    63     0003                     	;# 
    64     0004                     	;# 
    65     0005                     	;# 
    66     0006                     	;# 
    67     0007                     	;# 
    68     0008                     	;# 
    69     0009                     	;# 
    70     000A                     	;# 
    71     000B                     	;# 
    72     000C                     	;# 
    73     000D                     	;# 
    74     000E                     	;# 
    75     000F                     	;# 
    76     0010                     	;# 
    77     0011                     	;# 
    78     0012                     	;# 
    79     0013                     	;# 
    80     0014                     	;# 
    81     0015                     	;# 
    82     0016                     	;# 
    83     0017                     	;# 
    84     0018                     	;# 
    85     0019                     	;# 
    86     001A                     	;# 
    87     001C                     	;# 
    88     001C                     	;# 
    89     001D                     	;# 
    90     001D                     	;# 
    91     001E                     	;# 
    92     001F                     	;# 
    93     008C                     	;# 
    94     008C                     	;# 
    95     008D                     	;# 
    96     008E                     	;# 
    97     008E                     	;# 
    98     008F                     	;# 
    99     0090                     	;# 
   100     0090                     	;# 
   101     0091                     	;# 
   102     0093                     	;# 
   103     0094                     	;# 
   104     0095                     	;# 
   105     0096                     	;# 
   106     0097                     	;# 
   107     0098                     	;# 
   108     0099                     	;# 
   109     009A                     	;# 
   110     009B                     	;# 
   111     009C                     	;# 
   112     009D                     	;# 
   113     009E                     	;# 
   114     010C                     	;# 
   115     010D                     	;# 
   116     010E                     	;# 
   117     010E                     	;# 
   118     010F                     	;# 
   119     0110                     	;# 
   120     0110                     	;# 
   121     0111                     	;# 
   122     0112                     	;# 
   123     0112                     	;# 
   124     0113                     	;# 
   125     0114                     	;# 
   126     0114                     	;# 
   127     0115                     	;# 
   128     0116                     	;# 
   129     0116                     	;# 
   130     0117                     	;# 
   131     0119                     	;# 
   132     0119                     	;# 
   133     0119                     	;# 
   134     011A                     	;# 
   135     011A                     	;# 
   136     011A                     	;# 
   137     011B                     	;# 
   138     011B                     	;# 
   139     011B                     	;# 
   140     011B                     	;# 
   141     011B                     	;# 
   142     011C                     	;# 
   143     011C                     	;# 
   144     011C                     	;# 
   145     011D                     	;# 
   146     011D                     	;# 
   147     011D                     	;# 
   148     011E                     	;# 
   149     011E                     	;# 
   150     011E                     	;# 
   151     011F                     	;# 
   152     011F                     	;# 
   153     011F                     	;# 
   154     011F                     	;# 
   155     011F                     	;# 
   156     018C                     	;# 
   157     018D                     	;# 
   158     018E                     	;# 
   159     018F                     	;# 
   160     0190                     	;# 
   161     0191                     	;# 
   162     0192                     	;# 
   163     0196                     	;# 
   164     0197                     	;# 
   165     0198                     	;# 
   166     0199                     	;# 
   167     019A                     	;# 
   168     019B                     	;# 
   169     019C                     	;# 
   170     020C                     	;# 
   171     020C                     	;# 
   172     020D                     	;# 
   173     020E                     	;# 
   174     020F                     	;# 
   175     020F                     	;# 
   176     0210                     	;# 
   177     0210                     	;# 
   178     0211                     	;# 
   179     0211                     	;# 
   180     0212                     	;# 
   181     0212                     	;# 
   182     0213                     	;# 
   183     0214                     	;# 
   184     0215                     	;# 
   185     0215                     	;# 
   186     0216                     	;# 
   187     0216                     	;# 
   188     0217                     	;# 
   189     0217                     	;# 
   190     0218                     	;# 
   191     0218                     	;# 
   192     0219                     	;# 
   193     021A                     	;# 
   194     021B                     	;# 
   195     021B                     	;# 
   196     021C                     	;# 
   197     021C                     	;# 
   198     021D                     	;# 
   199     021D                     	;# 
   200     021E                     	;# 
   201     021F                     	;# 
   202     028C                     	;# 
   203     028C                     	;# 
   204     028D                     	;# 
   205     028D                     	;# 
   206     028E                     	;# 
   207     028F                     	;# 
   208     0290                     	;# 
   209     0290                     	;# 
   210     0291                     	;# 
   211     0292                     	;# 
   212     0292                     	;# 
   213     0293                     	;# 
   214     0293                     	;# 
   215     0294                     	;# 
   216     0295                     	;# 
   217     0296                     	;# 
   218     0296                     	;# 
   219     0297                     	;# 
   220     0298                     	;# 
   221     0298                     	;# 
   222     0299                     	;# 
   223     0299                     	;# 
   224     029A                     	;# 
   225     029B                     	;# 
   226     029C                     	;# 
   227     029C                     	;# 
   228     029D                     	;# 
   229     030C                     	;# 
   230     030C                     	;# 
   231     030D                     	;# 
   232     030E                     	;# 
   233     030F                     	;# 
   234     0310                     	;# 
   235     0310                     	;# 
   236     0311                     	;# 
   237     0312                     	;# 
   238     0313                     	;# 
   239     0314                     	;# 
   240     0314                     	;# 
   241     0315                     	;# 
   242     0316                     	;# 
   243     0317                     	;# 
   244     0318                     	;# 
   245     0318                     	;# 
   246     0319                     	;# 
   247     031A                     	;# 
   248     031B                     	;# 
   249     031C                     	;# 
   250     031C                     	;# 
   251     031D                     	;# 
   252     031E                     	;# 
   253     031F                     	;# 
   254     038C                     	;# 
   255     038C                     	;# 
   256     038D                     	;# 
   257     038E                     	;# 
   258     0390                     	;# 
   259     0390                     	;# 
   260     0391                     	;# 
   261     0392                     	;# 
   262     040C                     	;# 
   263     040D                     	;# 
   264     040E                     	;# 
   265     040F                     	;# 
   266     0410                     	;# 
   267     0411                     	;# 
   268     0416                     	;# 
   269     0416                     	;# 
   270     0417                     	;# 
   271     0418                     	;# 
   272     0418                     	;# 
   273     0419                     	;# 
   274     041A                     	;# 
   275     041A                     	;# 
   276     041B                     	;# 
   277     041C                     	;# 
   278     041C                     	;# 
   279     041D                     	;# 
   280     041E                     	;# 
   281     041F                     	;# 
   282     048C                     	;# 
   283     048C                     	;# 
   284     048D                     	;# 
   285     048E                     	;# 
   286     048F                     	;# 
   287     048F                     	;# 
   288     0490                     	;# 
   289     0491                     	;# 
   290     0492                     	;# 
   291     0492                     	;# 
   292     0493                     	;# 
   293     0494                     	;# 
   294     0495                     	;# 
   295     0495                     	;# 
   296     0496                     	;# 
   297     0497                     	;# 
   298     0498                     	;# 
   299     0499                     	;# 
   300     049A                     	;# 
   301     049B                     	;# 
   302     049C                     	;# 
   303     049D                     	;# 
   304     050C                     	;# 
   305     050C                     	;# 
   306     050D                     	;# 
   307     050E                     	;# 
   308     050F                     	;# 
   309     050F                     	;# 
   310     0510                     	;# 
   311     0511                     	;# 
   312     0512                     	;# 
   313     0512                     	;# 
   314     0513                     	;# 
   315     0514                     	;# 
   316     0515                     	;# 
   317     0515                     	;# 
   318     0516                     	;# 
   319     0517                     	;# 
   320     0518                     	;# 
   321     0519                     	;# 
   322     051A                     	;# 
   323     051B                     	;# 
   324     051C                     	;# 
   325     051D                     	;# 
   326     058C                     	;# 
   327     058C                     	;# 
   328     058D                     	;# 
   329     058E                     	;# 
   330     058F                     	;# 
   331     058F                     	;# 
   332     0590                     	;# 
   333     0591                     	;# 
   334     0592                     	;# 
   335     0593                     	;# 
   336     060C                     	;# 
   337     060D                     	;# 
   338     060E                     	;# 
   339     060F                     	;# 
   340     0610                     	;# 
   341     0611                     	;# 
   342     0612                     	;# 
   343     0613                     	;# 
   344     0614                     	;# 
   345     0616                     	;# 
   346     0617                     	;# 
   347     0618                     	;# 
   348     0619                     	;# 
   349     061A                     	;# 
   350     061B                     	;# 
   351     061C                     	;# 
   352     061D                     	;# 
   353     061E                     	;# 
   354     068C                     	;# 
   355     068D                     	;# 
   356     068E                     	;# 
   357     068F                     	;# 
   358     0690                     	;# 
   359     0691                     	;# 
   360     0692                     	;# 
   361     0693                     	;# 
   362     0694                     	;# 
   363     070C                     	;# 
   364     070D                     	;# 
   365     070E                     	;# 
   366     070F                     	;# 
   367     0710                     	;# 
   368     0711                     	;# 
   369     0712                     	;# 
   370     0713                     	;# 
   371     0714                     	;# 
   372     0716                     	;# 
   373     0717                     	;# 
   374     0718                     	;# 
   375     0719                     	;# 
   376     071A                     	;# 
   377     071B                     	;# 
   378     071C                     	;# 
   379     071D                     	;# 
   380     071E                     	;# 
   381     0796                     	;# 
   382     0797                     	;# 
   383     0798                     	;# 
   384     0799                     	;# 
   385     079A                     	;# 
   386     079B                     	;# 
   387     080C                     	;# 
   388     080D                     	;# 
   389     080E                     	;# 
   390     080F                     	;# 
   391     0810                     	;# 
   392     0811                     	;# 
   393     0812                     	;# 
   394     0813                     	;# 
   395     0814                     	;# 
   396     081A                     	;# 
   397     081B                     	;# 
   398     081C                     	;# 
   399     081D                     	;# 
   400     081E                     	;# 
   401     081F                     	;# 
   402     088C                     	;# 
   403     088D                     	;# 
   404     088E                     	;# 
   405     088F                     	;# 
   406     0890                     	;# 
   407     0891                     	;# 
   408     0892                     	;# 
   409     0893                     	;# 
   410     0895                     	;# 
   411     0896                     	;# 
   412     0897                     	;# 
   413     0898                     	;# 
   414     0899                     	;# 
   415     089A                     	;# 
   416     089B                     	;# 
   417     090C                     	;# 
   418     090E                     	;# 
   419     090F                     	;# 
   420     091F                     	;# 
   421     098F                     	;# 
   422     098F                     	;# 
   423     0990                     	;# 
   424     0991                     	;# 
   425     0992                     	;# 
   426     0993                     	;# 
   427     0994                     	;# 
   428     0995                     	;# 
   429     0996                     	;# 
   430     0997                     	;# 
   431     1E0F                     	;# 
   432     1E10                     	;# 
   433     1E11                     	;# 
   434     1E12                     	;# 
   435     1E13                     	;# 
   436     1E14                     	;# 
   437     1E15                     	;# 
   438     1E16                     	;# 
   439     1E17                     	;# 
   440     1E18                     	;# 
   441     1E19                     	;# 
   442     1E1A                     	;# 
   443     1E1B                     	;# 
   444     1E1C                     	;# 
   445     1E1D                     	;# 
   446     1E1E                     	;# 
   447     1E1F                     	;# 
   448     1E20                     	;# 
   449     1E21                     	;# 
   450     1E22                     	;# 
   451     1E23                     	;# 
   452     1E24                     	;# 
   453     1E25                     	;# 
   454     1E26                     	;# 
   455     1E27                     	;# 
   456     1E28                     	;# 
   457     1E29                     	;# 
   458     1E2A                     	;# 
   459     1E2B                     	;# 
   460     1E2C                     	;# 
   461     1E2D                     	;# 
   462     1E2E                     	;# 
   463     1E2F                     	;# 
   464     1E30                     	;# 
   465     1E31                     	;# 
   466     1E32                     	;# 
   467     1E33                     	;# 
   468     1E34                     	;# 
   469     1E35                     	;# 
   470     1E36                     	;# 
   471     1E37                     	;# 
   472     1E8F                     	;# 
   473     1E90                     	;# 
   474     1E91                     	;# 
   475     1E92                     	;# 
   476     1E93                     	;# 
   477     1E94                     	;# 
   478     1E95                     	;# 
   479     1E96                     	;# 
   480     1E97                     	;# 
   481     1E9C                     	;# 
   482     1E9D                     	;# 
   483     1E9E                     	;# 
   484     1EA1                     	;# 
   485     1EA2                     	;# 
   486     1EA3                     	;# 
   487     1EA4                     	;# 
   488     1EA5                     	;# 
   489     1EA9                     	;# 
   490     1EAA                     	;# 
   491     1EAB                     	;# 
   492     1EAC                     	;# 
   493     1EB1                     	;# 
   494     1EB2                     	;# 
   495     1EB3                     	;# 
   496     1EB8                     	;# 
   497     1EB9                     	;# 
   498     1EBA                     	;# 
   499     1EBB                     	;# 
   500     1EBC                     	;# 
   501     1EBD                     	;# 
   502     1EBE                     	;# 
   503     1EC3                     	;# 
   504     1EC5                     	;# 
   505     1EC6                     	;# 
   506     1EC7                     	;# 
   507     1EC8                     	;# 
   508     1EC9                     	;# 
   509     1ECA                     	;# 
   510     1ECB                     	;# 
   511     1ECC                     	;# 
   512     1F10                     	;# 
   513     1F11                     	;# 
   514     1F12                     	;# 
   515     1F13                     	;# 
   516     1F14                     	;# 
   517     1F15                     	;# 
   518     1F16                     	;# 
   519     1F17                     	;# 
   520     1F18                     	;# 
   521     1F19                     	;# 
   522     1F1A                     	;# 
   523     1F1B                     	;# 
   524     1F1C                     	;# 
   525     1F1D                     	;# 
   526     1F1E                     	;# 
   527     1F1F                     	;# 
   528     1F20                     	;# 
   529     1F21                     	;# 
   530     1F22                     	;# 
   531     1F23                     	;# 
   532     1F24                     	;# 
   533     1F25                     	;# 
   534     1F26                     	;# 
   535     1F27                     	;# 
   536     1F28                     	;# 
   537     1F29                     	;# 
   538     1F2A                     	;# 
   539     1F2B                     	;# 
   540     1F2C                     	;# 
   541     1F2D                     	;# 
   542     1F2E                     	;# 
   543     1F2F                     	;# 
   544     1F30                     	;# 
   545     1F31                     	;# 
   546     1F32                     	;# 
   547     1F38                     	;# 
   548     1F39                     	;# 
   549     1F3A                     	;# 
   550     1F3B                     	;# 
   551     1F3C                     	;# 
   552     1F3D                     	;# 
   553     1F3E                     	;# 
   554     1F3F                     	;# 
   555     1F40                     	;# 
   556     1F41                     	;# 
   557     1F43                     	;# 
   558     1F44                     	;# 
   559     1F45                     	;# 
   560     1F46                     	;# 
   561     1F47                     	;# 
   562     1F48                     	;# 
   563     1F49                     	;# 
   564     1F4A                     	;# 
   565     1F4B                     	;# 
   566     1F4C                     	;# 
   567     1F4E                     	;# 
   568     1F4F                     	;# 
   569     1F50                     	;# 
   570     1F51                     	;# 
   571     1F52                     	;# 
   572     1F53                     	;# 
   573     1F54                     	;# 
   574     1F55                     	;# 
   575     1F56                     	;# 
   576     1F57                     	;# 
   577     1F59                     	;# 
   578     1F5A                     	;# 
   579     1F5B                     	;# 
   580     1F5C                     	;# 
   581     1F5D                     	;# 
   582     1F61                     	;# 
   583     1F62                     	;# 
   584     1F64                     	;# 
   585     1F65                     	;# 
   586     1F66                     	;# 
   587     1F67                     	;# 
   588     1F68                     	;# 
   589     1F69                     	;# 
   590     1F6A                     	;# 
   591     1F6B                     	;# 
   592     1F6C                     	;# 
   593     1F6D                     	;# 
   594     1FE4                     	;# 
   595     1FE5                     	;# 
   596     1FE6                     	;# 
   597     1FE7                     	;# 
   598     1FE8                     	;# 
   599     1FE9                     	;# 
   600     1FEA                     	;# 
   601     1FEB                     	;# 
   602     1FED                     	;# 
   603     1FEE                     	;# 
   604     1FEF                     	;# 
   605     0000                     	;# 
   606     0001                     	;# 
   607     0002                     	;# 
   608     0003                     	;# 
   609     0004                     	;# 
   610     0005                     	;# 
   611     0006                     	;# 
   612     0007                     	;# 
   613     0008                     	;# 
   614     0009                     	;# 
   615     000A                     	;# 
   616     000B                     	;# 
   617     000C                     	;# 
   618     000D                     	;# 
   619     000E                     	;# 
   620     000F                     	;# 
   621     0010                     	;# 
   622     0011                     	;# 
   623     0012                     	;# 
   624     0013                     	;# 
   625     0014                     	;# 
   626     0015                     	;# 
   627     0016                     	;# 
   628     0017                     	;# 
   629     0018                     	;# 
   630     0019                     	;# 
   631     001A                     	;# 
   632     001C                     	;# 
   633     001C                     	;# 
   634     001D                     	;# 
   635     001D                     	;# 
   636     001E                     	;# 
   637     001F                     	;# 
   638     008C                     	;# 
   639     008C                     	;# 
   640     008D                     	;# 
   641     008E                     	;# 
   642     008E                     	;# 
   643     008F                     	;# 
   644     0090                     	;# 
   645     0090                     	;# 
   646     0091                     	;# 
   647     0093                     	;# 
   648     0094                     	;# 
   649     0095                     	;# 
   650     0096                     	;# 
   651     0097                     	;# 
   652     0098                     	;# 
   653     0099                     	;# 
   654     009A                     	;# 
   655     009B                     	;# 
   656     009C                     	;# 
   657     009D                     	;# 
   658     009E                     	;# 
   659     010C                     	;# 
   660     010D                     	;# 
   661     010E                     	;# 
   662     010E                     	;# 
   663     010F                     	;# 
   664     0110                     	;# 
   665     0110                     	;# 
   666     0111                     	;# 
   667     0112                     	;# 
   668     0112                     	;# 
   669     0113                     	;# 
   670     0114                     	;# 
   671     0114                     	;# 
   672     0115                     	;# 
   673     0116                     	;# 
   674     0116                     	;# 
   675     0117                     	;# 
   676     0119                     	;# 
   677     0119                     	;# 
   678     0119                     	;# 
   679     011A                     	;# 
   680     011A                     	;# 
   681     011A                     	;# 
   682     011B                     	;# 
   683     011B                     	;# 
   684     011B                     	;# 
   685     011B                     	;# 
   686     011B                     	;# 
   687     011C                     	;# 
   688     011C                     	;# 
   689     011C                     	;# 
   690     011D                     	;# 
   691     011D                     	;# 
   692     011D                     	;# 
   693     011E                     	;# 
   694     011E                     	;# 
   695     011E                     	;# 
   696     011F                     	;# 
   697     011F                     	;# 
   698     011F                     	;# 
   699     011F                     	;# 
   700     011F                     	;# 
   701     018C                     	;# 
   702     018D                     	;# 
   703     018E                     	;# 
   704     018F                     	;# 
   705     0190                     	;# 
   706     0191                     	;# 
   707     0192                     	;# 
   708     0196                     	;# 
   709     0197                     	;# 
   710     0198                     	;# 
   711     0199                     	;# 
   712     019A                     	;# 
   713     019B                     	;# 
   714     019C                     	;# 
   715     020C                     	;# 
   716     020C                     	;# 
   717     020D                     	;# 
   718     020E                     	;# 
   719     020F                     	;# 
   720     020F                     	;# 
   721     0210                     	;# 
   722     0210                     	;# 
   723     0211                     	;# 
   724     0211                     	;# 
   725     0212                     	;# 
   726     0212                     	;# 
   727     0213                     	;# 
   728     0214                     	;# 
   729     0215                     	;# 
   730     0215                     	;# 
   731     0216                     	;# 
   732     0216                     	;# 
   733     0217                     	;# 
   734     0217                     	;# 
   735     0218                     	;# 
   736     0218                     	;# 
   737     0219                     	;# 
   738     021A                     	;# 
   739     021B                     	;# 
   740     021B                     	;# 
   741     021C                     	;# 
   742     021C                     	;# 
   743     021D                     	;# 
   744     021D                     	;# 
   745     021E                     	;# 
   746     021F                     	;# 
   747     028C                     	;# 
   748     028C                     	;# 
   749     028D                     	;# 
   750     028D                     	;# 
   751     028E                     	;# 
   752     028F                     	;# 
   753     0290                     	;# 
   754     0290                     	;# 
   755     0291                     	;# 
   756     0292                     	;# 
   757     0292                     	;# 
   758     0293                     	;# 
   759     0293                     	;# 
   760     0294                     	;# 
   761     0295                     	;# 
   762     0296                     	;# 
   763     0296                     	;# 
   764     0297                     	;# 
   765     0298                     	;# 
   766     0298                     	;# 
   767     0299                     	;# 
   768     0299                     	;# 
   769     029A                     	;# 
   770     029B                     	;# 
   771     029C                     	;# 
   772     029C                     	;# 
   773     029D                     	;# 
   774     030C                     	;# 
   775     030C                     	;# 
   776     030D                     	;# 
   777     030E                     	;# 
   778     030F                     	;# 
   779     0310                     	;# 
   780     0310                     	;# 
   781     0311                     	;# 
   782     0312                     	;# 
   783     0313                     	;# 
   784     0314                     	;# 
   785     0314                     	;# 
   786     0315                     	;# 
   787     0316                     	;# 
   788     0317                     	;# 
   789     0318                     	;# 
   790     0318                     	;# 
   791     0319                     	;# 
   792     031A                     	;# 
   793     031B                     	;# 
   794     031C                     	;# 
   795     031C                     	;# 
   796     031D                     	;# 
   797     031E                     	;# 
   798     031F                     	;# 
   799     038C                     	;# 
   800     038C                     	;# 
   801     038D                     	;# 
   802     038E                     	;# 
   803     0390                     	;# 
   804     0390                     	;# 
   805     0391                     	;# 
   806     0392                     	;# 
   807     040C                     	;# 
   808     040D                     	;# 
   809     040E                     	;# 
   810     040F                     	;# 
   811     0410                     	;# 
   812     0411                     	;# 
   813     0416                     	;# 
   814     0416                     	;# 
   815     0417                     	;# 
   816     0418                     	;# 
   817     0418                     	;# 
   818     0419                     	;# 
   819     041A                     	;# 
   820     041A                     	;# 
   821     041B                     	;# 
   822     041C                     	;# 
   823     041C                     	;# 
   824     041D                     	;# 
   825     041E                     	;# 
   826     041F                     	;# 
   827     048C                     	;# 
   828     048C                     	;# 
   829     048D                     	;# 
   830     048E                     	;# 
   831     048F                     	;# 
   832     048F                     	;# 
   833     0490                     	;# 
   834     0491                     	;# 
   835     0492                     	;# 
   836     0492                     	;# 
   837     0493                     	;# 
   838     0494                     	;# 
   839     0495                     	;# 
   840     0495                     	;# 
   841     0496                     	;# 
   842     0497                     	;# 
   843     0498                     	;# 
   844     0499                     	;# 
   845     049A                     	;# 
   846     049B                     	;# 
   847     049C                     	;# 
   848     049D                     	;# 
   849     050C                     	;# 
   850     050C                     	;# 
   851     050D                     	;# 
   852     050E                     	;# 
   853     050F                     	;# 
   854     050F                     	;# 
   855     0510                     	;# 
   856     0511                     	;# 
   857     0512                     	;# 
   858     0512                     	;# 
   859     0513                     	;# 
   860     0514                     	;# 
   861     0515                     	;# 
   862     0515                     	;# 
   863     0516                     	;# 
   864     0517                     	;# 
   865     0518                     	;# 
   866     0519                     	;# 
   867     051A                     	;# 
   868     051B                     	;# 
   869     051C                     	;# 
   870     051D                     	;# 
   871     058C                     	;# 
   872     058C                     	;# 
   873     058D                     	;# 
   874     058E                     	;# 
   875     058F                     	;# 
   876     058F                     	;# 
   877     0590                     	;# 
   878     0591                     	;# 
   879     0592                     	;# 
   880     0593                     	;# 
   881     060C                     	;# 
   882     060D                     	;# 
   883     060E                     	;# 
   884     060F                     	;# 
   885     0610                     	;# 
   886     0611                     	;# 
   887     0612                     	;# 
   888     0613                     	;# 
   889     0614                     	;# 
   890     0616                     	;# 
   891     0617                     	;# 
   892     0618                     	;# 
   893     0619                     	;# 
   894     061A                     	;# 
   895     061B                     	;# 
   896     061C                     	;# 
   897     061D                     	;# 
   898     061E                     	;# 
   899     068C                     	;# 
   900     068D                     	;# 
   901     068E                     	;# 
   902     068F                     	;# 
   903     0690                     	;# 
   904     0691                     	;# 
   905     0692                     	;# 
   906     0693                     	;# 
   907     0694                     	;# 
   908     070C                     	;# 
   909     070D                     	;# 
   910     070E                     	;# 
   911     070F                     	;# 
   912     0710                     	;# 
   913     0711                     	;# 
   914     0712                     	;# 
   915     0713                     	;# 
   916     0714                     	;# 
   917     0716                     	;# 
   918     0717                     	;# 
   919     0718                     	;# 
   920     0719                     	;# 
   921     071A                     	;# 
   922     071B                     	;# 
   923     071C                     	;# 
   924     071D                     	;# 
   925     071E                     	;# 
   926     0796                     	;# 
   927     0797                     	;# 
   928     0798                     	;# 
   929     0799                     	;# 
   930     079A                     	;# 
   931     079B                     	;# 
   932     080C                     	;# 
   933     080D                     	;# 
   934     080E                     	;# 
   935     080F                     	;# 
   936     0810                     	;# 
   937     0811                     	;# 
   938     0812                     	;# 
   939     0813                     	;# 
   940     0814                     	;# 
   941     081A                     	;# 
   942     081B                     	;# 
   943     081C                     	;# 
   944     081D                     	;# 
   945     081E                     	;# 
   946     081F                     	;# 
   947     088C                     	;# 
   948     088D                     	;# 
   949     088E                     	;# 
   950     088F                     	;# 
   951     0890                     	;# 
   952     0891                     	;# 
   953     0892                     	;# 
   954     0893                     	;# 
   955     0895                     	;# 
   956     0896                     	;# 
   957     0897                     	;# 
   958     0898                     	;# 
   959     0899                     	;# 
   960     089A                     	;# 
   961     089B                     	;# 
   962     090C                     	;# 
   963     090E                     	;# 
   964     090F                     	;# 
   965     091F                     	;# 
   966     098F                     	;# 
   967     098F                     	;# 
   968     0990                     	;# 
   969     0991                     	;# 
   970     0992                     	;# 
   971     0993                     	;# 
   972     0994                     	;# 
   973     0995                     	;# 
   974     0996                     	;# 
   975     0997                     	;# 
   976     1E0F                     	;# 
   977     1E10                     	;# 
   978     1E11                     	;# 
   979     1E12                     	;# 
   980     1E13                     	;# 
   981     1E14                     	;# 
   982     1E15                     	;# 
   983     1E16                     	;# 
   984     1E17                     	;# 
   985     1E18                     	;# 
   986     1E19                     	;# 
   987     1E1A                     	;# 
   988     1E1B                     	;# 
   989     1E1C                     	;# 
   990     1E1D                     	;# 
   991     1E1E                     	;# 
   992     1E1F                     	;# 
   993     1E20                     	;# 
   994     1E21                     	;# 
   995     1E22                     	;# 
   996     1E23                     	;# 
   997     1E24                     	;# 
   998     1E25                     	;# 
   999     1E26                     	;# 
  1000     1E27                     	;# 
  1001     1E28                     	;# 
  1002     1E29                     	;# 
  1003     1E2A                     	;# 
  1004     1E2B                     	;# 
  1005     1E2C                     	;# 
  1006     1E2D                     	;# 
  1007     1E2E                     	;# 
  1008     1E2F                     	;# 
  1009     1E30                     	;# 
  1010     1E31                     	;# 
  1011     1E32                     	;# 
  1012     1E33                     	;# 
  1013     1E34                     	;# 
  1014     1E35                     	;# 
  1015     1E36                     	;# 
  1016     1E37                     	;# 
  1017     1E8F                     	;# 
  1018     1E90                     	;# 
  1019     1E91                     	;# 
  1020     1E92                     	;# 
  1021     1E93                     	;# 
  1022     1E94                     	;# 
  1023     1E95                     	;# 
  1024     1E96                     	;# 
  1025     1E97                     	;# 
  1026     1E9C                     	;# 
  1027     1E9D                     	;# 
  1028     1E9E                     	;# 
  1029     1EA1                     	;# 
  1030     1EA2                     	;# 
  1031     1EA3                     	;# 
  1032     1EA4                     	;# 
  1033     1EA5                     	;# 
  1034     1EA9                     	;# 
  1035     1EAA                     	;# 
  1036     1EAB                     	;# 
  1037     1EAC                     	;# 
  1038     1EB1                     	;# 
  1039     1EB2                     	;# 
  1040     1EB3                     	;# 
  1041     1EB8                     	;# 
  1042     1EB9                     	;# 
  1043     1EBA                     	;# 
  1044     1EBB                     	;# 
  1045     1EBC                     	;# 
  1046     1EBD                     	;# 
  1047     1EBE                     	;# 
  1048     1EC3                     	;# 
  1049     1EC5                     	;# 
  1050     1EC6                     	;# 
  1051     1EC7                     	;# 
  1052     1EC8                     	;# 
  1053     1EC9                     	;# 
  1054     1ECA                     	;# 
  1055     1ECB                     	;# 
  1056     1ECC                     	;# 
  1057     1F10                     	;# 
  1058     1F11                     	;# 
  1059     1F12                     	;# 
  1060     1F13                     	;# 
  1061     1F14                     	;# 
  1062     1F15                     	;# 
  1063     1F16                     	;# 
  1064     1F17                     	;# 
  1065     1F18                     	;# 
  1066     1F19                     	;# 
  1067     1F1A                     	;# 
  1068     1F1B                     	;# 
  1069     1F1C                     	;# 
  1070     1F1D                     	;# 
  1071     1F1E                     	;# 
  1072     1F1F                     	;# 
  1073     1F20                     	;# 
  1074     1F21                     	;# 
  1075     1F22                     	;# 
  1076     1F23                     	;# 
  1077     1F24                     	;# 
  1078     1F25                     	;# 
  1079     1F26                     	;# 
  1080     1F27                     	;# 
  1081     1F28                     	;# 
  1082     1F29                     	;# 
  1083     1F2A                     	;# 
  1084     1F2B                     	;# 
  1085     1F2C                     	;# 
  1086     1F2D                     	;# 
  1087     1F2E                     	;# 
  1088     1F2F                     	;# 
  1089     1F30                     	;# 
  1090     1F31                     	;# 
  1091     1F32                     	;# 
  1092     1F38                     	;# 
  1093     1F39                     	;# 
  1094     1F3A                     	;# 
  1095     1F3B                     	;# 
  1096     1F3C                     	;# 
  1097     1F3D                     	;# 
  1098     1F3E                     	;# 
  1099     1F3F                     	;# 
  1100     1F40                     	;# 
  1101     1F41                     	;# 
  1102     1F43                     	;# 
  1103     1F44                     	;# 
  1104     1F45                     	;# 
  1105     1F46                     	;# 
  1106     1F47                     	;# 
  1107     1F48                     	;# 
  1108     1F49                     	;# 
  1109     1F4A                     	;# 
  1110     1F4B                     	;# 
  1111     1F4C                     	;# 
  1112     1F4E                     	;# 
  1113     1F4F                     	;# 
  1114     1F50                     	;# 
  1115     1F51                     	;# 
  1116     1F52                     	;# 
  1117     1F53                     	;# 
  1118     1F54                     	;# 
  1119     1F55                     	;# 
  1120     1F56                     	;# 
  1121     1F57                     	;# 
  1122     1F59                     	;# 
  1123     1F5A                     	;# 
  1124     1F5B                     	;# 
  1125     1F5C                     	;# 
  1126     1F5D                     	;# 
  1127     1F61                     	;# 
  1128     1F62                     	;# 
  1129     1F64                     	;# 
  1130     1F65                     	;# 
  1131     1F66                     	;# 
  1132     1F67                     	;# 
  1133     1F68                     	;# 
  1134     1F69                     	;# 
  1135     1F6A                     	;# 
  1136     1F6B                     	;# 
  1137     1F6C                     	;# 
  1138     1F6D                     	;# 
  1139     1FE4                     	;# 
  1140     1FE5                     	;# 
  1141     1FE6                     	;# 
  1142     1FE7                     	;# 
  1143     1FE8                     	;# 
  1144     1FE9                     	;# 
  1145     1FEA                     	;# 
  1146     1FEB                     	;# 
  1147     1FED                     	;# 
  1148     1FEE                     	;# 
  1149     1FEF                     	;# 
  1150                           
  1151                           	psect	idataBANK0
  1152     059C                     __pidataBANK0:
  1153                           
  1154                           ;initializer for _analog_choice
  1155     059C  3403               	retlw	3
  1156     059D  3400               	retlw	0
  1157                           
  1158                           	psect	stringtext1
  1159     0800                     __pstringtext1:
  1160     0800                     keypad_get_key@keypad:
  1161     0800  3431               	retlw	49
  1162     0801  3432               	retlw	50
  1163     0802  3433               	retlw	51
  1164     0803  3441               	retlw	65
  1165     0804  3434               	retlw	52
  1166     0805  3435               	retlw	53
  1167     0806  3436               	retlw	54
  1168     0807  3442               	retlw	66
  1169     0808  3437               	retlw	55
  1170     0809  3438               	retlw	56
  1171     080A  3439               	retlw	57
  1172     080B  3443               	retlw	67
  1173     080C  342A               	retlw	42
  1174     080D  3430               	retlw	48
  1175     080E  3423               	retlw	35
  1176     080F  3444               	retlw	68
  1177     0810                     __end_ofkeypad_get_key@keypad:
  1178     000D                     _PORTBbits	set	13
  1179     0010                     _PORTEbits	set	16
  1180     000E                     _PORTC	set	14
  1181     000E                     _PORTCbits	set	14
  1182     0013                     _TRISCbits	set	19
  1183     0015                     _TRISEbits	set	21
  1184     000F                     _PORTD	set	15
  1185     000C                     _PORTAbits	set	12
  1186     0014                     _TRISD	set	20
  1187     0011                     _TRISA	set	17
  1188     007F                     _RD7	set	127
  1189     007E                     _RD6	set	126
  1190     007D                     _RD5	set	125
  1191     007C                     _RD4	set	124
  1192     007B                     _RD3	set	123
  1193     007A                     _RD2	set	122
  1194     0079                     _RD1	set	121
  1195     0078                     _RD0	set	120
  1196     008C                     _ADRESL	set	140
  1197     008D                     _ADRESH	set	141
  1198     0093                     _ADCON0bits	set	147
  1199     009E                     _ADPCH	set	158
  1200     0093                     _ADCON0	set	147
  1201     009D                     _ADACQ	set	157
  1202     0098                     _ADCLK	set	152
  1203     009A                     _ADREF	set	154
  1204     1F5A                     _WPUD	set	8026
  1205     1F59                     _ANSELD	set	8025
  1206     1F38                     _ANSELA	set	7992
  1207     0810                     STR_2:
  1208     0810  3420               	retlw	32	;' '
  1209     0811  3454               	retlw	84	;'T'
  1210     0812  3465               	retlw	101	;'e'
  1211     0813  346D               	retlw	109	;'m'
  1212     0814  3470               	retlw	112	;'p'
  1213     0815  3465               	retlw	101	;'e'
  1214     0816  3472               	retlw	114	;'r'
  1215     0817  3461               	retlw	97	;'a'
  1216     0818  3474               	retlw	116	;'t'
  1217     0819  3475               	retlw	117	;'u'
  1218     081A  3472               	retlw	114	;'r'
  1219     081B  3465               	retlw	101	;'e'
  1220     081C  3400               	retlw	0
  1221                           
  1222                           	psect	stringtext2
  1223     081D                     __pstringtext2:
  1224     081D                     STR_1:
  1225     081D  3420               	retlw	32	;' '
  1226     081E  344F               	retlw	79	;'O'
  1227     081F  3478               	retlw	120	;'x'
  1228     0820  3479               	retlw	121	;'y'
  1229     0821  3467               	retlw	103	;'g'
  1230     0822  3465               	retlw	101	;'e'
  1231     0823  346E               	retlw	110	;'n'
  1232     0824  3400               	retlw	0
  1233                           
  1234                           	psect	stringtext3
  1235     0825                     __pstringtext3:
  1236     0825                     STR_3:
  1237     0825  3425               	retlw	37	;'%'
  1238     0826  3433               	retlw	51	;'3'
  1239     0827  3475               	retlw	117	;'u'
  1240     0828  3425               	retlw	37	;'%'
  1241     0829  3425               	retlw	37	;'%'
  1242     082A  3400               	retlw	0
  1243                           
  1244                           	psect	stringtext4
  1245     082B                     __pstringtext4:
  1246     082B                     STR_4:
  1247     082B  3425               	retlw	37	;'%'
  1248     082C  342E               	retlw	46	;'.'
  1249     082D  3432               	retlw	50	;'2'
  1250     082E  3466               	retlw	102	;'f'
  1251     082F  3443               	retlw	67	;'C'
  1252     0830  3400               	retlw	0
  1253                           
  1254                           	psect	stringtext5
  1255     0000                     __pstringtext5:
  1256     0825                     
  1257                           	psect	cinit
  1258     07EF                     start_initialization:	
  1259                           ; #config settings
  1260                           
  1261     07EF                     __initialization:
  1262                           
  1263                           ; Initialize objects allocated to BANK0
  1264     07EF  3185  259C  3187   	fcall	__pidataBANK0	;fetch initializer
  1265     07F2  00A2               	movwf	__pdataBANK0& (0+127)
  1266     07F3  3185  259D  3187   	fcall	__pidataBANK0+1	;fetch initializer
  1267     07F6  00A3               	movwf	(__pdataBANK0+1)& (0+127)
  1268                           
  1269                           ; Clear objects allocated to COMMON
  1270     07F7  01F9               	clrf	__pbssCOMMON& (0+127)
  1271     07F8  01FA               	clrf	(__pbssCOMMON+1)& (0+127)
  1272     07F9  01FB               	clrf	(__pbssCOMMON+2)& (0+127)
  1273     07FA  01FC               	clrf	(__pbssCOMMON+3)& (0+127)
  1274                           
  1275                           ; Clear objects allocated to BANK0
  1276     07FB  01A0               	clrf	__pbssBANK0& (0+127)
  1277     07FC  01A1               	clrf	(__pbssBANK0+1)& (0+127)
  1278     07FD                     end_of_initialization:	
  1279                           ;End of C runtime variable initialization code
  1280                           
  1281     07FD                     __end_of__initialization:
  1282     07FD  0140               	movlb	0
  1283     07FE  3186  2E4F         	ljmp	_main	;jump to C main() function
  1284                           
  1285                           	psect	bssCOMMON
  1286     0079                     __pbssCOMMON:
  1287     0079                     _timerCount:
  1288     0079                     	ds	2
  1289     007B                     _oxygenLevel:
  1290     007B                     	ds	2
  1291                           
  1292                           	psect	bssBANK0
  1293     0020                     __pbssBANK0:
  1294     0020                     _temperature:
  1295     0020                     	ds	2
  1296                           
  1297                           	psect	dataBANK0
  1298     0022                     __pdataBANK0:
  1299     0022                     _analog_choice:
  1300     0022                     	ds	2
  1301                           
  1302                           	psect	cstackCOMMON
  1303     0070                     __pcstackCOMMON:
  1304     0070                     ?_LCD_Init:
  1305     0070                     ?_ADC_Init:	
  1306                           ; 1 bytes @ 0x0
  1307                           
  1308     0070                     ??_ADC_Init:	
  1309                           ; 1 bytes @ 0x0
  1310                           
  1311     0070                     ?_LCD_Clear:	
  1312                           ; 1 bytes @ 0x0
  1313                           
  1314     0070                     ?_keypad_scanner:	
  1315                           ; 1 bytes @ 0x0
  1316                           
  1317     0070                     ??_keypad_scanner:	
  1318                           ; 1 bytes @ 0x0
  1319                           
  1320     0070                     ?_LCD_Cmd:	
  1321                           ; 1 bytes @ 0x0
  1322                           
  1323     0070                     ??_LCD_Cmd:	
  1324                           ; 1 bytes @ 0x0
  1325                           
  1326     0070                     ?_LCD_Char:	
  1327                           ; 1 bytes @ 0x0
  1328                           
  1329     0070                     ??_LCD_Char:	
  1330                           ; 1 bytes @ 0x0
  1331                           
  1332     0070                     ?_main:	
  1333                           ; 1 bytes @ 0x0
  1334                           
  1335                           
  1336                           ; 1 bytes @ 0x0
  1337     0070                     	ds	2
  1338     0072                     LCD_Cmd@command:
  1339     0072                     LCD_Char@data:	
  1340                           ; 1 bytes @ 0x2
  1341                           
  1342                           
  1343                           ; 1 bytes @ 0x2
  1344     0072                     	ds	1
  1345     0073                     ??_LCD_Init:
  1346     0073                     ??_LCD_Clear:	
  1347                           ; 1 bytes @ 0x3
  1348                           
  1349     0073                     ?_LCD_String:	
  1350                           ; 1 bytes @ 0x3
  1351                           
  1352     0073                     LCD_String@text:	
  1353                           ; 1 bytes @ 0x3
  1354                           
  1355                           
  1356                           ; 2 bytes @ 0x3
  1357     0073                     	ds	2
  1358     0075                     ??_LCD_String:
  1359                           
  1360                           ; 1 bytes @ 0x5
  1361     0075                     	ds	1
  1362     0076                     ??_main:
  1363                           
  1364                           ; 1 bytes @ 0x6
  1365     0076                     	ds	2
  1366     0078                     main@key:
  1367                           
  1368                           ; 1 bytes @ 0x8
  1369     0078                     	ds	1
  1370                           
  1371                           	psect	maintext
  1372     064F                     __pmaintext:	
  1373 ;;
  1374 ;;Main: autosize = 0, tempsize = 2, incstack = 0, save=0
  1375 ;;
  1376 ;; *************** function _main *****************
  1377 ;; Defined at:
  1378 ;;		line 105 in file "keytest.c"
  1379 ;; Parameters:    Size  Location     Type
  1380 ;;		None
  1381 ;; Auto vars:     Size  Location     Type
  1382 ;;  key             1    8[COMMON] unsigned char 
  1383 ;; Return value:  Size  Location     Type
  1384 ;;                  1    wreg      void 
  1385 ;; Registers used:
  1386 ;;		wreg, fsr0l, fsr0h, status,2, status,0, pclath, cstack
  1387 ;; Tracked objects:
  1388 ;;		On entry : B3F/0
  1389 ;;		On exit  : 0/0
  1390 ;;		Unchanged: 0/0
  1391 ;; Data sizes:     COMMON   BANK0   BANK1   BANK2   BANK3   BANK4   BANK5   BANK6   BANK7   BANK8   BANK9  BANK10  BANK1
      +1  BANK12  BANK13  BANK14  BANK15  BANK16  BANK17  BANK18  BANK19  BANK20  BANK21  BANK22  BANK23  BANK24  BANK25  BANK2
      +6  BANK27  BANK28  BANK29  BANK30  BANK31  BANK32  BANK33  BANK34  BANK35  BANK36  BANK37  BANK38  BANK39  BANK40  BANK4
      +1  BANK42  BANK43  BANK44  BANK45  BANK46  BANK47  BANK48  BANK49  BANK50
  1392 ;;      Params:         0       0       0       0       0       0       0       0       0       0       0       0       
      +0       0       0       0       0       0       0       0       0       0       0       0       0       0       0       
      +0       0       0       0       0       0       0       0       0       0       0       0       0       0       0       
      +0       0       0       0       0       0       0       0       0       0
  1393 ;;      Locals:         1       0       0       0       0       0       0       0       0       0       0       0       
      +0       0       0       0       0       0       0       0       0       0       0       0       0       0       0       
      +0       0       0       0       0       0       0       0       0       0       0       0       0       0       0       
      +0       0       0       0       0       0       0       0       0       0
  1394 ;;      Temps:          2       0       0       0       0       0       0       0       0       0       0       0       
      +0       0       0       0       0       0       0       0       0       0       0       0       0       0       0       
      +0       0       0       0       0       0       0       0       0       0       0       0       0       0       0       
      +0       0       0       0       0       0       0       0       0       0
  1395 ;;      Totals:         3       0       0       0       0       0       0       0       0       0       0       0       
      +0       0       0       0       0       0       0       0       0       0       0       0       0       0       0       
      +0       0       0       0       0       0       0       0       0       0       0       0       0       0       0       
      +0       0       0       0       0       0       0       0       0       0
  1396 ;;Total ram usage:        3 bytes
  1397 ;; Hardware stack levels required when called: 2
  1398 ;; This function calls:
  1399 ;;		_ADC_Init
  1400 ;;		_LCD_Char
  1401 ;;		_LCD_Clear
  1402 ;;		_LCD_Cmd
  1403 ;;		_LCD_Init
  1404 ;;		_LCD_String
  1405 ;;		_keypad_scanner
  1406 ;; This function is called by:
  1407 ;;		Startup code after reset
  1408 ;; This function uses a non-reentrant model
  1409 ;;
  1410                           
  1411     064F                     _main:	
  1412                           ;psect for function _main
  1413                           
  1414     064F                     l1313:	
  1415                           ;incstack = 0
  1416                           ; Regs used in _main: [wreg-fsr0h+status,2+status,0+pclath+cstack]
  1417                           
  1418                           
  1419                           ;keytest.c: 106:     ANSELA = 0b00001000;
  1420     064F  3008               	movlw	8
  1421     0650  017E               	movlb	62	; select bank62
  1422     0651  00B8               	movwf	56	;volatile
  1423                           
  1424                           ;keytest.c: 107:     TRISA = 0b11111111;
  1425     0652  30FF               	movlw	255
  1426     0653  0140               	movlb	0	; select bank0
  1427     0654  0091               	movwf	17	;volatile
  1428     0655                     l1315:
  1429                           
  1430                           ;keytest.c: 109:     LCD_Init();
  1431     0655  3185  25D3  3186   	fcall	_LCD_Init
  1432     0658                     l1317:
  1433                           
  1434                           ;keytest.c: 112:     ADC_Init();
  1435     0658  3185  25AA  3186   	fcall	_ADC_Init
  1436     065B                     l1319:
  1437                           
  1438                           ;keytest.c: 115:     char key;;keytest.c: 120:     ANSELD = 0b00000000;
  1439     065B  017E               	movlb	62	; select bank62
  1440     065C  01D9               	clrf	89	;volatile
  1441     065D                     l1321:
  1442                           
  1443                           ;keytest.c: 121:     TRISD = 0b11110000;
  1444     065D  30F0               	movlw	240
  1445     065E  0140               	movlb	0	; select bank0
  1446     065F  0094               	movwf	20	;volatile
  1447     0660                     l1323:
  1448                           
  1449                           ;keytest.c: 122:     WPUD = 0xF0;
  1450     0660  30F0               	movlw	240
  1451     0661  017E               	movlb	62	; select bank62
  1452     0662  00DA               	movwf	90	;volatile
  1453     0663                     l1325:
  1454                           
  1455                           ;keytest.c: 123:     LCD_Clear();
  1456     0663  3185  259E  3186   	fcall	_LCD_Clear
  1457     0666                     l1327:
  1458                           
  1459                           ;keytest.c: 128:         key = keypad_scanner();
  1460     0666  3186  26C1  3186   	fcall	_keypad_scanner
  1461     0669  00F8               	movwf	main@key
  1462     066A                     l1329:
  1463                           
  1464                           ;keytest.c: 130:         if (key != '\0') {
  1465     066A  0878               	movf	main@key,w
  1466     066B  1903               	btfsc	3,2
  1467     066C  2E6E               	goto	u781
  1468     066D  2E6F               	goto	u780
  1469     066E                     u781:
  1470     066E  2EA5               	goto	l90
  1471     066F                     u780:
  1472     066F                     l1331:
  1473                           
  1474                           ;keytest.c: 132:             LCD_Clear();
  1475     066F  3185  259E  3186   	fcall	_LCD_Clear
  1476                           
  1477                           ;keytest.c: 133:             LCD_Cmd(0x00);
  1478     0672  3000               	movlw	0
  1479     0673  3185  25F7  3186   	fcall	_LCD_Cmd
  1480                           
  1481                           ;keytest.c: 134:             LCD_Char(key);
  1482     0676  0878               	movf	main@key,w
  1483     0677  3186  2623  3186   	fcall	_LCD_Char
  1484                           
  1485                           ;keytest.c: 135:             switch(key){
  1486     067A  2E95               	goto	l1343
  1487     067B                     l1333:
  1488     067B  3003               	movlw	3
  1489     067C  0140               	movlb	0	; select bank0
  1490     067D  00A2               	movwf	_analog_choice	;volatile
  1491     067E  3000               	movlw	0
  1492     067F  00A3               	movwf	_analog_choice+1	;volatile
  1493     0680                     l1335:
  1494     0680  301D               	movlw	low (STR_1| (0+32768))
  1495     0681  00F3               	movwf	LCD_String@text
  1496     0682  3088               	movlw	high (STR_1| (0+32768))
  1497     0683  00F4               	movwf	LCD_String@text+1
  1498     0684  3185  25BC  3186   	fcall	_LCD_String
  1499     0687  2EA5               	goto	l90
  1500     0688                     l1337:
  1501     0688  3006               	movlw	6
  1502     0689  0140               	movlb	0	; select bank0
  1503     068A  00A2               	movwf	_analog_choice	;volatile
  1504     068B  3000               	movlw	0
  1505     068C  00A3               	movwf	_analog_choice+1	;volatile
  1506     068D                     l1339:
  1507     068D  3010               	movlw	low (STR_2| (0+32768))
  1508     068E  00F3               	movwf	LCD_String@text
  1509     068F  3088               	movlw	high (STR_2| (0+32768))
  1510     0690  00F4               	movwf	LCD_String@text+1
  1511     0691  3185  25BC  3186   	fcall	_LCD_String
  1512     0694  2EA5               	goto	l90
  1513     0695                     l1343:
  1514     0695  0878               	movf	main@key,w
  1515     0696  00F6               	movwf	??_main
  1516     0697  01F7               	clrf	??_main+1
  1517                           
  1518                           ; Switch on 2 bytes has been partitioned into a top level switch of size 1, and 1 sub-sw
      +                          itches
  1519                           ; Switch size 1, requested type "simple"
  1520                           ; Number of cases is 1, Range of values is 0 to 0
  1521                           ; switch strategies available:
  1522                           ; Name         Instructions Cycles
  1523                           ; simple_byte            4     3 (average)
  1524                           ; direct_byte            8     6 (fixed)
  1525                           ; jumptable            260     6 (fixed)
  1526                           ;	Chosen strategy is simple_byte
  1527     0698  0877               	movf	??_main+1,w
  1528     0699  3A00               	xorlw	0	; case 0
  1529     069A  1903               	skipnz
  1530     069B  2E9D               	goto	l1397
  1531     069C  2EA5               	goto	l90
  1532     069D                     l1397:
  1533                           
  1534                           ; Switch size 1, requested type "simple"
  1535                           ; Number of cases is 2, Range of values is 49 to 50
  1536                           ; switch strategies available:
  1537                           ; Name         Instructions Cycles
  1538                           ; simple_byte            7     4 (average)
  1539                           ; direct_byte           13     9 (fixed)
  1540                           ; jumptable            263     9 (fixed)
  1541                           ;	Chosen strategy is simple_byte
  1542     069D  0876               	movf	??_main,w
  1543     069E  3A31               	xorlw	49	; case 49
  1544     069F  1903               	skipnz
  1545     06A0  2E7B               	goto	l1333
  1546     06A1  3A03               	xorlw	3	; case 50
  1547     06A2  1903               	skipnz
  1548     06A3  2E88               	goto	l1337
  1549     06A4  2EA5               	goto	l90
  1550     06A5                     l90:	
  1551                           ;keytest.c: 139:         }
  1552                           
  1553                           
  1554                           ;keytest.c: 140:         if(PORTAbits.RA0 == 0)
  1555     06A5  0140               	movlb	0	; select bank0
  1556     06A6  180C               	btfsc	12,0	;volatile
  1557     06A7  2EA9               	goto	u791
  1558     06A8  2EAA               	goto	u790
  1559     06A9                     u791:
  1560     06A9  2EAF               	goto	l95
  1561     06AA                     u790:
  1562     06AA                     l1345:
  1563                           
  1564                           ;keytest.c: 141:         {;keytest.c: 142:             analog_choice = 3;
  1565     06AA  3003               	movlw	3
  1566     06AB  00A2               	movwf	_analog_choice	;volatile
  1567     06AC  3000               	movlw	0
  1568     06AD  00A3               	movwf	_analog_choice+1	;volatile
  1569                           
  1570                           ;keytest.c: 144:         }
  1571     06AE  2EB7               	goto	l96
  1572     06AF                     l95:	
  1573                           ;keytest.c: 145:         else if(PORTAbits.RA1 == 0)
  1574                           
  1575     06AF  188C               	btfsc	12,1	;volatile
  1576     06B0  2EB2               	goto	u801
  1577     06B1  2EB3               	goto	u800
  1578     06B2                     u801:
  1579     06B2  2EB7               	goto	l96
  1580     06B3                     u800:
  1581     06B3                     l1347:
  1582                           
  1583                           ;keytest.c: 146:         {;keytest.c: 147:             analog_choice = 6;
  1584     06B3  3006               	movlw	6
  1585     06B4  00A2               	movwf	_analog_choice	;volatile
  1586     06B5  3000               	movlw	0
  1587     06B6  00A3               	movwf	_analog_choice+1	;volatile
  1588     06B7                     l96:
  1589                           
  1590                           ;keytest.c: 150:         _delay((unsigned long)((100)*(4000000/4000.0)));
  1591     06B7  3082               	movlw	130
  1592     06B8  00F6               	movwf	??_main
  1593     06B9  30DE               	movlw	222
  1594     06BA                     u817:
  1595     06BA  0B89               	decfsz	9,f
  1596     06BB  2EBA               	goto	u817
  1597     06BC  0BF6               	decfsz	??_main,f
  1598     06BD  2EBA               	goto	u817
  1599     06BE  2E66               	goto	l1327
  1600     06BF  3180  2802         	ljmp	start
  1601     06C1                     __end_of_main:
  1602                           
  1603                           	psect	text1
  1604     06C1                     __ptext1:	
  1605 ;; *************** function _keypad_scanner *****************
  1606 ;; Defined at:
  1607 ;;		line 157 in file "keytest.c"
  1608 ;; Parameters:    Size  Location     Type
  1609 ;;		None
  1610 ;; Auto vars:     Size  Location     Type
  1611 ;;		None
  1612 ;; Return value:  Size  Location     Type
  1613 ;;                  1    wreg      unsigned char 
  1614 ;; Registers used:
  1615 ;;		wreg
  1616 ;; Tracked objects:
  1617 ;;		On entry : 0/0
  1618 ;;		On exit  : 0/0
  1619 ;;		Unchanged: 0/0
  1620 ;; Data sizes:     COMMON   BANK0   BANK1   BANK2   BANK3   BANK4   BANK5   BANK6   BANK7   BANK8   BANK9  BANK10  BANK1
      +1  BANK12  BANK13  BANK14  BANK15  BANK16  BANK17  BANK18  BANK19  BANK20  BANK21  BANK22  BANK23  BANK24  BANK25  BANK2
      +6  BANK27  BANK28  BANK29  BANK30  BANK31  BANK32  BANK33  BANK34  BANK35  BANK36  BANK37  BANK38  BANK39  BANK40  BANK4
      +1  BANK42  BANK43  BANK44  BANK45  BANK46  BANK47  BANK48  BANK49  BANK50
  1621 ;;      Params:         0       0       0       0       0       0       0       0       0       0       0       0       
      +0       0       0       0       0       0       0       0       0       0       0       0       0       0       0       
      +0       0       0       0       0       0       0       0       0       0       0       0       0       0       0       
      +0       0       0       0       0       0       0       0       0       0
  1622 ;;      Locals:         0       0       0       0       0       0       0       0       0       0       0       0       
      +0       0       0       0       0       0       0       0       0       0       0       0       0       0       0       
      +0       0       0       0       0       0       0       0       0       0       0       0       0       0       0       
      +0       0       0       0       0       0       0       0       0       0
  1623 ;;      Temps:          1       0       0       0       0       0       0       0       0       0       0       0       
      +0       0       0       0       0       0       0       0       0       0       0       0       0       0       0       
      +0       0       0       0       0       0       0       0       0       0       0       0       0       0       0       
      +0       0       0       0       0       0       0       0       0       0
  1624 ;;      Totals:         1       0       0       0       0       0       0       0       0       0       0       0       
      +0       0       0       0       0       0       0       0       0       0       0       0       0       0       0       
      +0       0       0       0       0       0       0       0       0       0       0       0       0       0       0       
      +0       0       0       0       0       0       0       0       0       0
  1625 ;;Total ram usage:        1 bytes
  1626 ;; Hardware stack levels used: 1
  1627 ;; This function calls:
  1628 ;;		Nothing
  1629 ;; This function is called by:
  1630 ;;		_main
  1631 ;; This function uses a non-reentrant model
  1632 ;;
  1633                           
  1634     06C1                     _keypad_scanner:	
  1635                           ;psect for function _keypad_scanner
  1636                           
  1637     06C1                     l1205:	
  1638                           ;incstack = 0
  1639                           ; Regs used in _keypad_scanner: [wreg]
  1640                           
  1641                           
  1642                           ;keytest.c: 158:     RD0=0; RD1=1; RD2=1; RD3=1;
  1643     06C1  0140               	movlb	0	; select bank0
  1644     06C2  100F               	bcf	15,0	;volatile
  1645     06C3  148F               	bsf	15,1	;volatile
  1646     06C4  150F               	bsf	15,2	;volatile
  1647     06C5  158F               	bsf	15,3	;volatile
  1648                           
  1649                           ;keytest.c: 159:     if(RD4==0) { _delay((unsigned long)((10)*(4000000/4000.0))); return
      +                           '1'; }
  1650     06C6  1A0F               	btfsc	15,4	;volatile
  1651     06C7  2EC9               	goto	u461
  1652     06C8  2ECA               	goto	u460
  1653     06C9                     u461:
  1654     06C9  2ED3               	goto	l103
  1655     06CA                     u460:
  1656     06CA                     l1207:
  1657     06CA  300D               	movlw	13
  1658     06CB  00F0               	movwf	??_keypad_scanner
  1659     06CC  30FC               	movlw	252
  1660     06CD                     u827:
  1661     06CD  0B89               	decfsz	9,f
  1662     06CE  2ECD               	goto	u827
  1663     06CF  0BF0               	decfsz	??_keypad_scanner,f
  1664     06D0  2ECD               	goto	u827
  1665     06D1  3031               	movlw	49
  1666     06D2  2FEE               	goto	l104
  1667     06D3                     l103:
  1668                           
  1669                           ;keytest.c: 160:     if(RD5==0) { _delay((unsigned long)((10)*(4000000/4000.0))); while(
      +                          RD5==0); return '2'; }
  1670     06D3  1A8F               	btfsc	15,5	;volatile
  1671     06D4  2ED6               	goto	u471
  1672     06D5  2ED7               	goto	u470
  1673     06D6                     u471:
  1674     06D6  2EE5               	goto	l105
  1675     06D7                     u470:
  1676     06D7                     l1211:
  1677     06D7  300D               	movlw	13
  1678     06D8  00F0               	movwf	??_keypad_scanner
  1679     06D9  30FC               	movlw	252
  1680     06DA                     u837:
  1681     06DA  0B89               	decfsz	9,f
  1682     06DB  2EDA               	goto	u837
  1683     06DC  0BF0               	decfsz	??_keypad_scanner,f
  1684     06DD  2EDA               	goto	u837
  1685     06DE                     l106:
  1686     06DE  0140               	movlb	0	; select bank0
  1687     06DF  1E8F               	btfss	15,5	;volatile
  1688     06E0  2EE2               	goto	u481
  1689     06E1  2EE3               	goto	u480
  1690     06E2                     u481:
  1691     06E2  2EDE               	goto	l106
  1692     06E3                     u480:
  1693     06E3                     l1213:
  1694     06E3  3032               	movlw	50
  1695     06E4  2FEE               	goto	l104
  1696     06E5                     l105:
  1697                           
  1698                           ;keytest.c: 161:     if(RD6==0) { _delay((unsigned long)((10)*(4000000/4000.0))); while(
      +                          RD6==0); return '3'; }
  1699     06E5  1B0F               	btfsc	15,6	;volatile
  1700     06E6  2EE8               	goto	u491
  1701     06E7  2EE9               	goto	u490
  1702     06E8                     u491:
  1703     06E8  2EF7               	goto	l109
  1704     06E9                     u490:
  1705     06E9                     l1217:
  1706     06E9  300D               	movlw	13
  1707     06EA  00F0               	movwf	??_keypad_scanner
  1708     06EB  30FC               	movlw	252
  1709     06EC                     u847:
  1710     06EC  0B89               	decfsz	9,f
  1711     06ED  2EEC               	goto	u847
  1712     06EE  0BF0               	decfsz	??_keypad_scanner,f
  1713     06EF  2EEC               	goto	u847
  1714     06F0                     l110:
  1715     06F0  0140               	movlb	0	; select bank0
  1716     06F1  1F0F               	btfss	15,6	;volatile
  1717     06F2  2EF4               	goto	u501
  1718     06F3  2EF5               	goto	u500
  1719     06F4                     u501:
  1720     06F4  2EF0               	goto	l110
  1721     06F5                     u500:
  1722     06F5                     l1219:
  1723     06F5  3033               	movlw	51
  1724     06F6  2FEE               	goto	l104
  1725     06F7                     l109:
  1726                           
  1727                           ;keytest.c: 162:     if(RD7==0) { _delay((unsigned long)((10)*(4000000/4000.0))); while(
      +                          RD7==0); return 'F'; }
  1728     06F7  1B8F               	btfsc	15,7	;volatile
  1729     06F8  2EFA               	goto	u511
  1730     06F9  2EFB               	goto	u510
  1731     06FA                     u511:
  1732     06FA  2F09               	goto	l113
  1733     06FB                     u510:
  1734     06FB                     l1223:
  1735     06FB  300D               	movlw	13
  1736     06FC  00F0               	movwf	??_keypad_scanner
  1737     06FD  30FC               	movlw	252
  1738     06FE                     u857:
  1739     06FE  0B89               	decfsz	9,f
  1740     06FF  2EFE               	goto	u857
  1741     0700  0BF0               	decfsz	??_keypad_scanner,f
  1742     0701  2EFE               	goto	u857
  1743     0702                     l114:
  1744     0702  0140               	movlb	0	; select bank0
  1745     0703  1F8F               	btfss	15,7	;volatile
  1746     0704  2F06               	goto	u521
  1747     0705  2F07               	goto	u520
  1748     0706                     u521:
  1749     0706  2F02               	goto	l114
  1750     0707                     u520:
  1751     0707                     l1225:
  1752     0707  3046               	movlw	70
  1753     0708  2FEE               	goto	l104
  1754     0709                     l113:
  1755                           
  1756                           ;keytest.c: 164:     RD1=0; RD0=1; RD2=1; RD3=1;
  1757     0709  108F               	bcf	15,1	;volatile
  1758     070A  140F               	bsf	15,0	;volatile
  1759     070B  150F               	bsf	15,2	;volatile
  1760     070C  158F               	bsf	15,3	;volatile
  1761                           
  1762                           ;keytest.c: 165:     if(RD4==0) { _delay((unsigned long)((10)*(4000000/4000.0))); while(
      +                          RD4==0); return '4'; }
  1763     070D  1A0F               	btfsc	15,4	;volatile
  1764     070E  2F10               	goto	u531
  1765     070F  2F11               	goto	u530
  1766     0710                     u531:
  1767     0710  2F1F               	goto	l117
  1768     0711                     u530:
  1769     0711                     l1229:
  1770     0711  300D               	movlw	13
  1771     0712  00F0               	movwf	??_keypad_scanner
  1772     0713  30FC               	movlw	252
  1773     0714                     u867:
  1774     0714  0B89               	decfsz	9,f
  1775     0715  2F14               	goto	u867
  1776     0716  0BF0               	decfsz	??_keypad_scanner,f
  1777     0717  2F14               	goto	u867
  1778     0718                     l118:
  1779     0718  0140               	movlb	0	; select bank0
  1780     0719  1E0F               	btfss	15,4	;volatile
  1781     071A  2F1C               	goto	u541
  1782     071B  2F1D               	goto	u540
  1783     071C                     u541:
  1784     071C  2F18               	goto	l118
  1785     071D                     u540:
  1786     071D                     l1231:
  1787     071D  3034               	movlw	52
  1788     071E  2FEE               	goto	l104
  1789     071F                     l117:
  1790                           
  1791                           ;keytest.c: 166:     if(RD5==0) { _delay((unsigned long)((10)*(4000000/4000.0))); while(
      +                          RD5==0); return '5'; }
  1792     071F  1A8F               	btfsc	15,5	;volatile
  1793     0720  2F22               	goto	u551
  1794     0721  2F23               	goto	u550
  1795     0722                     u551:
  1796     0722  2F31               	goto	l121
  1797     0723                     u550:
  1798     0723                     l1235:
  1799     0723  300D               	movlw	13
  1800     0724  00F0               	movwf	??_keypad_scanner
  1801     0725  30FC               	movlw	252
  1802     0726                     u877:
  1803     0726  0B89               	decfsz	9,f
  1804     0727  2F26               	goto	u877
  1805     0728  0BF0               	decfsz	??_keypad_scanner,f
  1806     0729  2F26               	goto	u877
  1807     072A                     l122:
  1808     072A  0140               	movlb	0	; select bank0
  1809     072B  1E8F               	btfss	15,5	;volatile
  1810     072C  2F2E               	goto	u561
  1811     072D  2F2F               	goto	u560
  1812     072E                     u561:
  1813     072E  2F2A               	goto	l122
  1814     072F                     u560:
  1815     072F                     l1237:
  1816     072F  3035               	movlw	53
  1817     0730  2FEE               	goto	l104
  1818     0731                     l121:
  1819                           
  1820                           ;keytest.c: 167:     if(RD6==0) { _delay((unsigned long)((10)*(4000000/4000.0))); while(
      +                          RD6==0); return '6'; }
  1821     0731  1B0F               	btfsc	15,6	;volatile
  1822     0732  2F34               	goto	u571
  1823     0733  2F35               	goto	u570
  1824     0734                     u571:
  1825     0734  2F43               	goto	l125
  1826     0735                     u570:
  1827     0735                     l1241:
  1828     0735  300D               	movlw	13
  1829     0736  00F0               	movwf	??_keypad_scanner
  1830     0737  30FC               	movlw	252
  1831     0738                     u887:
  1832     0738  0B89               	decfsz	9,f
  1833     0739  2F38               	goto	u887
  1834     073A  0BF0               	decfsz	??_keypad_scanner,f
  1835     073B  2F38               	goto	u887
  1836     073C                     l126:
  1837     073C  0140               	movlb	0	; select bank0
  1838     073D  1F0F               	btfss	15,6	;volatile
  1839     073E  2F40               	goto	u581
  1840     073F  2F41               	goto	u580
  1841     0740                     u581:
  1842     0740  2F3C               	goto	l126
  1843     0741                     u580:
  1844     0741                     l1243:
  1845     0741  3036               	movlw	54
  1846     0742  2FEE               	goto	l104
  1847     0743                     l125:
  1848                           
  1849                           ;keytest.c: 168:     if(RD7==0) { _delay((unsigned long)((10)*(4000000/4000.0))); while(
      +                          RD7==0); return 'E'; }
  1850     0743  1B8F               	btfsc	15,7	;volatile
  1851     0744  2F46               	goto	u591
  1852     0745  2F47               	goto	u590
  1853     0746                     u591:
  1854     0746  2F55               	goto	l129
  1855     0747                     u590:
  1856     0747                     l1247:
  1857     0747  300D               	movlw	13
  1858     0748  00F0               	movwf	??_keypad_scanner
  1859     0749  30FC               	movlw	252
  1860     074A                     u897:
  1861     074A  0B89               	decfsz	9,f
  1862     074B  2F4A               	goto	u897
  1863     074C  0BF0               	decfsz	??_keypad_scanner,f
  1864     074D  2F4A               	goto	u897
  1865     074E                     l130:
  1866     074E  0140               	movlb	0	; select bank0
  1867     074F  1F8F               	btfss	15,7	;volatile
  1868     0750  2F52               	goto	u601
  1869     0751  2F53               	goto	u600
  1870     0752                     u601:
  1871     0752  2F4E               	goto	l130
  1872     0753                     u600:
  1873     0753                     l1249:
  1874     0753  3045               	movlw	69
  1875     0754  2FEE               	goto	l104
  1876     0755                     l129:
  1877                           
  1878                           ;keytest.c: 170:     RD2=0; RD0=1; RD1=1; RD3=1;
  1879     0755  110F               	bcf	15,2	;volatile
  1880     0756  140F               	bsf	15,0	;volatile
  1881     0757  148F               	bsf	15,1	;volatile
  1882     0758  158F               	bsf	15,3	;volatile
  1883                           
  1884                           ;keytest.c: 171:     if(RD4==0) { _delay((unsigned long)((10)*(4000000/4000.0))); while(
      +                          RD4==0); return '7'; }
  1885     0759  1A0F               	btfsc	15,4	;volatile
  1886     075A  2F5C               	goto	u611
  1887     075B  2F5D               	goto	u610
  1888     075C                     u611:
  1889     075C  2F6B               	goto	l133
  1890     075D                     u610:
  1891     075D                     l1253:
  1892     075D  300D               	movlw	13
  1893     075E  00F0               	movwf	??_keypad_scanner
  1894     075F  30FC               	movlw	252
  1895     0760                     u907:
  1896     0760  0B89               	decfsz	9,f
  1897     0761  2F60               	goto	u907
  1898     0762  0BF0               	decfsz	??_keypad_scanner,f
  1899     0763  2F60               	goto	u907
  1900     0764                     l134:
  1901     0764  0140               	movlb	0	; select bank0
  1902     0765  1E0F               	btfss	15,4	;volatile
  1903     0766  2F68               	goto	u621
  1904     0767  2F69               	goto	u620
  1905     0768                     u621:
  1906     0768  2F64               	goto	l134
  1907     0769                     u620:
  1908     0769                     l1255:
  1909     0769  3037               	movlw	55
  1910     076A  2FEE               	goto	l104
  1911     076B                     l133:
  1912                           
  1913                           ;keytest.c: 172:     if(RD5==0) { _delay((unsigned long)((10)*(4000000/4000.0))); while(
      +                          RD5==0); return '8'; }
  1914     076B  1A8F               	btfsc	15,5	;volatile
  1915     076C  2F6E               	goto	u631
  1916     076D  2F6F               	goto	u630
  1917     076E                     u631:
  1918     076E  2F7D               	goto	l137
  1919     076F                     u630:
  1920     076F                     l1259:
  1921     076F  300D               	movlw	13
  1922     0770  00F0               	movwf	??_keypad_scanner
  1923     0771  30FC               	movlw	252
  1924     0772                     u917:
  1925     0772  0B89               	decfsz	9,f
  1926     0773  2F72               	goto	u917
  1927     0774  0BF0               	decfsz	??_keypad_scanner,f
  1928     0775  2F72               	goto	u917
  1929     0776                     l138:
  1930     0776  0140               	movlb	0	; select bank0
  1931     0777  1E8F               	btfss	15,5	;volatile
  1932     0778  2F7A               	goto	u641
  1933     0779  2F7B               	goto	u640
  1934     077A                     u641:
  1935     077A  2F76               	goto	l138
  1936     077B                     u640:
  1937     077B                     l1261:
  1938     077B  3038               	movlw	56
  1939     077C  2FEE               	goto	l104
  1940     077D                     l137:
  1941                           
  1942                           ;keytest.c: 173:     if(RD6==0) { _delay((unsigned long)((10)*(4000000/4000.0))); while(
      +                          RD6==0); return '9'; }
  1943     077D  1B0F               	btfsc	15,6	;volatile
  1944     077E  2F80               	goto	u651
  1945     077F  2F81               	goto	u650
  1946     0780                     u651:
  1947     0780  2F8F               	goto	l141
  1948     0781                     u650:
  1949     0781                     l1265:
  1950     0781  300D               	movlw	13
  1951     0782  00F0               	movwf	??_keypad_scanner
  1952     0783  30FC               	movlw	252
  1953     0784                     u927:
  1954     0784  0B89               	decfsz	9,f
  1955     0785  2F84               	goto	u927
  1956     0786  0BF0               	decfsz	??_keypad_scanner,f
  1957     0787  2F84               	goto	u927
  1958     0788                     l142:
  1959     0788  0140               	movlb	0	; select bank0
  1960     0789  1F0F               	btfss	15,6	;volatile
  1961     078A  2F8C               	goto	u661
  1962     078B  2F8D               	goto	u660
  1963     078C                     u661:
  1964     078C  2F88               	goto	l142
  1965     078D                     u660:
  1966     078D                     l1267:
  1967     078D  3039               	movlw	57
  1968     078E  2FEE               	goto	l104
  1969     078F                     l141:
  1970                           
  1971                           ;keytest.c: 174:     if(RD7==0) { _delay((unsigned long)((10)*(4000000/4000.0))); while(
      +                          RD7==0); return 'D'; }
  1972     078F  1B8F               	btfsc	15,7	;volatile
  1973     0790  2F92               	goto	u671
  1974     0791  2F93               	goto	u670
  1975     0792                     u671:
  1976     0792  2FA1               	goto	l145
  1977     0793                     u670:
  1978     0793                     l1271:
  1979     0793  300D               	movlw	13
  1980     0794  00F0               	movwf	??_keypad_scanner
  1981     0795  30FC               	movlw	252
  1982     0796                     u937:
  1983     0796  0B89               	decfsz	9,f
  1984     0797  2F96               	goto	u937
  1985     0798  0BF0               	decfsz	??_keypad_scanner,f
  1986     0799  2F96               	goto	u937
  1987     079A                     l146:
  1988     079A  0140               	movlb	0	; select bank0
  1989     079B  1F8F               	btfss	15,7	;volatile
  1990     079C  2F9E               	goto	u681
  1991     079D  2F9F               	goto	u680
  1992     079E                     u681:
  1993     079E  2F9A               	goto	l146
  1994     079F                     u680:
  1995     079F                     l1273:
  1996     079F  3044               	movlw	68
  1997     07A0  2FEE               	goto	l104
  1998     07A1                     l145:
  1999                           
  2000                           ;keytest.c: 176:     RD3=0; RD1=1; RD2=1; RD0=1;
  2001     07A1  118F               	bcf	15,3	;volatile
  2002     07A2  148F               	bsf	15,1	;volatile
  2003     07A3  150F               	bsf	15,2	;volatile
  2004     07A4  140F               	bsf	15,0	;volatile
  2005                           
  2006                           ;keytest.c: 177:     if(RD4==0) { _delay((unsigned long)((10)*(4000000/4000.0))); while(
      +                          RD4==0); return 'A'; }
  2007     07A5  1A0F               	btfsc	15,4	;volatile
  2008     07A6  2FA8               	goto	u691
  2009     07A7  2FA9               	goto	u690
  2010     07A8                     u691:
  2011     07A8  2FB7               	goto	l149
  2012     07A9                     u690:
  2013     07A9                     l1277:
  2014     07A9  300D               	movlw	13
  2015     07AA  00F0               	movwf	??_keypad_scanner
  2016     07AB  30FC               	movlw	252
  2017     07AC                     u947:
  2018     07AC  0B89               	decfsz	9,f
  2019     07AD  2FAC               	goto	u947
  2020     07AE  0BF0               	decfsz	??_keypad_scanner,f
  2021     07AF  2FAC               	goto	u947
  2022     07B0                     l150:
  2023     07B0  0140               	movlb	0	; select bank0
  2024     07B1  1E0F               	btfss	15,4	;volatile
  2025     07B2  2FB4               	goto	u701
  2026     07B3  2FB5               	goto	u700
  2027     07B4                     u701:
  2028     07B4  2FB0               	goto	l150
  2029     07B5                     u700:
  2030     07B5                     l1279:
  2031     07B5  3041               	movlw	65
  2032     07B6  2FEE               	goto	l104
  2033     07B7                     l149:
  2034                           
  2035                           ;keytest.c: 178:     if(RD5==0) { _delay((unsigned long)((10)*(4000000/4000.0))); while(
      +                          RD5==0); return '0'; }
  2036     07B7  1A8F               	btfsc	15,5	;volatile
  2037     07B8  2FBA               	goto	u711
  2038     07B9  2FBB               	goto	u710
  2039     07BA                     u711:
  2040     07BA  2FC9               	goto	l153
  2041     07BB                     u710:
  2042     07BB                     l1283:
  2043     07BB  300D               	movlw	13
  2044     07BC  00F0               	movwf	??_keypad_scanner
  2045     07BD  30FC               	movlw	252
  2046     07BE                     u957:
  2047     07BE  0B89               	decfsz	9,f
  2048     07BF  2FBE               	goto	u957
  2049     07C0  0BF0               	decfsz	??_keypad_scanner,f
  2050     07C1  2FBE               	goto	u957
  2051     07C2                     l154:
  2052     07C2  0140               	movlb	0	; select bank0
  2053     07C3  1E8F               	btfss	15,5	;volatile
  2054     07C4  2FC6               	goto	u721
  2055     07C5  2FC7               	goto	u720
  2056     07C6                     u721:
  2057     07C6  2FC2               	goto	l154
  2058     07C7                     u720:
  2059     07C7                     l1285:
  2060     07C7  3030               	movlw	48
  2061     07C8  2FEE               	goto	l104
  2062     07C9                     l153:
  2063                           
  2064                           ;keytest.c: 179:     if(RD6==0) { _delay((unsigned long)((10)*(4000000/4000.0))); while(
      +                          RD6==0); return 'B'; }
  2065     07C9  1B0F               	btfsc	15,6	;volatile
  2066     07CA  2FCC               	goto	u731
  2067     07CB  2FCD               	goto	u730
  2068     07CC                     u731:
  2069     07CC  2FDB               	goto	l157
  2070     07CD                     u730:
  2071     07CD                     l1289:
  2072     07CD  300D               	movlw	13
  2073     07CE  00F0               	movwf	??_keypad_scanner
  2074     07CF  30FC               	movlw	252
  2075     07D0                     u967:
  2076     07D0  0B89               	decfsz	9,f
  2077     07D1  2FD0               	goto	u967
  2078     07D2  0BF0               	decfsz	??_keypad_scanner,f
  2079     07D3  2FD0               	goto	u967
  2080     07D4                     l158:
  2081     07D4  0140               	movlb	0	; select bank0
  2082     07D5  1F0F               	btfss	15,6	;volatile
  2083     07D6  2FD8               	goto	u741
  2084     07D7  2FD9               	goto	u740
  2085     07D8                     u741:
  2086     07D8  2FD4               	goto	l158
  2087     07D9                     u740:
  2088     07D9                     l1291:
  2089     07D9  3042               	movlw	66
  2090     07DA  2FEE               	goto	l104
  2091     07DB                     l157:
  2092                           
  2093                           ;keytest.c: 180:     if(RD7==0) { _delay((unsigned long)((10)*(4000000/4000.0))); while(
      +                          RD7==0); return 'C'; }
  2094     07DB  1B8F               	btfsc	15,7	;volatile
  2095     07DC  2FDE               	goto	u751
  2096     07DD  2FDF               	goto	u750
  2097     07DE                     u751:
  2098     07DE  2FED               	goto	l1301
  2099     07DF                     u750:
  2100     07DF                     l1295:
  2101     07DF  300D               	movlw	13
  2102     07E0  00F0               	movwf	??_keypad_scanner
  2103     07E1  30FC               	movlw	252
  2104     07E2                     u977:
  2105     07E2  0B89               	decfsz	9,f
  2106     07E3  2FE2               	goto	u977
  2107     07E4  0BF0               	decfsz	??_keypad_scanner,f
  2108     07E5  2FE2               	goto	u977
  2109     07E6                     l162:
  2110     07E6  0140               	movlb	0	; select bank0
  2111     07E7  1F8F               	btfss	15,7	;volatile
  2112     07E8  2FEA               	goto	u761
  2113     07E9  2FEB               	goto	u760
  2114     07EA                     u761:
  2115     07EA  2FE6               	goto	l162
  2116     07EB                     u760:
  2117     07EB                     l1297:
  2118     07EB  3043               	movlw	67
  2119     07EC  2FEE               	goto	l104
  2120     07ED                     l1301:
  2121                           
  2122                           ;keytest.c: 182:     return '\0';
  2123     07ED  3000               	movlw	0
  2124     07EE                     l104:
  2125     07EE  0008               	return
  2126     07EF                     __end_of_keypad_scanner:
  2127                           
  2128                           	psect	text2
  2129     05BC                     __ptext2:	
  2130 ;; *************** function _LCD_String *****************
  2131 ;; Defined at:
  2132 ;;		line 266 in file "keytest.c"
  2133 ;; Parameters:    Size  Location     Type
  2134 ;;  text            2    3[COMMON] PTR const unsigned char 
  2135 ;;		 -> button_press_show@buffer(5), Display_Temperature@buffer(6), Display_Oxygen_Level@buffer(5), STR_2(13), 
  2136 ;;		 -> STR_1(8), 
  2137 ;; Auto vars:     Size  Location     Type
  2138 ;;		None
  2139 ;; Return value:  Size  Location     Type
  2140 ;;                  1    wreg      void 
  2141 ;; Registers used:
  2142 ;;		wreg, fsr0l, fsr0h, status,2, status,0, pclath, cstack
  2143 ;; Tracked objects:
  2144 ;;		On entry : 0/0
  2145 ;;		On exit  : 0/0
  2146 ;;		Unchanged: 0/0
  2147 ;; Data sizes:     COMMON   BANK0   BANK1   BANK2   BANK3   BANK4   BANK5   BANK6   BANK7   BANK8   BANK9  BANK10  BANK1
      +1  BANK12  BANK13  BANK14  BANK15  BANK16  BANK17  BANK18  BANK19  BANK20  BANK21  BANK22  BANK23  BANK24  BANK25  BANK2
      +6  BANK27  BANK28  BANK29  BANK30  BANK31  BANK32  BANK33  BANK34  BANK35  BANK36  BANK37  BANK38  BANK39  BANK40  BANK4
      +1  BANK42  BANK43  BANK44  BANK45  BANK46  BANK47  BANK48  BANK49  BANK50
  2148 ;;      Params:         2       0       0       0       0       0       0       0       0       0       0       0       
      +0       0       0       0       0       0       0       0       0       0       0       0       0       0       0       
      +0       0       0       0       0       0       0       0       0       0       0       0       0       0       0       
      +0       0       0       0       0       0       0       0       0       0
  2149 ;;      Locals:         0       0       0       0       0       0       0       0       0       0       0       0       
      +0       0       0       0       0       0       0       0       0       0       0       0       0       0       0       
      +0       0       0       0       0       0       0       0       0       0       0       0       0       0       0       
      +0       0       0       0       0       0       0       0       0       0
  2150 ;;      Temps:          1       0       0       0       0       0       0       0       0       0       0       0       
      +0       0       0       0       0       0       0       0       0       0       0       0       0       0       0       
      +0       0       0       0       0       0       0       0       0       0       0       0       0       0       0       
      +0       0       0       0       0       0       0       0       0       0
  2151 ;;      Totals:         3       0       0       0       0       0       0       0       0       0       0       0       
      +0       0       0       0       0       0       0       0       0       0       0       0       0       0       0       
      +0       0       0       0       0       0       0       0       0       0       0       0       0       0       0       
      +0       0       0       0       0       0       0       0       0       0
  2152 ;;Total ram usage:        3 bytes
  2153 ;; Hardware stack levels used: 1
  2154 ;; Hardware stack levels required when called: 1
  2155 ;; This function calls:
  2156 ;;		_LCD_Char
  2157 ;; This function is called by:
  2158 ;;		_main
  2159 ;;		_Display_Oxygen_Level
  2160 ;;		_Display_Temperature
  2161 ;;		_button_press_show
  2162 ;; This function uses a non-reentrant model
  2163 ;;
  2164                           
  2165     05BC                     _LCD_String:	
  2166                           ;psect for function _LCD_String
  2167                           
  2168     05BC                     l1305:	
  2169                           ;incstack = 0
  2170                           ; Regs used in _LCD_String: [wreg-fsr0h+status,2+status,0+pclath+cstack]
  2171                           
  2172                           
  2173                           ;keytest.c: 267:     while (*text != '\0') {
  2174     05BC  2DC9               	goto	l1311
  2175     05BD                     l1307:
  2176                           
  2177                           ;keytest.c: 268:         LCD_Char(*text++);
  2178     05BD  0873               	movf	LCD_String@text,w
  2179     05BE  0084               	movwf	4
  2180     05BF  0874               	movf	LCD_String@text+1,w
  2181     05C0  0085               	movwf	5
  2182     05C1  0800               	movf	0,w	;code access
  2183     05C2  3186  2623  3185   	fcall	_LCD_Char
  2184     05C5                     l1309:
  2185     05C5  3001               	movlw	1
  2186     05C6  07F3               	addwf	LCD_String@text,f
  2187     05C7  3000               	movlw	0
  2188     05C8  3DF4               	addwfc	LCD_String@text+1,f
  2189     05C9                     l1311:
  2190                           
  2191                           ;keytest.c: 267:     while (*text != '\0') {
  2192     05C9  0873               	movf	LCD_String@text,w
  2193     05CA  0084               	movwf	4
  2194     05CB  0874               	movf	LCD_String@text+1,w
  2195     05CC  0085               	movwf	5
  2196     05CD  0012               	moviw fsr0++
  2197     05CE  1D03               	btfss	3,2
  2198     05CF  2DD1               	goto	u771
  2199     05D0  2DD2               	goto	u770
  2200     05D1                     u771:
  2201     05D1  2DBD               	goto	l1307
  2202     05D2                     u770:
  2203     05D2                     l192:
  2204     05D2  0008               	return
  2205     05D3                     __end_of_LCD_String:
  2206                           
  2207                           	psect	text3
  2208     0623                     __ptext3:	
  2209 ;; *************** function _LCD_Char *****************
  2210 ;; Defined at:
  2211 ;;		line 252 in file "keytest.c"
  2212 ;; Parameters:    Size  Location     Type
  2213 ;;  data            1    wreg     unsigned char 
  2214 ;; Auto vars:     Size  Location     Type
  2215 ;;  data            1    2[COMMON] unsigned char 
  2216 ;; Return value:  Size  Location     Type
  2217 ;;                  1    wreg      void 
  2218 ;; Registers used:
  2219 ;;		wreg, status,2, status,0
  2220 ;; Tracked objects:
  2221 ;;		On entry : 0/0
  2222 ;;		On exit  : 0/0
  2223 ;;		Unchanged: 0/0
  2224 ;; Data sizes:     COMMON   BANK0   BANK1   BANK2   BANK3   BANK4   BANK5   BANK6   BANK7   BANK8   BANK9  BANK10  BANK1
      +1  BANK12  BANK13  BANK14  BANK15  BANK16  BANK17  BANK18  BANK19  BANK20  BANK21  BANK22  BANK23  BANK24  BANK25  BANK2
      +6  BANK27  BANK28  BANK29  BANK30  BANK31  BANK32  BANK33  BANK34  BANK35  BANK36  BANK37  BANK38  BANK39  BANK40  BANK4
      +1  BANK42  BANK43  BANK44  BANK45  BANK46  BANK47  BANK48  BANK49  BANK50
  2225 ;;      Params:         0       0       0       0       0       0       0       0       0       0       0       0       
      +0       0       0       0       0       0       0       0       0       0       0       0       0       0       0       
      +0       0       0       0       0       0       0       0       0       0       0       0       0       0       0       
      +0       0       0       0       0       0       0       0       0       0
  2226 ;;      Locals:         1       0       0       0       0       0       0       0       0       0       0       0       
      +0       0       0       0       0       0       0       0       0       0       0       0       0       0       0       
      +0       0       0       0       0       0       0       0       0       0       0       0       0       0       0       
      +0       0       0       0       0       0       0       0       0       0
  2227 ;;      Temps:          2       0       0       0       0       0       0       0       0       0       0       0       
      +0       0       0       0       0       0       0       0       0       0       0       0       0       0       0       
      +0       0       0       0       0       0       0       0       0       0       0       0       0       0       0       
      +0       0       0       0       0       0       0       0       0       0
  2228 ;;      Totals:         3       0       0       0       0       0       0       0       0       0       0       0       
      +0       0       0       0       0       0       0       0       0       0       0       0       0       0       0       
      +0       0       0       0       0       0       0       0       0       0       0       0       0       0       0       
      +0       0       0       0       0       0       0       0       0       0
  2229 ;;Total ram usage:        3 bytes
  2230 ;; Hardware stack levels used: 1
  2231 ;; This function calls:
  2232 ;;		Nothing
  2233 ;; This function is called by:
  2234 ;;		_main
  2235 ;;		_LCD_String
  2236 ;; This function uses a non-reentrant model
  2237 ;;
  2238                           
  2239     0623                     _LCD_Char:	
  2240                           ;psect for function _LCD_Char
  2241                           
  2242                           
  2243                           ;incstack = 0
  2244                           ; Regs used in _LCD_Char: [wreg+status,2+status,0]
  2245                           ;LCD_Char@data stored from wreg
  2246     0623  00F2               	movwf	LCD_Char@data
  2247     0624                     l1157:
  2248                           
  2249                           ;keytest.c: 253:     PORTCbits.RC0 = 1;
  2250     0624  0140               	movlb	0	; select bank0
  2251     0625  140E               	bsf	14,0	;volatile
  2252     0626                     l1159:
  2253                           
  2254                           ;keytest.c: 254:     PORTC = (PORTC & 0x0F) | (data & 0xF0);
  2255     0626  30F0               	movlw	240
  2256     0627  0572               	andwf	LCD_Char@data,w
  2257     0628  00F0               	movwf	??_LCD_Char
  2258     0629  080E               	movf	14,w	;volatile
  2259     062A  390F               	andlw	15
  2260     062B  0470               	iorwf	??_LCD_Char,w
  2261     062C  008E               	movwf	14	;volatile
  2262     062D                     l1161:
  2263                           
  2264                           ;keytest.c: 255:     PORTEbits.RE0 = 1;
  2265     062D  1410               	bsf	16,0	;volatile
  2266     062E                     l1163:
  2267                           
  2268                           ;keytest.c: 256:     _delay((unsigned long)((1)*(4000000/4000000.0)));
  2269     062E  0000               	nop
  2270     062F                     l1165:
  2271                           
  2272                           ;keytest.c: 257:     PORTEbits.RE0 = 0;
  2273     062F  0140               	movlb	0	; select bank0
  2274     0630  1010               	bcf	16,0	;volatile
  2275     0631                     l1167:
  2276                           
  2277                           ;keytest.c: 258:     _delay((unsigned long)((200)*(4000000/4000000.0)));
  2278     0631  3042               	movlw	66
  2279     0632                     u987:
  2280     0632  0B89               	decfsz	9,f
  2281     0633  2E32               	goto	u987
  2282     0634  3200               	nop2
  2283     0635                     l1169:
  2284                           
  2285                           ;keytest.c: 259:     PORTC = (PORTC & 0x0F) | ((data << 4) & 0xF0);
  2286     0635  0872               	movf	LCD_Char@data,w
  2287     0636  00F0               	movwf	??_LCD_Char
  2288     0637  3004               	movlw	4
  2289     0638                     u455:
  2290     0638  35F0               	lslf	??_LCD_Char,f
  2291     0639  0B89               	decfsz	9,f
  2292     063A  2E38               	goto	u455
  2293     063B  30F0               	movlw	240
  2294     063C  0570               	andwf	??_LCD_Char,w
  2295     063D  00F1               	movwf	??_LCD_Char+1
  2296     063E  0140               	movlb	0	; select bank0
  2297     063F  080E               	movf	14,w	;volatile
  2298     0640  390F               	andlw	15
  2299     0641  0471               	iorwf	??_LCD_Char+1,w
  2300     0642  008E               	movwf	14	;volatile
  2301     0643                     l1171:
  2302                           
  2303                           ;keytest.c: 260:     PORTEbits.RE0 = 1;
  2304     0643  1410               	bsf	16,0	;volatile
  2305     0644                     l1173:
  2306                           
  2307                           ;keytest.c: 261:     _delay((unsigned long)((1)*(4000000/4000000.0)));
  2308     0644  0000               	nop
  2309     0645                     l1175:
  2310                           
  2311                           ;keytest.c: 262:     PORTEbits.RE0 = 0;
  2312     0645  0140               	movlb	0	; select bank0
  2313     0646  1010               	bcf	16,0	;volatile
  2314                           
  2315                           ;keytest.c: 263:     _delay((unsigned long)((2)*(4000000/4000.0)));
  2316     0647  3003               	movlw	3
  2317     0648  00F0               	movwf	??_LCD_Char
  2318     0649  3098               	movlw	152
  2319     064A                     u997:
  2320     064A  0B89               	decfsz	9,f
  2321     064B  2E4A               	goto	u997
  2322     064C  0BF0               	decfsz	??_LCD_Char,f
  2323     064D  2E4A               	goto	u997
  2324     064E                     l186:
  2325     064E  0008               	return
  2326     064F                     __end_of_LCD_Char:
  2327                           
  2328                           	psect	text4
  2329     05D3                     __ptext4:	
  2330 ;; *************** function _LCD_Init *****************
  2331 ;; Defined at:
  2332 ;;		line 219 in file "keytest.c"
  2333 ;; Parameters:    Size  Location     Type
  2334 ;;		None
  2335 ;; Auto vars:     Size  Location     Type
  2336 ;;		None
  2337 ;; Return value:  Size  Location     Type
  2338 ;;                  1    wreg      void 
  2339 ;; Registers used:
  2340 ;;		wreg, status,2, status,0, pclath, cstack
  2341 ;; Tracked objects:
  2342 ;;		On entry : 0/0
  2343 ;;		On exit  : 0/0
  2344 ;;		Unchanged: 0/0
  2345 ;; Data sizes:     COMMON   BANK0   BANK1   BANK2   BANK3   BANK4   BANK5   BANK6   BANK7   BANK8   BANK9  BANK10  BANK1
      +1  BANK12  BANK13  BANK14  BANK15  BANK16  BANK17  BANK18  BANK19  BANK20  BANK21  BANK22  BANK23  BANK24  BANK25  BANK2
      +6  BANK27  BANK28  BANK29  BANK30  BANK31  BANK32  BANK33  BANK34  BANK35  BANK36  BANK37  BANK38  BANK39  BANK40  BANK4
      +1  BANK42  BANK43  BANK44  BANK45  BANK46  BANK47  BANK48  BANK49  BANK50
  2346 ;;      Params:         0       0       0       0       0       0       0       0       0       0       0       0       
      +0       0       0       0       0       0       0       0       0       0       0       0       0       0       0       
      +0       0       0       0       0       0       0       0       0       0       0       0       0       0       0       
      +0       0       0       0       0       0       0       0       0       0
  2347 ;;      Locals:         0       0       0       0       0       0       0       0       0       0       0       0       
      +0       0       0       0       0       0       0       0       0       0       0       0       0       0       0       
      +0       0       0       0       0       0       0       0       0       0       0       0       0       0       0       
      +0       0       0       0       0       0       0       0       0       0
  2348 ;;      Temps:          1       0       0       0       0       0       0       0       0       0       0       0       
      +0       0       0       0       0       0       0       0       0       0       0       0       0       0       0       
      +0       0       0       0       0       0       0       0       0       0       0       0       0       0       0       
      +0       0       0       0       0       0       0       0       0       0
  2349 ;;      Totals:         1       0       0       0       0       0       0       0       0       0       0       0       
      +0       0       0       0       0       0       0       0       0       0       0       0       0       0       0       
      +0       0       0       0       0       0       0       0       0       0       0       0       0       0       0       
      +0       0       0       0       0       0       0       0       0       0
  2350 ;;Total ram usage:        1 bytes
  2351 ;; Hardware stack levels used: 1
  2352 ;; Hardware stack levels required when called: 1
  2353 ;; This function calls:
  2354 ;;		_LCD_Cmd
  2355 ;; This function is called by:
  2356 ;;		_main
  2357 ;; This function uses a non-reentrant model
  2358 ;;
  2359                           
  2360     05D3                     _LCD_Init:	
  2361                           ;psect for function _LCD_Init
  2362                           
  2363     05D3                     l1177:	
  2364                           ;incstack = 0
  2365                           ; Regs used in _LCD_Init: [wreg+status,2+status,0+pclath+cstack]
  2366                           
  2367                           
  2368                           ;keytest.c: 221:     TRISEbits.TRISE0 = 0;
  2369     05D3  0140               	movlb	0	; select bank0
  2370     05D4  1015               	bcf	21,0	;volatile
  2371                           
  2372                           ;keytest.c: 222:     TRISCbits.TRISC0 = 0;
  2373     05D5  1013               	bcf	19,0	;volatile
  2374                           
  2375                           ;keytest.c: 223:     TRISCbits.TRISC1 = 0;
  2376     05D6  1093               	bcf	19,1	;volatile
  2377                           
  2378                           ;keytest.c: 224:     TRISCbits.TRISC4 = 0;
  2379     05D7  1213               	bcf	19,4	;volatile
  2380                           
  2381                           ;keytest.c: 225:     TRISCbits.TRISC5 = 0;
  2382     05D8  1293               	bcf	19,5	;volatile
  2383                           
  2384                           ;keytest.c: 226:     TRISCbits.TRISC6 = 0;
  2385     05D9  1313               	bcf	19,6	;volatile
  2386                           
  2387                           ;keytest.c: 227:     TRISCbits.TRISC7 = 0;
  2388     05DA  1393               	bcf	19,7	;volatile
  2389     05DB                     l1179:
  2390                           
  2391                           ;keytest.c: 229:     _delay((unsigned long)((15)*(4000000/4000.0)));
  2392     05DB  3014               	movlw	20
  2393     05DC  00F3               	movwf	??_LCD_Init
  2394     05DD  307A               	movlw	122
  2395     05DE                     u1007:
  2396     05DE  0B89               	decfsz	9,f
  2397     05DF  2DDE               	goto	u1007
  2398     05E0  0BF3               	decfsz	??_LCD_Init,f
  2399     05E1  2DDE               	goto	u1007
  2400     05E2                     l1181:
  2401                           
  2402                           ;keytest.c: 231:     LCD_Cmd(0x02);
  2403     05E2  3002               	movlw	2
  2404     05E3  3185  25F7  3185   	fcall	_LCD_Cmd
  2405     05E6                     l1183:
  2406                           
  2407                           ;keytest.c: 232:     LCD_Cmd(0x28);
  2408     05E6  3028               	movlw	40
  2409     05E7  3185  25F7  3185   	fcall	_LCD_Cmd
  2410     05EA                     l1185:
  2411                           
  2412                           ;keytest.c: 233:     LCD_Cmd(0x0C);
  2413     05EA  300C               	movlw	12
  2414     05EB  3185  25F7  3185   	fcall	_LCD_Cmd
  2415     05EE                     l1187:
  2416                           
  2417                           ;keytest.c: 234:     LCD_Cmd(0x06);
  2418     05EE  3006               	movlw	6
  2419     05EF  3185  25F7  3185   	fcall	_LCD_Cmd
  2420     05F2                     l1189:
  2421                           
  2422                           ;keytest.c: 235:     LCD_Cmd(0x80);
  2423     05F2  3080               	movlw	128
  2424     05F3  3185  25F7  3185   	fcall	_LCD_Cmd
  2425     05F6                     l180:
  2426     05F6  0008               	return
  2427     05F7                     __end_of_LCD_Init:
  2428                           
  2429                           	psect	text5
  2430     059E                     __ptext5:	
  2431 ;; *************** function _LCD_Clear *****************
  2432 ;; Defined at:
  2433 ;;		line 272 in file "keytest.c"
  2434 ;; Parameters:    Size  Location     Type
  2435 ;;		None
  2436 ;; Auto vars:     Size  Location     Type
  2437 ;;		None
  2438 ;; Return value:  Size  Location     Type
  2439 ;;                  1    wreg      void 
  2440 ;; Registers used:
  2441 ;;		wreg, status,2, status,0, pclath, cstack
  2442 ;; Tracked objects:
  2443 ;;		On entry : 0/0
  2444 ;;		On exit  : 0/0
  2445 ;;		Unchanged: 0/0
  2446 ;; Data sizes:     COMMON   BANK0   BANK1   BANK2   BANK3   BANK4   BANK5   BANK6   BANK7   BANK8   BANK9  BANK10  BANK1
      +1  BANK12  BANK13  BANK14  BANK15  BANK16  BANK17  BANK18  BANK19  BANK20  BANK21  BANK22  BANK23  BANK24  BANK25  BANK2
      +6  BANK27  BANK28  BANK29  BANK30  BANK31  BANK32  BANK33  BANK34  BANK35  BANK36  BANK37  BANK38  BANK39  BANK40  BANK4
      +1  BANK42  BANK43  BANK44  BANK45  BANK46  BANK47  BANK48  BANK49  BANK50
  2447 ;;      Params:         0       0       0       0       0       0       0       0       0       0       0       0       
      +0       0       0       0       0       0       0       0       0       0       0       0       0       0       0       
      +0       0       0       0       0       0       0       0       0       0       0       0       0       0       0       
      +0       0       0       0       0       0       0       0       0       0
  2448 ;;      Locals:         0       0       0       0       0       0       0       0       0       0       0       0       
      +0       0       0       0       0       0       0       0       0       0       0       0       0       0       0       
      +0       0       0       0       0       0       0       0       0       0       0       0       0       0       0       
      +0       0       0       0       0       0       0       0       0       0
  2449 ;;      Temps:          1       0       0       0       0       0       0       0       0       0       0       0       
      +0       0       0       0       0       0       0       0       0       0       0       0       0       0       0       
      +0       0       0       0       0       0       0       0       0       0       0       0       0       0       0       
      +0       0       0       0       0       0       0       0       0       0
  2450 ;;      Totals:         1       0       0       0       0       0       0       0       0       0       0       0       
      +0       0       0       0       0       0       0       0       0       0       0       0       0       0       0       
      +0       0       0       0       0       0       0       0       0       0       0       0       0       0       0       
      +0       0       0       0       0       0       0       0       0       0
  2451 ;;Total ram usage:        1 bytes
  2452 ;; Hardware stack levels used: 1
  2453 ;; Hardware stack levels required when called: 1
  2454 ;; This function calls:
  2455 ;;		_LCD_Cmd
  2456 ;; This function is called by:
  2457 ;;		_main
  2458 ;; This function uses a non-reentrant model
  2459 ;;
  2460                           
  2461     059E                     _LCD_Clear:	
  2462                           ;psect for function _LCD_Clear
  2463                           
  2464     059E                     l1201:	
  2465                           ;incstack = 0
  2466                           ; Regs used in _LCD_Clear: [wreg+status,2+status,0+pclath+cstack]
  2467                           
  2468                           
  2469                           ;keytest.c: 273:     LCD_Cmd(0x01);
  2470     059E  3001               	movlw	1
  2471     059F  3185  25F7  3185   	fcall	_LCD_Cmd
  2472     05A2                     l1203:
  2473                           
  2474                           ;keytest.c: 274:     _delay((unsigned long)((2)*(4000000/4000.0)));
  2475     05A2  3003               	movlw	3
  2476     05A3  00F3               	movwf	??_LCD_Clear
  2477     05A4  3098               	movlw	152
  2478     05A5                     u1017:
  2479     05A5  0B89               	decfsz	9,f
  2480     05A6  2DA5               	goto	u1017
  2481     05A7  0BF3               	decfsz	??_LCD_Clear,f
  2482     05A8  2DA5               	goto	u1017
  2483     05A9                     l195:
  2484     05A9  0008               	return
  2485     05AA                     __end_of_LCD_Clear:
  2486                           
  2487                           	psect	text6
  2488     05F7                     __ptext6:	
  2489 ;; *************** function _LCD_Cmd *****************
  2490 ;; Defined at:
  2491 ;;		line 238 in file "keytest.c"
  2492 ;; Parameters:    Size  Location     Type
  2493 ;;  command         1    wreg     unsigned char 
  2494 ;; Auto vars:     Size  Location     Type
  2495 ;;  command         1    2[COMMON] unsigned char 
  2496 ;; Return value:  Size  Location     Type
  2497 ;;                  1    wreg      void 
  2498 ;; Registers used:
  2499 ;;		wreg, status,2, status,0
  2500 ;; Tracked objects:
  2501 ;;		On entry : 0/0
  2502 ;;		On exit  : 0/0
  2503 ;;		Unchanged: 0/0
  2504 ;; Data sizes:     COMMON   BANK0   BANK1   BANK2   BANK3   BANK4   BANK5   BANK6   BANK7   BANK8   BANK9  BANK10  BANK1
      +1  BANK12  BANK13  BANK14  BANK15  BANK16  BANK17  BANK18  BANK19  BANK20  BANK21  BANK22  BANK23  BANK24  BANK25  BANK2
      +6  BANK27  BANK28  BANK29  BANK30  BANK31  BANK32  BANK33  BANK34  BANK35  BANK36  BANK37  BANK38  BANK39  BANK40  BANK4
      +1  BANK42  BANK43  BANK44  BANK45  BANK46  BANK47  BANK48  BANK49  BANK50
  2505 ;;      Params:         0       0       0       0       0       0       0       0       0       0       0       0       
      +0       0       0       0       0       0       0       0       0       0       0       0       0       0       0       
      +0       0       0       0       0       0       0       0       0       0       0       0       0       0       0       
      +0       0       0       0       0       0       0       0       0       0
  2506 ;;      Locals:         1       0       0       0       0       0       0       0       0       0       0       0       
      +0       0       0       0       0       0       0       0       0       0       0       0       0       0       0       
      +0       0       0       0       0       0       0       0       0       0       0       0       0       0       0       
      +0       0       0       0       0       0       0       0       0       0
  2507 ;;      Temps:          2       0       0       0       0       0       0       0       0       0       0       0       
      +0       0       0       0       0       0       0       0       0       0       0       0       0       0       0       
      +0       0       0       0       0       0       0       0       0       0       0       0       0       0       0       
      +0       0       0       0       0       0       0       0       0       0
  2508 ;;      Totals:         3       0       0       0       0       0       0       0       0       0       0       0       
      +0       0       0       0       0       0       0       0       0       0       0       0       0       0       0       
      +0       0       0       0       0       0       0       0       0       0       0       0       0       0       0       
      +0       0       0       0       0       0       0       0       0       0
  2509 ;;Total ram usage:        3 bytes
  2510 ;; Hardware stack levels used: 1
  2511 ;; This function calls:
  2512 ;;		Nothing
  2513 ;; This function is called by:
  2514 ;;		_main
  2515 ;;		_LCD_Init
  2516 ;;		_LCD_Clear
  2517 ;; This function uses a non-reentrant model
  2518 ;;
  2519                           
  2520     05F7                     _LCD_Cmd:	
  2521                           ;psect for function _LCD_Cmd
  2522                           
  2523                           
  2524                           ;incstack = 0
  2525                           ; Regs used in _LCD_Cmd: [wreg+status,2+status,0]
  2526                           ;LCD_Cmd@command stored from wreg
  2527     05F7  00F2               	movwf	LCD_Cmd@command
  2528     05F8                     l1137:
  2529                           
  2530                           ;keytest.c: 239:     PORTCbits.RC0 = 0;
  2531     05F8  0140               	movlb	0	; select bank0
  2532     05F9  100E               	bcf	14,0	;volatile
  2533     05FA                     l1139:
  2534                           
  2535                           ;keytest.c: 240:     PORTC = (PORTC & 0x0F) | (command & 0xF0);
  2536     05FA  30F0               	movlw	240
  2537     05FB  0572               	andwf	LCD_Cmd@command,w
  2538     05FC  00F0               	movwf	??_LCD_Cmd
  2539     05FD  080E               	movf	14,w	;volatile
  2540     05FE  390F               	andlw	15
  2541     05FF  0470               	iorwf	??_LCD_Cmd,w
  2542     0600  008E               	movwf	14	;volatile
  2543     0601                     l1141:
  2544                           
  2545                           ;keytest.c: 241:     PORTEbits.RE0 = 1;
  2546     0601  1410               	bsf	16,0	;volatile
  2547     0602                     l1143:
  2548                           
  2549                           ;keytest.c: 242:     _delay((unsigned long)((1)*(4000000/4000000.0)));
  2550     0602  0000               	nop
  2551     0603                     l1145:
  2552                           
  2553                           ;keytest.c: 243:     PORTEbits.RE0 = 0;
  2554     0603  0140               	movlb	0	; select bank0
  2555     0604  1010               	bcf	16,0	;volatile
  2556     0605                     l1147:
  2557                           
  2558                           ;keytest.c: 244:     _delay((unsigned long)((200)*(4000000/4000000.0)));
  2559     0605  3042               	movlw	66
  2560     0606                     u1027:
  2561     0606  0B89               	decfsz	9,f
  2562     0607  2E06               	goto	u1027
  2563     0608  3200               	nop2
  2564     0609                     l1149:
  2565                           
  2566                           ;keytest.c: 245:     PORTC = (PORTC & 0x0F) | ((command << 4) & 0xF0);
  2567     0609  0872               	movf	LCD_Cmd@command,w
  2568     060A  00F0               	movwf	??_LCD_Cmd
  2569     060B  3004               	movlw	4
  2570     060C                     u445:
  2571     060C  35F0               	lslf	??_LCD_Cmd,f
  2572     060D  0B89               	decfsz	9,f
  2573     060E  2E0C               	goto	u445
  2574     060F  30F0               	movlw	240
  2575     0610  0570               	andwf	??_LCD_Cmd,w
  2576     0611  00F1               	movwf	??_LCD_Cmd+1
  2577     0612  0140               	movlb	0	; select bank0
  2578     0613  080E               	movf	14,w	;volatile
  2579     0614  390F               	andlw	15
  2580     0615  0471               	iorwf	??_LCD_Cmd+1,w
  2581     0616  008E               	movwf	14	;volatile
  2582     0617                     l1151:
  2583                           
  2584                           ;keytest.c: 246:     PORTEbits.RE0 = 1;
  2585     0617  1410               	bsf	16,0	;volatile
  2586     0618                     l1153:
  2587                           
  2588                           ;keytest.c: 247:     _delay((unsigned long)((1)*(4000000/4000000.0)));
  2589     0618  0000               	nop
  2590     0619                     l1155:
  2591                           
  2592                           ;keytest.c: 248:     PORTEbits.RE0 = 0;
  2593     0619  0140               	movlb	0	; select bank0
  2594     061A  1010               	bcf	16,0	;volatile
  2595                           
  2596                           ;keytest.c: 249:     _delay((unsigned long)((2)*(4000000/4000.0)));
  2597     061B  3003               	movlw	3
  2598     061C  00F0               	movwf	??_LCD_Cmd
  2599     061D  3098               	movlw	152
  2600     061E                     u1037:
  2601     061E  0B89               	decfsz	9,f
  2602     061F  2E1E               	goto	u1037
  2603     0620  0BF0               	decfsz	??_LCD_Cmd,f
  2604     0621  2E1E               	goto	u1037
  2605     0622                     l183:
  2606     0622  0008               	return
  2607     0623                     __end_of_LCD_Cmd:
  2608                           
  2609                           	psect	text7
  2610     05AA                     __ptext7:	
  2611 ;; *************** function _ADC_Init *****************
  2612 ;; Defined at:
  2613 ;;		line 312 in file "keytest.c"
  2614 ;; Parameters:    Size  Location     Type
  2615 ;;		None
  2616 ;; Auto vars:     Size  Location     Type
  2617 ;;		None
  2618 ;; Return value:  Size  Location     Type
  2619 ;;                  1    wreg      void 
  2620 ;; Registers used:
  2621 ;;		wreg, status,2
  2622 ;; Tracked objects:
  2623 ;;		On entry : 0/0
  2624 ;;		On exit  : 0/0
  2625 ;;		Unchanged: 0/0
  2626 ;; Data sizes:     COMMON   BANK0   BANK1   BANK2   BANK3   BANK4   BANK5   BANK6   BANK7   BANK8   BANK9  BANK10  BANK1
      +1  BANK12  BANK13  BANK14  BANK15  BANK16  BANK17  BANK18  BANK19  BANK20  BANK21  BANK22  BANK23  BANK24  BANK25  BANK2
      +6  BANK27  BANK28  BANK29  BANK30  BANK31  BANK32  BANK33  BANK34  BANK35  BANK36  BANK37  BANK38  BANK39  BANK40  BANK4
      +1  BANK42  BANK43  BANK44  BANK45  BANK46  BANK47  BANK48  BANK49  BANK50
  2627 ;;      Params:         0       0       0       0       0       0       0       0       0       0       0       0       
      +0       0       0       0       0       0       0       0       0       0       0       0       0       0       0       
      +0       0       0       0       0       0       0       0       0       0       0       0       0       0       0       
      +0       0       0       0       0       0       0       0       0       0
  2628 ;;      Locals:         0       0       0       0       0       0       0       0       0       0       0       0       
      +0       0       0       0       0       0       0       0       0       0       0       0       0       0       0       
      +0       0       0       0       0       0       0       0       0       0       0       0       0       0       0       
      +0       0       0       0       0       0       0       0       0       0
  2629 ;;      Temps:          0       0       0       0       0       0       0       0       0       0       0       0       
      +0       0       0       0       0       0       0       0       0       0       0       0       0       0       0       
      +0       0       0       0       0       0       0       0       0       0       0       0       0       0       0       
      +0       0       0       0       0       0       0       0       0       0
  2630 ;;      Totals:         0       0       0       0       0       0       0       0       0       0       0       0       
      +0       0       0       0       0       0       0       0       0       0       0       0       0       0       0       
      +0       0       0       0       0       0       0       0       0       0       0       0       0       0       0       
      +0       0       0       0       0       0       0       0       0       0
  2631 ;;Total ram usage:        0 bytes
  2632 ;; Hardware stack levels used: 1
  2633 ;; This function calls:
  2634 ;;		Nothing
  2635 ;; This function is called by:
  2636 ;;		_main
  2637 ;; This function uses a non-reentrant model
  2638 ;;
  2639                           
  2640     05AA                     _ADC_Init:	
  2641                           ;psect for function _ADC_Init
  2642                           
  2643     05AA                     l1191:	
  2644                           ;incstack = 0
  2645                           ; Regs used in _ADC_Init: [wreg+status,2]
  2646                           
  2647                           
  2648                           ;keytest.c: 315:     ANSELA = 0b00001000;
  2649     05AA  3008               	movlw	8
  2650     05AB  017E               	movlb	62	; select bank62
  2651     05AC  00B8               	movwf	56	;volatile
  2652                           
  2653                           ;keytest.c: 316:     TRISA = 0b11111111;
  2654     05AD  30FF               	movlw	255
  2655     05AE  0140               	movlb	0	; select bank0
  2656     05AF  0091               	movwf	17	;volatile
  2657     05B0                     l1193:
  2658                           
  2659                           ;keytest.c: 317:     ADREF = 0b00000000;
  2660     05B0  0141               	movlb	1	; select bank1
  2661     05B1  019A               	clrf	26	;volatile
  2662     05B2                     l1195:
  2663                           
  2664                           ;keytest.c: 318:     ADCLK = 0b00000011;
  2665     05B2  3003               	movlw	3
  2666     05B3  0098               	movwf	24	;volatile
  2667                           
  2668                           ;keytest.c: 319:     ADACQ = 0b00000000;
  2669     05B4  019D               	clrf	29	;volatile
  2670     05B5                     l1197:
  2671                           
  2672                           ;keytest.c: 320:     ADCON0 = 0b10000100;
  2673     05B5  3084               	movlw	132
  2674     05B6  0093               	movwf	19	;volatile
  2675     05B7                     l1199:
  2676                           
  2677                           ;keytest.c: 324:     _delay((unsigned long)((20)*(4000000/4000000.0)));
  2678     05B7  3006               	movlw	6
  2679     05B8                     u1047:
  2680     05B8  0B89               	decfsz	9,f
  2681     05B9  2DB8               	goto	u1047
  2682     05BA  3200               	nop2
  2683     05BB                     l207:
  2684     05BB  0008               	return
  2685     05BC                     __end_of_ADC_Init:
  2686     007E                     btemp	set	126	;btemp
  2687     007E                     wtemp0	set	126
  2688                           
  2689                           	psect	config
  2690                           
  2691                           ;Config register CONFIG1 @ 0x8007
  2692                           ;	External Oscillator mode selection bits
  2693                           ;	FEXTOSC = OFF, Oscillator not enabled
  2694                           ;	Power-up default value for COSC bits
  2695                           ;	RSTOSC = HFINT1, HFINTOSC (1MHz)
  2696                           ;	Clock Out Enable bit
  2697                           ;	CLKOUTEN = OFF, CLKOUT function is disabled; i/o or oscillator function on OSC2
  2698                           ;	Clock Switch Enable bit
  2699                           ;	CSWEN = ON, Writing to NOSC and NDIV is allowed
  2700                           ;	Fail-Safe Clock Monitor Enable bit
  2701                           ;	FCMEN = ON, FSCM timer enabled
  2702     8007                     	org	32775
  2703     8007  3FEC               	dw	16364
  2704                           
  2705                           ;Config register CONFIG2 @ 0x8008
  2706                           ;	Master Clear Enable bit
  2707                           ;	MCLRE = ON, MCLR pin is Master Clear function
  2708                           ;	Power-up Timer Enable bit
  2709                           ;	PWRTE = OFF, PWRT disabled
  2710                           ;	Low-Power BOR enable bit
  2711                           ;	LPBOREN = OFF, ULPBOR disabled
  2712                           ;	Brown-out reset enable bits
  2713                           ;	BOREN = ON, Brown-out Reset Enabled, SBOREN bit is ignored
  2714                           ;	Brown-out Reset Voltage Selection
  2715                           ;	BORV = LO, Brown-out Reset Voltage (VBOR) set to 1.9V on LF, and 2.45V on F Devices
  2716                           ;	Zero-cross detect disable
  2717                           ;	ZCD = OFF, Zero-cross detect circuit is disabled at POR.
  2718                           ;	Peripheral Pin Select one-way control
  2719                           ;	PPS1WAY = ON, The PPSLOCK bit can be cleared and set only once in software
  2720                           ;	Stack Overflow/Underflow Reset Enable bit
  2721                           ;	STVREN = ON, Stack Overflow or Underflow will cause a reset
  2722                           ;	Background Debugger
  2723                           ;	DEBUG = 0x1, unprogrammed default
  2724     8008                     	org	32776
  2725     8008  3FFF               	dw	16383
  2726                           
  2727                           ;Config register CONFIG3 @ 0x8009
  2728                           ;	WDT Period Select bits
  2729                           ;	WDTCPS = WDTCPS_31, Divider ratio 1:65536; software control of WDTPS
  2730                           ;	WDT operating mode
  2731                           ;	WDTE = OFF, WDT Disabled, SWDTEN is ignored
  2732                           ;	WDT Window Select bits
  2733                           ;	WDTCWS = WDTCWS_7, window always open (100%); software control; keyed access not requi
      +                          red
  2734                           ;	WDT input clock selector
  2735                           ;	WDTCCS = SC, Software Control
  2736     8009                     	org	32777
  2737     8009  3F9F               	dw	16287
  2738                           
  2739                           ;Config register CONFIG4 @ 0x800A
  2740                           ;	UserNVM self-write protection bits
  2741                           ;	WRT = OFF, Write protection off
  2742                           ;	Scanner Enable bit
  2743                           ;	SCANE = available, Scanner module is available for use
  2744                           ;	Low Voltage Programming Enable bit
  2745                           ;	LVP = ON, Low Voltage programming enabled. MCLR/Vpp pin function is MCLR.
  2746     800A                     	org	32778
  2747     800A  3FFF               	dw	16383
  2748                           
  2749                           ;Config register CONFIG5 @ 0x800B
  2750                           ;	UserNVM Program memory code protection bit
  2751                           ;	CP = OFF, Program Memory code protection disabled
  2752                           ;	DataNVM code protection bit
  2753                           ;	CPD = OFF, Data EEPROM code protection disabled
  2754     800B                     	org	32779
  2755     800B  3FFF               	dw	16383

Data Sizes:
    Strings     33
    Constant    16
    Data        2
    BSS         6
    Persistent  32
    Stack       0

Auto Spaces:
    Space          Size  Autos    Used
    COMMON           14      9      13
    BANK0            80      0       4
    BANK1            80      0       0
    BANK2            80      0       0
    BANK3            80      0       0
    BANK4            80      0       0
    BANK5            80      0       0
    BANK6            80      0       0
    BANK7            80      0       0
    BANK8            80      0       0
    BANK9            80      0       0
    BANK10           80      0       0
    BANK11           80      0       0
    BANK12           80      0       0
    BANK13           80      0       0
    BANK14           80      0       0
    BANK15           80      0       0
    BANK16           80      0       0
    BANK17           80      0       0
    BANK18           80      0       0
    BANK19           80      0       0
    BANK20           80      0       0
    BANK21           80      0       0
    BANK22           80      0       0
    BANK23           80      0       0
    BANK24           80      0       0
    BANK25           80      0       0
    BANK26           80      0       0
    BANK27           80      0       0
    BANK28           80      0       0
    BANK29           80      0       0
    BANK30           80      0       0
    BANK31           80      0       0
    BANK32           80      0       0
    BANK33           80      0       0
    BANK34           80      0       0
    BANK35           80      0       0
    BANK36           80      0       0
    BANK37           80      0       0
    BANK38           80      0       0
    BANK39           80      0       0
    BANK40           80      0       0
    BANK41           80      0       0
    BANK42           80      0       0
    BANK43           80      0       0
    BANK44           80      0       0
    BANK45           80      0       0
    BANK46           80      0       0
    BANK47           80      0       0
    BANK48           80      0       0
    BANK49           80      0       0
    BANK50           80      0       0

Pointer List with Targets:

    vfprintf$2	PTR PTR void  size(1) Largest target is 1
		 -> sprintf@ap(COMMON[1]), 

    vfprintf$1	PTR const unsigned char  size(2) Largest target is 6
		 -> STR_5(CODE[6]), STR_4(CODE[6]), STR_3(CODE[6]), 

    vfprintf$0	PTR struct _IO_FILE size(1) Largest target is 11
		 -> sprintf@f(COMMON[11]), 

    S777$source	PTR const unsigned char  size(2) Largest target is 0

    f...source	PTR const unsigned char  size(2) Largest target is 0

    S777$buffer	PTR unsigned char  size(2) Largest target is 0

    f...buffer	PTR unsigned char  size(2) Largest target is 0

    LCD_String@text	PTR const unsigned char  size(2) Largest target is 13
		 -> button_press_show@buffer(COMMON[5]), Display_Temperature@buffer(COMMON[6]), Display_Oxygen_Level@buffer(COMMON[5]), STR_2(CODE[13]), 
		 -> STR_1(CODE[8]), 


Critical Paths under _main in COMMON

    _main->_LCD_String
    _LCD_String->_LCD_Char
    _LCD_Init->_LCD_Cmd
    _LCD_Clear->_LCD_Cmd

Critical Paths under _main in BANK0

    None.

Critical Paths under _main in BANK1

    None.

Critical Paths under _main in BANK2

    None.

Critical Paths under _main in BANK3

    None.

Critical Paths under _main in BANK4

    None.

Critical Paths under _main in BANK5

    None.

Critical Paths under _main in BANK6

    None.

Critical Paths under _main in BANK7

    None.

Critical Paths under _main in BANK8

    None.

Critical Paths under _main in BANK9

    None.

Critical Paths under _main in BANK10

    None.

Critical Paths under _main in BANK11

    None.

Critical Paths under _main in BANK12

    None.

Critical Paths under _main in BANK13

    None.

Critical Paths under _main in BANK14

    None.

Critical Paths under _main in BANK15

    None.

Critical Paths under _main in BANK16

    None.

Critical Paths under _main in BANK17

    None.

Critical Paths under _main in BANK18

    None.

Critical Paths under _main in BANK19

    None.

Critical Paths under _main in BANK20

    None.

Critical Paths under _main in BANK21

    None.

Critical Paths under _main in BANK22

    None.

Critical Paths under _main in BANK23

    None.

Critical Paths under _main in BANK24

    None.

Critical Paths under _main in BANK25

    None.

Critical Paths under _main in BANK26

    None.

Critical Paths under _main in BANK27

    None.

Critical Paths under _main in BANK28

    None.

Critical Paths under _main in BANK29

    None.

Critical Paths under _main in BANK30

    None.

Critical Paths under _main in BANK31

    None.

Critical Paths under _main in BANK32

    None.

Critical Paths under _main in BANK33

    None.

Critical Paths under _main in BANK34

    None.

Critical Paths under _main in BANK35

    None.

Critical Paths under _main in BANK36

    None.

Critical Paths under _main in BANK37

    None.

Critical Paths under _main in BANK38

    None.

Critical Paths under _main in BANK39

    None.

Critical Paths under _main in BANK40

    None.

Critical Paths under _main in BANK41

    None.

Critical Paths under _main in BANK42

    None.

Critical Paths under _main in BANK43

    None.

Critical Paths under _main in BANK44

    None.

Critical Paths under _main in BANK45

    None.

Critical Paths under _main in BANK46

    None.

Critical Paths under _main in BANK47

    None.

Critical Paths under _main in BANK48

    None.

Critical Paths under _main in BANK49

    None.

Critical Paths under _main in BANK50

    None.

Call Graph Tables:

 ---------------------------------------------------------------------------------
 (Depth) Function   	        Calls       Base Space   Used Autos Params    Refs
 ---------------------------------------------------------------------------------
 (0) _main                                                 3     3      0     712
                                              6 COMMON     3     3      0
                           _ADC_Init
                           _LCD_Char
                          _LCD_Clear
                            _LCD_Cmd
                           _LCD_Init
                         _LCD_String
                     _keypad_scanner
 ---------------------------------------------------------------------------------
 (1) _keypad_scanner                                       1     1      0       0
                                              0 COMMON     1     1      0
 ---------------------------------------------------------------------------------
 (1) _LCD_String                                           3     1      2     469
                                              3 COMMON     3     1      2
                           _LCD_Char
 ---------------------------------------------------------------------------------
 (2) _LCD_Char                                             3     3      0      44
                                              0 COMMON     3     3      0
 ---------------------------------------------------------------------------------
 (1) _LCD_Init                                             1     1      0      44
                                              3 COMMON     1     1      0
                            _LCD_Cmd
 ---------------------------------------------------------------------------------
 (1) _LCD_Clear                                            1     1      0      44
                                              3 COMMON     1     1      0
                            _LCD_Cmd
 ---------------------------------------------------------------------------------
 (2) _LCD_Cmd                                              3     3      0      44
                                              0 COMMON     3     3      0
 ---------------------------------------------------------------------------------
 (1) _ADC_Init                                             0     0      0       0
 ---------------------------------------------------------------------------------
 Estimated maximum stack depth 2
 ---------------------------------------------------------------------------------

 Call Graph Graphs:

 _main (ROOT)
   _ADC_Init
   _LCD_Char
   _LCD_Clear
     _LCD_Cmd
   _LCD_Cmd
   _LCD_Init
     _LCD_Cmd
   _LCD_String
     _LCD_Char
   _keypad_scanner

 Address spaces:
Name               Size   Autos  Total    Cost      Usage
BIGRAM             FF0      0       0       0        0.0%
EEDATA             100      0       0       0        0.0%
NULL                 0      0       0       0        0.0%
CODE                 0      0       0       0        0.0%
BITCOMMON            E      0       0       1        0.0%
BITSFR0              0      0       0       1        0.0%
SFR0                 0      0       0       1        0.0%
COMMON               E      9       D       2       92.9%
BITSFR1              0      0       0       2        0.0%
SFR1                 0      0       0       2        0.0%
BITSFR2              0      0       0       3        0.0%
SFR2                 0      0       0       3        0.0%
STACK                0      0       0       3        0.0%
BITBANK0            50      0       0       4        0.0%
BITSFR3              0      0       0       4        0.0%
SFR3                 0      0       0       4        0.0%
BANK0               50      0       4       5        5.0%
BITSFR4              0      0       0       5        0.0%
SFR4                 0      0       0       5        0.0%
BITBANK1            50      0       0       6        0.0%
BITSFR5              0      0       0       6        0.0%
SFR5                 0      0       0       6        0.0%
BANK1               50      0       0       7        0.0%
BITSFR6              0      0       0       7        0.0%
SFR6                 0      0       0       7        0.0%
BITBANK2            50      0       0       8        0.0%
BITSFR7              0      0       0       8        0.0%
SFR7                 0      0       0       8        0.0%
BANK2               50      0       0       9        0.0%
BITSFR8              0      0       0       9        0.0%
SFR8                 0      0       0       9        0.0%
BITBANK3            50      0       0      10        0.0%
BITSFR9              0      0       0      10        0.0%
SFR9                 0      0       0      10        0.0%
BANK3               50      0       0      11        0.0%
BITSFR10             0      0       0      11        0.0%
SFR10                0      0       0      11        0.0%
BITBANK4            50      0       0      12        0.0%
BITSFR11             0      0       0      12        0.0%
SFR11                0      0       0      12        0.0%
BANK4               50      0       0      13        0.0%
BITSFR12             0      0       0      13        0.0%
SFR12                0      0       0      13        0.0%
BITBANK5            50      0       0      14        0.0%
BITSFR13             0      0       0      14        0.0%
SFR13                0      0       0      14        0.0%
BANK5               50      0       0      15        0.0%
BITSFR14             0      0       0      15        0.0%
SFR14                0      0       0      15        0.0%
BITBANK6            50      0       0      16        0.0%
BITSFR15             0      0       0      16        0.0%
SFR15                0      0       0      16        0.0%
BANK6               50      0       0      17        0.0%
BITSFR16             0      0       0      17        0.0%
SFR16                0      0       0      17        0.0%
BITBANK7            50      0       0      18        0.0%
BITSFR17             0      0       0      18        0.0%
SFR17                0      0       0      18        0.0%
BANK7               50      0       0      19        0.0%
BITSFR18             0      0       0      19        0.0%
SFR18                0      0       0      19        0.0%
BITBANK8            50      0       0      20        0.0%
BITSFR19             0      0       0      20        0.0%
SFR19                0      0       0      20        0.0%
BANK8               50      0       0      21        0.0%
BITSFR20             0      0       0      21        0.0%
SFR20                0      0       0      21        0.0%
BITBANK9            50      0       0      22        0.0%
BITSFR21             0      0       0      22        0.0%
SFR21                0      0       0      22        0.0%
BANK9               50      0       0      23        0.0%
BITSFR22             0      0       0      23        0.0%
SFR22                0      0       0      23        0.0%
BITBANK10           50      0       0      24        0.0%
BITSFR23             0      0       0      24        0.0%
SFR23                0      0       0      24        0.0%
BANK10              50      0       0      25        0.0%
BITSFR24             0      0       0      25        0.0%
SFR24                0      0       0      25        0.0%
BITBANK11           50      0       0      26        0.0%
BITSFR25             0      0       0      26        0.0%
SFR25                0      0       0      26        0.0%
BANK11              50      0       0      27        0.0%
BITSFR26             0      0       0      27        0.0%
SFR26                0      0       0      27        0.0%
BITSFR27             0      0       0      28        0.0%
SFR27                0      0       0      28        0.0%
ABS                  0      0      11      28        0.0%
BITBANK12           50      0       0      29        0.0%
BITSFR28             0      0       0      29        0.0%
SFR28                0      0       0      29        0.0%
BANK12              50      0       0      30        0.0%
BITSFR29             0      0       0      30        0.0%
SFR29                0      0       0      30        0.0%
BITBANK13           50      0       0      31        0.0%
BITSFR30             0      0       0      31        0.0%
SFR30                0      0       0      31        0.0%
BANK13              50      0       0      32        0.0%
BITSFR31             0      0       0      32        0.0%
SFR31                0      0       0      32        0.0%
BITBANK14           50      0       0      33        0.0%
BITSFR32             0      0       0      33        0.0%
SFR32                0      0       0      33        0.0%
BANK14              50      0       0      34        0.0%
BITSFR33             0      0       0      34        0.0%
SFR33                0      0       0      34        0.0%
BITBANK15           50      0       0      35        0.0%
BITSFR34             0      0       0      35        0.0%
SFR34                0      0       0      35        0.0%
BANK15              50      0       0      36        0.0%
BITSFR35             0      0       0      36        0.0%
SFR35                0      0       0      36        0.0%
BITBANK16           50      0       0      37        0.0%
BITSFR36             0      0       0      37        0.0%
SFR36                0      0       0      37        0.0%
BANK16              50      0       0      38        0.0%
BITSFR37             0      0       0      38        0.0%
SFR37                0      0       0      38        0.0%
BITBANK17           50      0       0      39        0.0%
BITSFR38             0      0       0      39        0.0%
SFR38                0      0       0      39        0.0%
BANK17              50      0       0      40        0.0%
BITSFR39             0      0       0      40        0.0%
SFR39                0      0       0      40        0.0%
BITBANK18           50      0       0      41        0.0%
BITSFR40             0      0       0      41        0.0%
SFR40                0      0       0      41        0.0%
BANK18              50      0       0      42        0.0%
BITSFR41             0      0       0      42        0.0%
SFR41                0      0       0      42        0.0%
BITBANK19           50      0       0      43        0.0%
BITSFR42             0      0       0      43        0.0%
SFR42                0      0       0      43        0.0%
BANK19              50      0       0      44        0.0%
BITSFR43             0      0       0      44        0.0%
SFR43                0      0       0      44        0.0%
BITBANK20           50      0       0      45        0.0%
BITSFR44             0      0       0      45        0.0%
SFR44                0      0       0      45        0.0%
BANK20              50      0       0      46        0.0%
BITSFR45             0      0       0      46        0.0%
SFR45                0      0       0      46        0.0%
BITBANK21           50      0       0      47        0.0%
BITSFR46             0      0       0      47        0.0%
SFR46                0      0       0      47        0.0%
BANK21              50      0       0      48        0.0%
BITSFR47             0      0       0      48        0.0%
SFR47                0      0       0      48        0.0%
BITBANK22           50      0       0      49        0.0%
BITSFR48             0      0       0      49        0.0%
SFR48                0      0       0      49        0.0%
BANK22              50      0       0      50        0.0%
BITSFR49             0      0       0      50        0.0%
SFR49                0      0       0      50        0.0%
BITBANK23           50      0       0      51        0.0%
BITSFR50             0      0       0      51        0.0%
SFR50                0      0       0      51        0.0%
BANK23              50      0       0      52        0.0%
BITSFR51             0      0       0      52        0.0%
SFR51                0      0       0      52        0.0%
BITBANK24           50      0       0      53        0.0%
BITSFR52             0      0       0      53        0.0%
SFR52                0      0       0      53        0.0%
BANK24              50      0       0      54        0.0%
BITSFR53             0      0       0      54        0.0%
SFR53                0      0       0      54        0.0%
BITBANK25           50      0       0      55        0.0%
BITSFR54             0      0       0      55        0.0%
SFR54                0      0       0      55        0.0%
BANK25              50      0       0      56        0.0%
BITSFR55             0      0       0      56        0.0%
SFR55                0      0       0      56        0.0%
BITBANK26           50      0       0      57        0.0%
BITSFR56             0      0       0      57        0.0%
SFR56                0      0       0      57        0.0%
BANK26              50      0       0      58        0.0%
BITSFR57             0      0       0      58        0.0%
SFR57                0      0       0      58        0.0%
BITSFR58             0      0       0      59        0.0%
SFR58                0      0       0      59        0.0%
DATA                 0      0      11      59        0.0%
BITBANK27           50      0       0      60        0.0%
BITSFR59             0      0       0      60        0.0%
SFR59                0      0       0      60        0.0%
BANK27              50      0       0      61        0.0%
BITSFR60             0      0       0      61        0.0%
SFR60                0      0       0      61        0.0%
BITBANK28           50      0       0      62        0.0%
BITSFR61             0      0       0      62        0.0%
SFR61                0      0       0      62        0.0%
BANK28              50      0       0      63        0.0%
BITSFR62             0      0       0      63        0.0%
SFR62                0      0       0      63        0.0%
BITBANK29           50      0       0      64        0.0%
BITSFR63             0      0       0      64        0.0%
SFR63                0      0       0      64        0.0%
BANK29              50      0       0      65        0.0%
BITBANK30           50      0       0      66        0.0%
BANK30              50      0       0      67        0.0%
BITBANK31           50      0       0      68        0.0%
BANK31              50      0       0      69        0.0%
BITBANK32           50      0       0      70        0.0%
BANK32              50      0       0      71        0.0%
BITBANK33           50      0       0      72        0.0%
BANK33              50      0       0      73        0.0%
BITBANK34           50      0       0      74        0.0%
BANK34              50      0       0      75        0.0%
BITBANK35           50      0       0      76        0.0%
BANK35              50      0       0      77        0.0%
BITBANK36           50      0       0      78        0.0%
BANK36              50      0       0      79        0.0%
BITBANK37           50      0       0      80        0.0%
BANK37              50      0       0      81        0.0%
BITBANK38           50      0       0      82        0.0%
BANK38              50      0       0      83        0.0%
BITBANK39           50      0       0      84        0.0%
BANK39              50      0       0      85        0.0%
BITBANK40           50      0       0      86        0.0%
BANK40              50      0       0      87        0.0%
BITBANK41           50      0       0      88        0.0%
BANK41              50      0       0      89        0.0%
BITBANK42           50      0       0      90        0.0%
BANK42              50      0       0      91        0.0%
BITBANK43           50      0       0      92        0.0%
BANK43              50      0       0      93        0.0%
BITBANK44           50      0       0      94        0.0%
BANK44              50      0       0      95        0.0%
BITBANK45           50      0       0      96        0.0%
BANK45              50      0       0      97        0.0%
BITBANK46           50      0       0      98        0.0%
BANK46              50      0       0      99        0.0%
BITBANK47           50      0       0     100        0.0%
BANK47              50      0       0     101        0.0%
BITBANK48           50      0       0     102        0.0%
BANK48              50      0       0     103        0.0%
BITBANK49           50      0       0     104        0.0%
BANK49              50      0       0     105        0.0%
BITBANK50           50      0       0     106        0.0%
BANK50              50      0       0     107        0.0%


Microchip Technology PIC Macro Assembler V2.41 build 20230208172133 
Symbol Table                                                                                   Sun Jul 30 20:22:12 2023

__end_ofkeypad_get_key@keypad 0810                            l90 06A5                            l95 06AF  
                          l96 06B7                   ?_LCD_String 0073                           l110 06F0  
                         l103 06D3                           l104 07EE                           l121 0731  
                         l113 0709                           l105 06E5                           l130 074E  
                         l122 072A                           l114 0702                           l106 06DE  
                         l141 078F                           l133 076B                           l125 0743  
                         l117 071F                           l109 06F7                           l150 07B0  
                         l142 0788                           l134 0764                           l126 073C  
                         l118 0718                           l207 05BB                           l153 07C9  
                         l145 07A1                           l137 077D                           l129 0755  
                         l162 07E6                           l154 07C2                           l146 079A  
                         l138 0776                           l180 05F6                           l157 07DB  
                         l149 07B7                           l158 07D4                           l183 0622  
                         l192 05D2                           l186 064E                           l195 05A9  
                         _RD0 0078                           _RD1 0079                           _RD2 007A  
                         _RD3 007B                           _RD4 007C                           _RD5 007D  
                         _RD6 007E                           _RD7 007F                           u500 06F5  
                         u501 06F4                           u510 06FB                           u511 06FA  
                         u600 0753                           u520 0707                           u601 0752  
                         u521 0706                           u610 075D                           u530 0711  
                         u611 075C                           u531 0710                           u700 07B5  
                         u620 0769                           u540 071D                           u460 06CA  
                         u445 060C                           u701 07B4                           u621 0768  
                         u541 071C                           u461 06C9                           u710 07BB  
                         u630 076F                           u550 0723                           u470 06D7  
                         u455 0638                           u711 07BA                           u631 076E  
                         u551 0722                           u471 06D6                           u720 07C7  
                         u640 077B                           u560 072F                           u480 06E3  
                         u800 06B3                           u721 07C6                           u641 077A  
                         u561 072E                           u481 06E2                           u801 06B2  
                         u730 07CD                           u650 0781                           u570 0735  
                         u490 06E9                           u731 07CC                           u651 0780  
                         u571 0734                           u491 06E8                           u740 07D9  
                         u660 078D                           u580 0741                           u741 07D8  
                         u661 078C                           u581 0740                           u750 07DF  
                         u670 0793                           u590 0747                           u751 07DE  
                         u671 0792                           u591 0746                           u760 07EB  
                         u680 079F                           u761 07EA                           u681 079E  
                         u817 06BA                           u770 05D2                           u690 07A9  
                         u771 05D1                           u691 07A8                           u907 0760  
                         u827 06CD                           u780 066F                           u917 0772  
                         u837 06DA                           u781 066E                           u790 06AA  
                         u927 0784                           u847 06EC                           u791 06A9  
                         u937 0796                           u857 06FE                           u947 07AC  
                         u867 0714                           u957 07BE                           u877 0726  
                         u967 07D0                           u887 0738                           u977 07E2  
                         u897 074A                           u987 0632                           u997 064A  
                         wreg 0009               __end_of_LCD_Cmd 0623                          l1201 059E  
                        l1203 05A2                          l1211 06D7                          l1141 0601  
                        l1301 07ED                          l1213 06E3                          l1205 06C1  
                        l1151 0617                          l1143 0602                          l1311 05C9  
                        l1231 071D                          l1223 06FB                          l1207 06CA  
                        l1153 0618                          l1145 0603                          l1137 05F8  
                        l1161 062D                          l1305 05BC                          l1241 0735  
                        l1225 0707                          l1217 06E9                          l1321 065D  
                        l1313 064F                          l1155 0619                          l1147 0605  
                        l1139 05FA                          l1171 0643                          l1163 062E  
                        l1307 05BD                          l1243 0741                          l1235 0723  
                        l1219 06F5                          l1331 066F                          l1323 0660  
                        l1315 0655                          l1149 0609                          l1181 05E2  
                        l1173 0644                          l1165 062F                          l1157 0624  
                        l1309 05C5                          l1261 077B                          l1253 075D  
                        l1237 072F                          l1229 0711                          l1333 067B  
                        l1325 0663                          l1317 0658                          l1191 05AA  
                        l1183 05E6                          l1175 0645                          l1167 0631  
                        l1159 0626                          l1271 0793                          l1255 0769  
                        l1247 0747                          l1335 0680                          l1343 0695  
                        l1327 0666                          l1319 065B                          l1193 05B0  
                        l1185 05EA                          l1177 05D3                          l1169 0635  
                        l1273 079F                          l1265 0781                          l1249 0753  
                        l1345 06AA                          l1337 0688                          l1329 066A  
                        l1195 05B2                          l1187 05EE                          l1179 05DB  
                        l1291 07D9                          l1283 07BB                          l1267 078D  
                        l1259 076F                          l1347 06B3                          l1339 068D  
                        l1197 05B5                          l1189 05F2                          l1285 07C7  
                        l1277 07A9                          l1199 05B7                          l1295 07DF  
                        l1279 07B5                          l1297 07EB                          l1289 07CD  
                        l1397 069D                          STR_1 081D                          STR_2 0810  
                        STR_3 0825                          STR_4 082B                          u1007 05DE  
                        u1017 05A5                          u1027 0606                          u1037 061E  
                        u1047 05B8                          _WPUD 1F5A                          _main 064F  
                 _oxygenLevel 007B                          fsr0h 0005                          indf0 0000  
                        fsr0l 0004                          btemp 007E              __end_of_ADC_Init 05BC  
                        start 0002              __end_of_LCD_Char 064F              __end_of_LCD_Init 05F7  
                LCD_Char@data 0072                         _ADACQ 009D                         ?_main 0070  
                       _ADCLK 0098                         _ADPCH 009E                         _ADREF 009A  
                       _PORTC 000E                         _PORTD 000F                         _TRISA 0011  
                       _TRISD 0014              ??_keypad_scanner 0070                         status 0003  
                       wtemp0 007E               __initialization 07EF                  __end_of_main 06C1  
                      ??_main 0076             __end_of_LCD_Clear 05AA                     ??_LCD_Cmd 0070  
                      _ADCON0 0093                        _ADRESH 008D                        _ADRESL 008C  
                      _ANSELA 1F38                        _ANSELD 1F59          keypad_get_key@keypad 0800  
                   ?_ADC_Init 0070                     ?_LCD_Char 0070       __end_of__initialization 07FD  
                   ?_LCD_Init 0070                __pcstackCOMMON 0070                  __pidataBANK0 059C  
                ??_LCD_String 0075                    ??_ADC_Init 0070                    __pbssBANK0 0020  
              LCD_Cmd@command 0072                    ??_LCD_Char 0070                    ??_LCD_Init 0073  
          __end_of_LCD_String 05D3                    __pmaintext 064F                       _LCD_Cmd 05F7  
                     __ptext1 06C1                       __ptext2 05BC                       __ptext3 0623  
                     __ptext4 05D3                       __ptext5 059E                       __ptext6 05F7  
                     __ptext7 05AA                     _LCD_Clear 059E                       main@key 0078  
        end_of_initialization 07FD                    _timerCount 0079                     _PORTAbits 000C  
                   _PORTBbits 000D                     _PORTCbits 000E                     _PORTEbits 0010  
                   _TRISCbits 0013                     _TRISEbits 0015                    ?_LCD_Clear 0070  
         start_initialization 07EF                 _analog_choice 0022                   __pdataBANK0 0022  
                    ?_LCD_Cmd 0070                   __pbssCOMMON 0079                     ___latbits 0004  
                 ??_LCD_Clear 0073                      _ADC_Init 05AA                      _LCD_Char 0623  
                    _LCD_Init 05D3                _keypad_scanner 06C1                    _ADCON0bits 0093  
      __end_of_keypad_scanner 07EF                LCD_String@text 0073               ?_keypad_scanner 0070  
                  _LCD_String 05BC                 __pstringtext1 0800                 __pstringtext2 081D  
               __pstringtext3 0825                 __pstringtext4 082B                 __pstringtext5 0000  
                 _temperature 0020  
