

Microchip MPLAB XC8 Assembler V2.41 build 20230208172133 
                                                                                               Sun Jul 30 19:33:03 2023

Microchip MPLAB XC8 C Compiler v2.41 (Free license) build 20230208172133 Og1 
     1                           	processor	16F18877
     2                           	pagewidth 120
     3                           	opt	flic
     4                           	psect	idataCOMMON,global,class=CODE,delta=2,noexec
     5                           	psect	stringtext1,global,class=STRCODE,delta=2,noexec
     6                           	psect	stringtext2,global,class=STRCODE,delta=2,noexec
     7                           	psect	stringtext3,global,class=STRCODE,delta=2,noexec
     8                           	psect	stringtext4,global,class=STRCODE,delta=2,noexec
     9                           	psect	cinit,global,class=CODE,merge=1,delta=2
    10                           	psect	bssCOMMON,global,class=COMMON,space=1,delta=1,noexec
    11                           	psect	dataCOMMON,global,class=COMMON,space=1,delta=1,noexec
    12                           	psect	bssBANK0,global,class=BANK0,space=1,delta=1,noexec
    13                           	psect	cstackCOMMON,global,class=COMMON,space=1,delta=1,noexec
    14                           	psect	maintext,global,class=CODE,merge=1,split=1,delta=2
    15                           	psect	text1,local,class=CODE,merge=1,delta=2
    16                           	psect	text2,local,class=CODE,merge=1,delta=2
    17                           	psect	text3,local,class=CODE,merge=1,delta=2
    18                           	psect	text4,local,class=CODE,merge=1,delta=2
    19                           	psect	text5,local,class=CODE,merge=1,delta=2
    20                           	psect	text6,local,class=CODE,merge=1,delta=2
    21                           	psect	text7,local,class=CODE,merge=1,delta=2
    22                           	psect	text8,local,class=CODE,merge=1,delta=2
    23                           	psect	config,global,abs,ovrld,class=CONFIG,space=4,delta=2,noexec
    24                           	dabs	1,0x7E,2
    25     0000                     
    26                           ; Generated 09/02/2023 GMT
    27                           ; 
    28                           ; Copyright © 2023, Microchip Technology Inc. and its subsidiaries ("Microchip")
    29                           ; All rights reserved.
    30                           ; 
    31                           ; This software is developed by Microchip Technology Inc. and its subsidiaries ("Microch
      +                          ip").
    32                           ; 
    33                           ; Redistribution and use in source and binary forms, with or without modification, are
    34                           ; permitted provided that the following conditions are met:
    35                           ; 
    36                           ;     1. Redistributions of source code must retain the above copyright notice, this lis
      +                          t of
    37                           ;        conditions and the following disclaimer.
    38                           ; 
    39                           ;     2. Redistributions in binary form must reproduce the above copyright notice, this 
      +                          list
    40                           ;        of conditions and the following disclaimer in the documentation and/or other
    41                           ;        materials provided with the distribution. Publication is not required when
    42                           ;        this file is used in an embedded application.
    43                           ; 
    44                           ;     3. Microchip's name may not be used to endorse or promote products derived from th
      +                          is
    45                           ;        software without specific prior written permission.
    46                           ; 
    47                           ; THIS SOFTWARE IS PROVIDED BY MICROCHIP "AS IS" AND ANY EXPRESS OR IMPLIED WARRANTIES,
    48                           ; INCLUDING, BUT NOT LIMITED TO, THE IMPLIED WARRANTIES OF MERCHANTABILITY AND FITNESS F
      +                          OR
    49                           ; PURPOSE ARE DISCLAIMED.  IN NO EVENT SHALL MICROCHIP BE LIABLE FOR ANY DIRECT, INDIREC
      +                          T,
    50                           ; INCIDENTAL, SPECIAL, EXEMPLARY, OR CONSEQUENTIAL DAMAGES (INCLUDING BUT NOT LIMITED TO
    51                           ; PROCUREMENT OF SUBSTITUTE GOODS OR SERVICES; LOSS OF USE, DATA OR PROFITS; OR BUSINESS
    52                           ; INTERRUPTION) HOWSOEVER CAUSED AND ON ANY THEORY OF LIABILITY, WHETHER IN CONTRACT, ST
      +                          RICT
    53                           ; LIABILITY, OR TORT (INCLUDING NEGLIGENCE OR OTHERWISE) ARISING IN ANY WAY OUT OF THE U
      +                          SE OF
    54                           ; THIS SOFTWARE, EVEN IF ADVISED OF THE POSSIBILITY OF SUCH DAMAGE.
    55                           ; 
    56                           ; 
    57                           ; Code-generator required, PIC16F18877 Definitions
    58                           ; 
    59                           ; SFR Addresses
    60     0000                     	;# 
    61     0001                     	;# 
    62     0002                     	;# 
    63     0003                     	;# 
    64     0004                     	;# 
    65     0005                     	;# 
    66     0006                     	;# 
    67     0007                     	;# 
    68     0008                     	;# 
    69     0009                     	;# 
    70     000A                     	;# 
    71     000B                     	;# 
    72     000C                     	;# 
    73     000D                     	;# 
    74     000E                     	;# 
    75     000F                     	;# 
    76     0010                     	;# 
    77     0011                     	;# 
    78     0012                     	;# 
    79     0013                     	;# 
    80     0014                     	;# 
    81     0015                     	;# 
    82     0016                     	;# 
    83     0017                     	;# 
    84     0018                     	;# 
    85     0019                     	;# 
    86     001A                     	;# 
    87     001C                     	;# 
    88     001C                     	;# 
    89     001D                     	;# 
    90     001D                     	;# 
    91     001E                     	;# 
    92     001F                     	;# 
    93     008C                     	;# 
    94     008C                     	;# 
    95     008D                     	;# 
    96     008E                     	;# 
    97     008E                     	;# 
    98     008F                     	;# 
    99     0090                     	;# 
   100     0090                     	;# 
   101     0091                     	;# 
   102     0093                     	;# 
   103     0094                     	;# 
   104     0095                     	;# 
   105     0096                     	;# 
   106     0097                     	;# 
   107     0098                     	;# 
   108     0099                     	;# 
   109     009A                     	;# 
   110     009B                     	;# 
   111     009C                     	;# 
   112     009D                     	;# 
   113     009E                     	;# 
   114     010C                     	;# 
   115     010D                     	;# 
   116     010E                     	;# 
   117     010E                     	;# 
   118     010F                     	;# 
   119     0110                     	;# 
   120     0110                     	;# 
   121     0111                     	;# 
   122     0112                     	;# 
   123     0112                     	;# 
   124     0113                     	;# 
   125     0114                     	;# 
   126     0114                     	;# 
   127     0115                     	;# 
   128     0116                     	;# 
   129     0116                     	;# 
   130     0117                     	;# 
   131     0119                     	;# 
   132     0119                     	;# 
   133     0119                     	;# 
   134     011A                     	;# 
   135     011A                     	;# 
   136     011A                     	;# 
   137     011B                     	;# 
   138     011B                     	;# 
   139     011B                     	;# 
   140     011B                     	;# 
   141     011B                     	;# 
   142     011C                     	;# 
   143     011C                     	;# 
   144     011C                     	;# 
   145     011D                     	;# 
   146     011D                     	;# 
   147     011D                     	;# 
   148     011E                     	;# 
   149     011E                     	;# 
   150     011E                     	;# 
   151     011F                     	;# 
   152     011F                     	;# 
   153     011F                     	;# 
   154     011F                     	;# 
   155     011F                     	;# 
   156     018C                     	;# 
   157     018D                     	;# 
   158     018E                     	;# 
   159     018F                     	;# 
   160     0190                     	;# 
   161     0191                     	;# 
   162     0192                     	;# 
   163     0196                     	;# 
   164     0197                     	;# 
   165     0198                     	;# 
   166     0199                     	;# 
   167     019A                     	;# 
   168     019B                     	;# 
   169     019C                     	;# 
   170     020C                     	;# 
   171     020C                     	;# 
   172     020D                     	;# 
   173     020E                     	;# 
   174     020F                     	;# 
   175     020F                     	;# 
   176     0210                     	;# 
   177     0210                     	;# 
   178     0211                     	;# 
   179     0211                     	;# 
   180     0212                     	;# 
   181     0212                     	;# 
   182     0213                     	;# 
   183     0214                     	;# 
   184     0215                     	;# 
   185     0215                     	;# 
   186     0216                     	;# 
   187     0216                     	;# 
   188     0217                     	;# 
   189     0217                     	;# 
   190     0218                     	;# 
   191     0218                     	;# 
   192     0219                     	;# 
   193     021A                     	;# 
   194     021B                     	;# 
   195     021B                     	;# 
   196     021C                     	;# 
   197     021C                     	;# 
   198     021D                     	;# 
   199     021D                     	;# 
   200     021E                     	;# 
   201     021F                     	;# 
   202     028C                     	;# 
   203     028C                     	;# 
   204     028D                     	;# 
   205     028D                     	;# 
   206     028E                     	;# 
   207     028F                     	;# 
   208     0290                     	;# 
   209     0290                     	;# 
   210     0291                     	;# 
   211     0292                     	;# 
   212     0292                     	;# 
   213     0293                     	;# 
   214     0293                     	;# 
   215     0294                     	;# 
   216     0295                     	;# 
   217     0296                     	;# 
   218     0296                     	;# 
   219     0297                     	;# 
   220     0298                     	;# 
   221     0298                     	;# 
   222     0299                     	;# 
   223     0299                     	;# 
   224     029A                     	;# 
   225     029B                     	;# 
   226     029C                     	;# 
   227     029C                     	;# 
   228     029D                     	;# 
   229     030C                     	;# 
   230     030C                     	;# 
   231     030D                     	;# 
   232     030E                     	;# 
   233     030F                     	;# 
   234     0310                     	;# 
   235     0310                     	;# 
   236     0311                     	;# 
   237     0312                     	;# 
   238     0313                     	;# 
   239     0314                     	;# 
   240     0314                     	;# 
   241     0315                     	;# 
   242     0316                     	;# 
   243     0317                     	;# 
   244     0318                     	;# 
   245     0318                     	;# 
   246     0319                     	;# 
   247     031A                     	;# 
   248     031B                     	;# 
   249     031C                     	;# 
   250     031C                     	;# 
   251     031D                     	;# 
   252     031E                     	;# 
   253     031F                     	;# 
   254     038C                     	;# 
   255     038C                     	;# 
   256     038D                     	;# 
   257     038E                     	;# 
   258     0390                     	;# 
   259     0390                     	;# 
   260     0391                     	;# 
   261     0392                     	;# 
   262     040C                     	;# 
   263     040D                     	;# 
   264     040E                     	;# 
   265     040F                     	;# 
   266     0410                     	;# 
   267     0411                     	;# 
   268     0416                     	;# 
   269     0416                     	;# 
   270     0417                     	;# 
   271     0418                     	;# 
   272     0418                     	;# 
   273     0419                     	;# 
   274     041A                     	;# 
   275     041A                     	;# 
   276     041B                     	;# 
   277     041C                     	;# 
   278     041C                     	;# 
   279     041D                     	;# 
   280     041E                     	;# 
   281     041F                     	;# 
   282     048C                     	;# 
   283     048C                     	;# 
   284     048D                     	;# 
   285     048E                     	;# 
   286     048F                     	;# 
   287     048F                     	;# 
   288     0490                     	;# 
   289     0491                     	;# 
   290     0492                     	;# 
   291     0492                     	;# 
   292     0493                     	;# 
   293     0494                     	;# 
   294     0495                     	;# 
   295     0495                     	;# 
   296     0496                     	;# 
   297     0497                     	;# 
   298     0498                     	;# 
   299     0499                     	;# 
   300     049A                     	;# 
   301     049B                     	;# 
   302     049C                     	;# 
   303     049D                     	;# 
   304     050C                     	;# 
   305     050C                     	;# 
   306     050D                     	;# 
   307     050E                     	;# 
   308     050F                     	;# 
   309     050F                     	;# 
   310     0510                     	;# 
   311     0511                     	;# 
   312     0512                     	;# 
   313     0512                     	;# 
   314     0513                     	;# 
   315     0514                     	;# 
   316     0515                     	;# 
   317     0515                     	;# 
   318     0516                     	;# 
   319     0517                     	;# 
   320     0518                     	;# 
   321     0519                     	;# 
   322     051A                     	;# 
   323     051B                     	;# 
   324     051C                     	;# 
   325     051D                     	;# 
   326     058C                     	;# 
   327     058C                     	;# 
   328     058D                     	;# 
   329     058E                     	;# 
   330     058F                     	;# 
   331     058F                     	;# 
   332     0590                     	;# 
   333     0591                     	;# 
   334     0592                     	;# 
   335     0593                     	;# 
   336     060C                     	;# 
   337     060D                     	;# 
   338     060E                     	;# 
   339     060F                     	;# 
   340     0610                     	;# 
   341     0611                     	;# 
   342     0612                     	;# 
   343     0613                     	;# 
   344     0614                     	;# 
   345     0616                     	;# 
   346     0617                     	;# 
   347     0618                     	;# 
   348     0619                     	;# 
   349     061A                     	;# 
   350     061B                     	;# 
   351     061C                     	;# 
   352     061D                     	;# 
   353     061E                     	;# 
   354     068C                     	;# 
   355     068D                     	;# 
   356     068E                     	;# 
   357     068F                     	;# 
   358     0690                     	;# 
   359     0691                     	;# 
   360     0692                     	;# 
   361     0693                     	;# 
   362     0694                     	;# 
   363     070C                     	;# 
   364     070D                     	;# 
   365     070E                     	;# 
   366     070F                     	;# 
   367     0710                     	;# 
   368     0711                     	;# 
   369     0712                     	;# 
   370     0713                     	;# 
   371     0714                     	;# 
   372     0716                     	;# 
   373     0717                     	;# 
   374     0718                     	;# 
   375     0719                     	;# 
   376     071A                     	;# 
   377     071B                     	;# 
   378     071C                     	;# 
   379     071D                     	;# 
   380     071E                     	;# 
   381     0796                     	;# 
   382     0797                     	;# 
   383     0798                     	;# 
   384     0799                     	;# 
   385     079A                     	;# 
   386     079B                     	;# 
   387     080C                     	;# 
   388     080D                     	;# 
   389     080E                     	;# 
   390     080F                     	;# 
   391     0810                     	;# 
   392     0811                     	;# 
   393     0812                     	;# 
   394     0813                     	;# 
   395     0814                     	;# 
   396     081A                     	;# 
   397     081B                     	;# 
   398     081C                     	;# 
   399     081D                     	;# 
   400     081E                     	;# 
   401     081F                     	;# 
   402     088C                     	;# 
   403     088D                     	;# 
   404     088E                     	;# 
   405     088F                     	;# 
   406     0890                     	;# 
   407     0891                     	;# 
   408     0892                     	;# 
   409     0893                     	;# 
   410     0895                     	;# 
   411     0896                     	;# 
   412     0897                     	;# 
   413     0898                     	;# 
   414     0899                     	;# 
   415     089A                     	;# 
   416     089B                     	;# 
   417     090C                     	;# 
   418     090E                     	;# 
   419     090F                     	;# 
   420     091F                     	;# 
   421     098F                     	;# 
   422     098F                     	;# 
   423     0990                     	;# 
   424     0991                     	;# 
   425     0992                     	;# 
   426     0993                     	;# 
   427     0994                     	;# 
   428     0995                     	;# 
   429     0996                     	;# 
   430     0997                     	;# 
   431     1E0F                     	;# 
   432     1E10                     	;# 
   433     1E11                     	;# 
   434     1E12                     	;# 
   435     1E13                     	;# 
   436     1E14                     	;# 
   437     1E15                     	;# 
   438     1E16                     	;# 
   439     1E17                     	;# 
   440     1E18                     	;# 
   441     1E19                     	;# 
   442     1E1A                     	;# 
   443     1E1B                     	;# 
   444     1E1C                     	;# 
   445     1E1D                     	;# 
   446     1E1E                     	;# 
   447     1E1F                     	;# 
   448     1E20                     	;# 
   449     1E21                     	;# 
   450     1E22                     	;# 
   451     1E23                     	;# 
   452     1E24                     	;# 
   453     1E25                     	;# 
   454     1E26                     	;# 
   455     1E27                     	;# 
   456     1E28                     	;# 
   457     1E29                     	;# 
   458     1E2A                     	;# 
   459     1E2B                     	;# 
   460     1E2C                     	;# 
   461     1E2D                     	;# 
   462     1E2E                     	;# 
   463     1E2F                     	;# 
   464     1E30                     	;# 
   465     1E31                     	;# 
   466     1E32                     	;# 
   467     1E33                     	;# 
   468     1E34                     	;# 
   469     1E35                     	;# 
   470     1E36                     	;# 
   471     1E37                     	;# 
   472     1E8F                     	;# 
   473     1E90                     	;# 
   474     1E91                     	;# 
   475     1E92                     	;# 
   476     1E93                     	;# 
   477     1E94                     	;# 
   478     1E95                     	;# 
   479     1E96                     	;# 
   480     1E97                     	;# 
   481     1E9C                     	;# 
   482     1E9D                     	;# 
   483     1E9E                     	;# 
   484     1EA1                     	;# 
   485     1EA2                     	;# 
   486     1EA3                     	;# 
   487     1EA4                     	;# 
   488     1EA5                     	;# 
   489     1EA9                     	;# 
   490     1EAA                     	;# 
   491     1EAB                     	;# 
   492     1EAC                     	;# 
   493     1EB1                     	;# 
   494     1EB2                     	;# 
   495     1EB3                     	;# 
   496     1EB8                     	;# 
   497     1EB9                     	;# 
   498     1EBA                     	;# 
   499     1EBB                     	;# 
   500     1EBC                     	;# 
   501     1EBD                     	;# 
   502     1EBE                     	;# 
   503     1EC3                     	;# 
   504     1EC5                     	;# 
   505     1EC6                     	;# 
   506     1EC7                     	;# 
   507     1EC8                     	;# 
   508     1EC9                     	;# 
   509     1ECA                     	;# 
   510     1ECB                     	;# 
   511     1ECC                     	;# 
   512     1F10                     	;# 
   513     1F11                     	;# 
   514     1F12                     	;# 
   515     1F13                     	;# 
   516     1F14                     	;# 
   517     1F15                     	;# 
   518     1F16                     	;# 
   519     1F17                     	;# 
   520     1F18                     	;# 
   521     1F19                     	;# 
   522     1F1A                     	;# 
   523     1F1B                     	;# 
   524     1F1C                     	;# 
   525     1F1D                     	;# 
   526     1F1E                     	;# 
   527     1F1F                     	;# 
   528     1F20                     	;# 
   529     1F21                     	;# 
   530     1F22                     	;# 
   531     1F23                     	;# 
   532     1F24                     	;# 
   533     1F25                     	;# 
   534     1F26                     	;# 
   535     1F27                     	;# 
   536     1F28                     	;# 
   537     1F29                     	;# 
   538     1F2A                     	;# 
   539     1F2B                     	;# 
   540     1F2C                     	;# 
   541     1F2D                     	;# 
   542     1F2E                     	;# 
   543     1F2F                     	;# 
   544     1F30                     	;# 
   545     1F31                     	;# 
   546     1F32                     	;# 
   547     1F38                     	;# 
   548     1F39                     	;# 
   549     1F3A                     	;# 
   550     1F3B                     	;# 
   551     1F3C                     	;# 
   552     1F3D                     	;# 
   553     1F3E                     	;# 
   554     1F3F                     	;# 
   555     1F40                     	;# 
   556     1F41                     	;# 
   557     1F43                     	;# 
   558     1F44                     	;# 
   559     1F45                     	;# 
   560     1F46                     	;# 
   561     1F47                     	;# 
   562     1F48                     	;# 
   563     1F49                     	;# 
   564     1F4A                     	;# 
   565     1F4B                     	;# 
   566     1F4C                     	;# 
   567     1F4E                     	;# 
   568     1F4F                     	;# 
   569     1F50                     	;# 
   570     1F51                     	;# 
   571     1F52                     	;# 
   572     1F53                     	;# 
   573     1F54                     	;# 
   574     1F55                     	;# 
   575     1F56                     	;# 
   576     1F57                     	;# 
   577     1F59                     	;# 
   578     1F5A                     	;# 
   579     1F5B                     	;# 
   580     1F5C                     	;# 
   581     1F5D                     	;# 
   582     1F61                     	;# 
   583     1F62                     	;# 
   584     1F64                     	;# 
   585     1F65                     	;# 
   586     1F66                     	;# 
   587     1F67                     	;# 
   588     1F68                     	;# 
   589     1F69                     	;# 
   590     1F6A                     	;# 
   591     1F6B                     	;# 
   592     1F6C                     	;# 
   593     1F6D                     	;# 
   594     1FE4                     	;# 
   595     1FE5                     	;# 
   596     1FE6                     	;# 
   597     1FE7                     	;# 
   598     1FE8                     	;# 
   599     1FE9                     	;# 
   600     1FEA                     	;# 
   601     1FEB                     	;# 
   602     1FED                     	;# 
   603     1FEE                     	;# 
   604     1FEF                     	;# 
   605     0000                     	;# 
   606     0001                     	;# 
   607     0002                     	;# 
   608     0003                     	;# 
   609     0004                     	;# 
   610     0005                     	;# 
   611     0006                     	;# 
   612     0007                     	;# 
   613     0008                     	;# 
   614     0009                     	;# 
   615     000A                     	;# 
   616     000B                     	;# 
   617     000C                     	;# 
   618     000D                     	;# 
   619     000E                     	;# 
   620     000F                     	;# 
   621     0010                     	;# 
   622     0011                     	;# 
   623     0012                     	;# 
   624     0013                     	;# 
   625     0014                     	;# 
   626     0015                     	;# 
   627     0016                     	;# 
   628     0017                     	;# 
   629     0018                     	;# 
   630     0019                     	;# 
   631     001A                     	;# 
   632     001C                     	;# 
   633     001C                     	;# 
   634     001D                     	;# 
   635     001D                     	;# 
   636     001E                     	;# 
   637     001F                     	;# 
   638     008C                     	;# 
   639     008C                     	;# 
   640     008D                     	;# 
   641     008E                     	;# 
   642     008E                     	;# 
   643     008F                     	;# 
   644     0090                     	;# 
   645     0090                     	;# 
   646     0091                     	;# 
   647     0093                     	;# 
   648     0094                     	;# 
   649     0095                     	;# 
   650     0096                     	;# 
   651     0097                     	;# 
   652     0098                     	;# 
   653     0099                     	;# 
   654     009A                     	;# 
   655     009B                     	;# 
   656     009C                     	;# 
   657     009D                     	;# 
   658     009E                     	;# 
   659     010C                     	;# 
   660     010D                     	;# 
   661     010E                     	;# 
   662     010E                     	;# 
   663     010F                     	;# 
   664     0110                     	;# 
   665     0110                     	;# 
   666     0111                     	;# 
   667     0112                     	;# 
   668     0112                     	;# 
   669     0113                     	;# 
   670     0114                     	;# 
   671     0114                     	;# 
   672     0115                     	;# 
   673     0116                     	;# 
   674     0116                     	;# 
   675     0117                     	;# 
   676     0119                     	;# 
   677     0119                     	;# 
   678     0119                     	;# 
   679     011A                     	;# 
   680     011A                     	;# 
   681     011A                     	;# 
   682     011B                     	;# 
   683     011B                     	;# 
   684     011B                     	;# 
   685     011B                     	;# 
   686     011B                     	;# 
   687     011C                     	;# 
   688     011C                     	;# 
   689     011C                     	;# 
   690     011D                     	;# 
   691     011D                     	;# 
   692     011D                     	;# 
   693     011E                     	;# 
   694     011E                     	;# 
   695     011E                     	;# 
   696     011F                     	;# 
   697     011F                     	;# 
   698     011F                     	;# 
   699     011F                     	;# 
   700     011F                     	;# 
   701     018C                     	;# 
   702     018D                     	;# 
   703     018E                     	;# 
   704     018F                     	;# 
   705     0190                     	;# 
   706     0191                     	;# 
   707     0192                     	;# 
   708     0196                     	;# 
   709     0197                     	;# 
   710     0198                     	;# 
   711     0199                     	;# 
   712     019A                     	;# 
   713     019B                     	;# 
   714     019C                     	;# 
   715     020C                     	;# 
   716     020C                     	;# 
   717     020D                     	;# 
   718     020E                     	;# 
   719     020F                     	;# 
   720     020F                     	;# 
   721     0210                     	;# 
   722     0210                     	;# 
   723     0211                     	;# 
   724     0211                     	;# 
   725     0212                     	;# 
   726     0212                     	;# 
   727     0213                     	;# 
   728     0214                     	;# 
   729     0215                     	;# 
   730     0215                     	;# 
   731     0216                     	;# 
   732     0216                     	;# 
   733     0217                     	;# 
   734     0217                     	;# 
   735     0218                     	;# 
   736     0218                     	;# 
   737     0219                     	;# 
   738     021A                     	;# 
   739     021B                     	;# 
   740     021B                     	;# 
   741     021C                     	;# 
   742     021C                     	;# 
   743     021D                     	;# 
   744     021D                     	;# 
   745     021E                     	;# 
   746     021F                     	;# 
   747     028C                     	;# 
   748     028C                     	;# 
   749     028D                     	;# 
   750     028D                     	;# 
   751     028E                     	;# 
   752     028F                     	;# 
   753     0290                     	;# 
   754     0290                     	;# 
   755     0291                     	;# 
   756     0292                     	;# 
   757     0292                     	;# 
   758     0293                     	;# 
   759     0293                     	;# 
   760     0294                     	;# 
   761     0295                     	;# 
   762     0296                     	;# 
   763     0296                     	;# 
   764     0297                     	;# 
   765     0298                     	;# 
   766     0298                     	;# 
   767     0299                     	;# 
   768     0299                     	;# 
   769     029A                     	;# 
   770     029B                     	;# 
   771     029C                     	;# 
   772     029C                     	;# 
   773     029D                     	;# 
   774     030C                     	;# 
   775     030C                     	;# 
   776     030D                     	;# 
   777     030E                     	;# 
   778     030F                     	;# 
   779     0310                     	;# 
   780     0310                     	;# 
   781     0311                     	;# 
   782     0312                     	;# 
   783     0313                     	;# 
   784     0314                     	;# 
   785     0314                     	;# 
   786     0315                     	;# 
   787     0316                     	;# 
   788     0317                     	;# 
   789     0318                     	;# 
   790     0318                     	;# 
   791     0319                     	;# 
   792     031A                     	;# 
   793     031B                     	;# 
   794     031C                     	;# 
   795     031C                     	;# 
   796     031D                     	;# 
   797     031E                     	;# 
   798     031F                     	;# 
   799     038C                     	;# 
   800     038C                     	;# 
   801     038D                     	;# 
   802     038E                     	;# 
   803     0390                     	;# 
   804     0390                     	;# 
   805     0391                     	;# 
   806     0392                     	;# 
   807     040C                     	;# 
   808     040D                     	;# 
   809     040E                     	;# 
   810     040F                     	;# 
   811     0410                     	;# 
   812     0411                     	;# 
   813     0416                     	;# 
   814     0416                     	;# 
   815     0417                     	;# 
   816     0418                     	;# 
   817     0418                     	;# 
   818     0419                     	;# 
   819     041A                     	;# 
   820     041A                     	;# 
   821     041B                     	;# 
   822     041C                     	;# 
   823     041C                     	;# 
   824     041D                     	;# 
   825     041E                     	;# 
   826     041F                     	;# 
   827     048C                     	;# 
   828     048C                     	;# 
   829     048D                     	;# 
   830     048E                     	;# 
   831     048F                     	;# 
   832     048F                     	;# 
   833     0490                     	;# 
   834     0491                     	;# 
   835     0492                     	;# 
   836     0492                     	;# 
   837     0493                     	;# 
   838     0494                     	;# 
   839     0495                     	;# 
   840     0495                     	;# 
   841     0496                     	;# 
   842     0497                     	;# 
   843     0498                     	;# 
   844     0499                     	;# 
   845     049A                     	;# 
   846     049B                     	;# 
   847     049C                     	;# 
   848     049D                     	;# 
   849     050C                     	;# 
   850     050C                     	;# 
   851     050D                     	;# 
   852     050E                     	;# 
   853     050F                     	;# 
   854     050F                     	;# 
   855     0510                     	;# 
   856     0511                     	;# 
   857     0512                     	;# 
   858     0512                     	;# 
   859     0513                     	;# 
   860     0514                     	;# 
   861     0515                     	;# 
   862     0515                     	;# 
   863     0516                     	;# 
   864     0517                     	;# 
   865     0518                     	;# 
   866     0519                     	;# 
   867     051A                     	;# 
   868     051B                     	;# 
   869     051C                     	;# 
   870     051D                     	;# 
   871     058C                     	;# 
   872     058C                     	;# 
   873     058D                     	;# 
   874     058E                     	;# 
   875     058F                     	;# 
   876     058F                     	;# 
   877     0590                     	;# 
   878     0591                     	;# 
   879     0592                     	;# 
   880     0593                     	;# 
   881     060C                     	;# 
   882     060D                     	;# 
   883     060E                     	;# 
   884     060F                     	;# 
   885     0610                     	;# 
   886     0611                     	;# 
   887     0612                     	;# 
   888     0613                     	;# 
   889     0614                     	;# 
   890     0616                     	;# 
   891     0617                     	;# 
   892     0618                     	;# 
   893     0619                     	;# 
   894     061A                     	;# 
   895     061B                     	;# 
   896     061C                     	;# 
   897     061D                     	;# 
   898     061E                     	;# 
   899     068C                     	;# 
   900     068D                     	;# 
   901     068E                     	;# 
   902     068F                     	;# 
   903     0690                     	;# 
   904     0691                     	;# 
   905     0692                     	;# 
   906     0693                     	;# 
   907     0694                     	;# 
   908     070C                     	;# 
   909     070D                     	;# 
   910     070E                     	;# 
   911     070F                     	;# 
   912     0710                     	;# 
   913     0711                     	;# 
   914     0712                     	;# 
   915     0713                     	;# 
   916     0714                     	;# 
   917     0716                     	;# 
   918     0717                     	;# 
   919     0718                     	;# 
   920     0719                     	;# 
   921     071A                     	;# 
   922     071B                     	;# 
   923     071C                     	;# 
   924     071D                     	;# 
   925     071E                     	;# 
   926     0796                     	;# 
   927     0797                     	;# 
   928     0798                     	;# 
   929     0799                     	;# 
   930     079A                     	;# 
   931     079B                     	;# 
   932     080C                     	;# 
   933     080D                     	;# 
   934     080E                     	;# 
   935     080F                     	;# 
   936     0810                     	;# 
   937     0811                     	;# 
   938     0812                     	;# 
   939     0813                     	;# 
   940     0814                     	;# 
   941     081A                     	;# 
   942     081B                     	;# 
   943     081C                     	;# 
   944     081D                     	;# 
   945     081E                     	;# 
   946     081F                     	;# 
   947     088C                     	;# 
   948     088D                     	;# 
   949     088E                     	;# 
   950     088F                     	;# 
   951     0890                     	;# 
   952     0891                     	;# 
   953     0892                     	;# 
   954     0893                     	;# 
   955     0895                     	;# 
   956     0896                     	;# 
   957     0897                     	;# 
   958     0898                     	;# 
   959     0899                     	;# 
   960     089A                     	;# 
   961     089B                     	;# 
   962     090C                     	;# 
   963     090E                     	;# 
   964     090F                     	;# 
   965     091F                     	;# 
   966     098F                     	;# 
   967     098F                     	;# 
   968     0990                     	;# 
   969     0991                     	;# 
   970     0992                     	;# 
   971     0993                     	;# 
   972     0994                     	;# 
   973     0995                     	;# 
   974     0996                     	;# 
   975     0997                     	;# 
   976     1E0F                     	;# 
   977     1E10                     	;# 
   978     1E11                     	;# 
   979     1E12                     	;# 
   980     1E13                     	;# 
   981     1E14                     	;# 
   982     1E15                     	;# 
   983     1E16                     	;# 
   984     1E17                     	;# 
   985     1E18                     	;# 
   986     1E19                     	;# 
   987     1E1A                     	;# 
   988     1E1B                     	;# 
   989     1E1C                     	;# 
   990     1E1D                     	;# 
   991     1E1E                     	;# 
   992     1E1F                     	;# 
   993     1E20                     	;# 
   994     1E21                     	;# 
   995     1E22                     	;# 
   996     1E23                     	;# 
   997     1E24                     	;# 
   998     1E25                     	;# 
   999     1E26                     	;# 
  1000     1E27                     	;# 
  1001     1E28                     	;# 
  1002     1E29                     	;# 
  1003     1E2A                     	;# 
  1004     1E2B                     	;# 
  1005     1E2C                     	;# 
  1006     1E2D                     	;# 
  1007     1E2E                     	;# 
  1008     1E2F                     	;# 
  1009     1E30                     	;# 
  1010     1E31                     	;# 
  1011     1E32                     	;# 
  1012     1E33                     	;# 
  1013     1E34                     	;# 
  1014     1E35                     	;# 
  1015     1E36                     	;# 
  1016     1E37                     	;# 
  1017     1E8F                     	;# 
  1018     1E90                     	;# 
  1019     1E91                     	;# 
  1020     1E92                     	;# 
  1021     1E93                     	;# 
  1022     1E94                     	;# 
  1023     1E95                     	;# 
  1024     1E96                     	;# 
  1025     1E97                     	;# 
  1026     1E9C                     	;# 
  1027     1E9D                     	;# 
  1028     1E9E                     	;# 
  1029     1EA1                     	;# 
  1030     1EA2                     	;# 
  1031     1EA3                     	;# 
  1032     1EA4                     	;# 
  1033     1EA5                     	;# 
  1034     1EA9                     	;# 
  1035     1EAA                     	;# 
  1036     1EAB                     	;# 
  1037     1EAC                     	;# 
  1038     1EB1                     	;# 
  1039     1EB2                     	;# 
  1040     1EB3                     	;# 
  1041     1EB8                     	;# 
  1042     1EB9                     	;# 
  1043     1EBA                     	;# 
  1044     1EBB                     	;# 
  1045     1EBC                     	;# 
  1046     1EBD                     	;# 
  1047     1EBE                     	;# 
  1048     1EC3                     	;# 
  1049     1EC5                     	;# 
  1050     1EC6                     	;# 
  1051     1EC7                     	;# 
  1052     1EC8                     	;# 
  1053     1EC9                     	;# 
  1054     1ECA                     	;# 
  1055     1ECB                     	;# 
  1056     1ECC                     	;# 
  1057     1F10                     	;# 
  1058     1F11                     	;# 
  1059     1F12                     	;# 
  1060     1F13                     	;# 
  1061     1F14                     	;# 
  1062     1F15                     	;# 
  1063     1F16                     	;# 
  1064     1F17                     	;# 
  1065     1F18                     	;# 
  1066     1F19                     	;# 
  1067     1F1A                     	;# 
  1068     1F1B                     	;# 
  1069     1F1C                     	;# 
  1070     1F1D                     	;# 
  1071     1F1E                     	;# 
  1072     1F1F                     	;# 
  1073     1F20                     	;# 
  1074     1F21                     	;# 
  1075     1F22                     	;# 
  1076     1F23                     	;# 
  1077     1F24                     	;# 
  1078     1F25                     	;# 
  1079     1F26                     	;# 
  1080     1F27                     	;# 
  1081     1F28                     	;# 
  1082     1F29                     	;# 
  1083     1F2A                     	;# 
  1084     1F2B                     	;# 
  1085     1F2C                     	;# 
  1086     1F2D                     	;# 
  1087     1F2E                     	;# 
  1088     1F2F                     	;# 
  1089     1F30                     	;# 
  1090     1F31                     	;# 
  1091     1F32                     	;# 
  1092     1F38                     	;# 
  1093     1F39                     	;# 
  1094     1F3A                     	;# 
  1095     1F3B                     	;# 
  1096     1F3C                     	;# 
  1097     1F3D                     	;# 
  1098     1F3E                     	;# 
  1099     1F3F                     	;# 
  1100     1F40                     	;# 
  1101     1F41                     	;# 
  1102     1F43                     	;# 
  1103     1F44                     	;# 
  1104     1F45                     	;# 
  1105     1F46                     	;# 
  1106     1F47                     	;# 
  1107     1F48                     	;# 
  1108     1F49                     	;# 
  1109     1F4A                     	;# 
  1110     1F4B                     	;# 
  1111     1F4C                     	;# 
  1112     1F4E                     	;# 
  1113     1F4F                     	;# 
  1114     1F50                     	;# 
  1115     1F51                     	;# 
  1116     1F52                     	;# 
  1117     1F53                     	;# 
  1118     1F54                     	;# 
  1119     1F55                     	;# 
  1120     1F56                     	;# 
  1121     1F57                     	;# 
  1122     1F59                     	;# 
  1123     1F5A                     	;# 
  1124     1F5B                     	;# 
  1125     1F5C                     	;# 
  1126     1F5D                     	;# 
  1127     1F61                     	;# 
  1128     1F62                     	;# 
  1129     1F64                     	;# 
  1130     1F65                     	;# 
  1131     1F66                     	;# 
  1132     1F67                     	;# 
  1133     1F68                     	;# 
  1134     1F69                     	;# 
  1135     1F6A                     	;# 
  1136     1F6B                     	;# 
  1137     1F6C                     	;# 
  1138     1F6D                     	;# 
  1139     1FE4                     	;# 
  1140     1FE5                     	;# 
  1141     1FE6                     	;# 
  1142     1FE7                     	;# 
  1143     1FE8                     	;# 
  1144     1FE9                     	;# 
  1145     1FEA                     	;# 
  1146     1FEB                     	;# 
  1147     1FED                     	;# 
  1148     1FEE                     	;# 
  1149     1FEF                     	;# 
  1150                           
  1151                           	psect	idataCOMMON
  1152     05EF                     __pidataCOMMON:
  1153                           
  1154                           ;initializer for _analog_choice
  1155     05EF  3403               	retlw	3
  1156     05F0  3400               	retlw	0
  1157                           
  1158                           	psect	stringtext1
  1159     0800                     __pstringtext1:
  1160     0800                     keypad_get_key@keypad:
  1161     0800  3431               	retlw	49
  1162     0801  3432               	retlw	50
  1163     0802  3433               	retlw	51
  1164     0803  3441               	retlw	65
  1165     0804  3434               	retlw	52
  1166     0805  3435               	retlw	53
  1167     0806  3436               	retlw	54
  1168     0807  3442               	retlw	66
  1169     0808  3437               	retlw	55
  1170     0809  3438               	retlw	56
  1171     080A  3439               	retlw	57
  1172     080B  3443               	retlw	67
  1173     080C  342A               	retlw	42
  1174     080D  3430               	retlw	48
  1175     080E  3423               	retlw	35
  1176     080F  3444               	retlw	68
  1177     0810                     __end_ofkeypad_get_key@keypad:
  1178     000D                     _PORTBbits	set	13
  1179     0010                     _PORTEbits	set	16
  1180     000E                     _PORTC	set	14
  1181     000E                     _PORTCbits	set	14
  1182     0013                     _TRISCbits	set	19
  1183     0015                     _TRISEbits	set	21
  1184     000F                     _PORTD	set	15
  1185     000C                     _PORTAbits	set	12
  1186     000F                     _PORTDbits	set	15
  1187     0014                     _TRISD	set	20
  1188     0011                     _TRISA	set	17
  1189     007F                     _RD7	set	127
  1190     007E                     _RD6	set	126
  1191     007D                     _RD5	set	125
  1192     007C                     _RD4	set	124
  1193     007B                     _RD3	set	123
  1194     007A                     _RD2	set	122
  1195     0079                     _RD1	set	121
  1196     0078                     _RD0	set	120
  1197     008C                     _ADRESL	set	140
  1198     008D                     _ADRESH	set	141
  1199     0093                     _ADCON0bits	set	147
  1200     009E                     _ADPCH	set	158
  1201     0093                     _ADCON0	set	147
  1202     009D                     _ADACQ	set	157
  1203     0098                     _ADCLK	set	152
  1204     009A                     _ADREF	set	154
  1205     1F5A                     _WPUD	set	8026
  1206     1F59                     _ANSELD	set	8025
  1207     1F38                     _ANSELA	set	7992
  1208     0810                     STR_1:
  1209     0810  3442               	retlw	66	;'B'
  1210     0811  3475               	retlw	117	;'u'
  1211     0812  3474               	retlw	116	;'t'
  1212     0813  3474               	retlw	116	;'t'
  1213     0814  346F               	retlw	111	;'o'
  1214     0815  346E               	retlw	110	;'n'
  1215     0816  3420               	retlw	32	;' '
  1216     0817  3450               	retlw	80	;'P'
  1217     0818  3472               	retlw	114	;'r'
  1218     0819  3465               	retlw	101	;'e'
  1219     081A  3473               	retlw	115	;'s'
  1220     081B  3473               	retlw	115	;'s'
  1221     081C  3465               	retlw	101	;'e'
  1222     081D  3464               	retlw	100	;'d'
  1223     081E  3400               	retlw	0
  1224                           
  1225                           	psect	stringtext2
  1226     081F                     __pstringtext2:
  1227     081F                     STR_2:
  1228     081F  3425               	retlw	37	;'%'
  1229     0820  3433               	retlw	51	;'3'
  1230     0821  3475               	retlw	117	;'u'
  1231     0822  3425               	retlw	37	;'%'
  1232     0823  3425               	retlw	37	;'%'
  1233     0824  3400               	retlw	0
  1234                           
  1235                           	psect	stringtext3
  1236     0825                     __pstringtext3:
  1237     0825                     STR_3:
  1238     0825  3425               	retlw	37	;'%'
  1239     0826  342E               	retlw	46	;'.'
  1240     0827  3432               	retlw	50	;'2'
  1241     0828  3466               	retlw	102	;'f'
  1242     0829  3443               	retlw	67	;'C'
  1243     082A  3400               	retlw	0
  1244                           
  1245                           	psect	stringtext4
  1246     0000                     __pstringtext4:
  1247     081F                     
  1248                           	psect	cinit
  1249     07EF                     start_initialization:	
  1250                           ; #config settings
  1251                           
  1252     07EF                     __initialization:
  1253                           
  1254                           ; Initialize objects allocated to COMMON
  1255     07EF  3185  25EF  3187   	fcall	__pidataCOMMON	;fetch initializer
  1256     07F2  00FB               	movwf	__pdataCOMMON& (0+127)
  1257     07F3  3185  25F0  3187   	fcall	__pidataCOMMON+1	;fetch initializer
  1258     07F6  00FC               	movwf	(__pdataCOMMON+1)& (0+127)
  1259                           
  1260                           ; Clear objects allocated to COMMON
  1261     07F7  01F7               	clrf	__pbssCOMMON& (0+127)
  1262     07F8  01F8               	clrf	(__pbssCOMMON+1)& (0+127)
  1263     07F9  01F9               	clrf	(__pbssCOMMON+2)& (0+127)
  1264     07FA  01FA               	clrf	(__pbssCOMMON+3)& (0+127)
  1265                           
  1266                           ; Clear objects allocated to BANK0
  1267     07FB  01A0               	clrf	__pbssBANK0& (0+127)
  1268     07FC  01A1               	clrf	(__pbssBANK0+1)& (0+127)
  1269     07FD                     end_of_initialization:	
  1270                           ;End of C runtime variable initialization code
  1271                           
  1272     07FD                     __end_of__initialization:
  1273     07FD  0140               	movlb	0
  1274     07FE  3186  2E96         	ljmp	_main	;jump to C main() function
  1275                           
  1276                           	psect	bssCOMMON
  1277     0077                     __pbssCOMMON:
  1278     0077                     _timerCount:
  1279     0077                     	ds	2
  1280     0079                     _oxygenLevel:
  1281     0079                     	ds	2
  1282                           
  1283                           	psect	dataCOMMON
  1284     007B                     __pdataCOMMON:
  1285     007B                     _analog_choice:
  1286     007B                     	ds	2
  1287                           
  1288                           	psect	bssBANK0
  1289     0020                     __pbssBANK0:
  1290     0020                     _temperature:
  1291     0020                     	ds	2
  1292                           
  1293                           	psect	cstackCOMMON
  1294     0070                     __pcstackCOMMON:
  1295     0070                     ?_LCD_Init:
  1296     0070                     ?_ADC_Init:	
  1297                           ; 1 bytes @ 0x0
  1298                           
  1299     0070                     ??_ADC_Init:	
  1300                           ; 1 bytes @ 0x0
  1301                           
  1302     0070                     ?_LCD_Clear:	
  1303                           ; 1 bytes @ 0x0
  1304                           
  1305     0070                     ?_LCD_Cmd:	
  1306                           ; 1 bytes @ 0x0
  1307                           
  1308     0070                     ??_LCD_Cmd:	
  1309                           ; 1 bytes @ 0x0
  1310                           
  1311     0070                     ?_keypad_scanner:	
  1312                           ; 1 bytes @ 0x0
  1313                           
  1314     0070                     ??_keypad_scanner:	
  1315                           ; 1 bytes @ 0x0
  1316                           
  1317     0070                     ?_LCD_Char:	
  1318                           ; 1 bytes @ 0x0
  1319                           
  1320     0070                     ??_LCD_Char:	
  1321                           ; 1 bytes @ 0x0
  1322                           
  1323     0070                     ?_main:	
  1324                           ; 1 bytes @ 0x0
  1325                           
  1326     0070                     ?_ADC_Read:	
  1327                           ; 1 bytes @ 0x0
  1328                           
  1329                           
  1330                           ; 2 bytes @ 0x0
  1331     0070                     	ds	2
  1332     0072                     ??_ADC_Read:
  1333     0072                     LCD_Cmd@command:	
  1334                           ; 1 bytes @ 0x2
  1335                           
  1336     0072                     LCD_Char@data:	
  1337                           ; 1 bytes @ 0x2
  1338                           
  1339     0072                     ADC_Read@result:	
  1340                           ; 1 bytes @ 0x2
  1341                           
  1342                           
  1343                           ; 2 bytes @ 0x2
  1344     0072                     	ds	1
  1345     0073                     ??_LCD_Init:
  1346     0073                     ??_LCD_Clear:	
  1347                           ; 1 bytes @ 0x3
  1348                           
  1349     0073                     ?_LCD_String:	
  1350                           ; 1 bytes @ 0x3
  1351                           
  1352     0073                     LCD_String@text:	
  1353                           ; 1 bytes @ 0x3
  1354                           
  1355                           
  1356                           ; 2 bytes @ 0x3
  1357     0073                     	ds	1
  1358     0074                     ADC_Read@channel:
  1359                           
  1360                           ; 1 bytes @ 0x4
  1361     0074                     	ds	1
  1362     0075                     ??_LCD_String:
  1363                           
  1364                           ; 1 bytes @ 0x5
  1365     0075                     	ds	1
  1366     0076                     ??_main:
  1367     0076                     main@key:	
  1368                           ; 1 bytes @ 0x6
  1369                           
  1370                           
  1371                           ; 1 bytes @ 0x6
  1372     0076                     	ds	1
  1373                           
  1374                           	psect	maintext
  1375     0696                     __pmaintext:	
  1376 ;;
  1377 ;;Main: autosize = 0, tempsize = 0, incstack = 0, save=0
  1378 ;;
  1379 ;; *************** function _main *****************
  1380 ;; Defined at:
  1381 ;;		line 104 in file "newmain.c"
  1382 ;; Parameters:    Size  Location     Type
  1383 ;;		None
  1384 ;; Auto vars:     Size  Location     Type
  1385 ;;  key             1    6[COMMON] unsigned char 
  1386 ;; Return value:  Size  Location     Type
  1387 ;;                  1    wreg      void 
  1388 ;; Registers used:
  1389 ;;		wreg, fsr0l, fsr0h, status,2, status,0, pclath, cstack
  1390 ;; Tracked objects:
  1391 ;;		On entry : B3F/0
  1392 ;;		On exit  : 0/0
  1393 ;;		Unchanged: 0/0
  1394 ;; Data sizes:     COMMON   BANK0   BANK1   BANK2   BANK3   BANK4   BANK5   BANK6   BANK7   BANK8   BANK9  BANK10  BANK1
      +1  BANK12  BANK13  BANK14  BANK15  BANK16  BANK17  BANK18  BANK19  BANK20  BANK21  BANK22  BANK23  BANK24  BANK25  BANK2
      +6  BANK27  BANK28  BANK29  BANK30  BANK31  BANK32  BANK33  BANK34  BANK35  BANK36  BANK37  BANK38  BANK39  BANK40  BANK4
      +1  BANK42  BANK43  BANK44  BANK45  BANK46  BANK47  BANK48  BANK49  BANK50
  1395 ;;      Params:         0       0       0       0       0       0       0       0       0       0       0       0       
      +0       0       0       0       0       0       0       0       0       0       0       0       0       0       0       
      +0       0       0       0       0       0       0       0       0       0       0       0       0       0       0       
      +0       0       0       0       0       0       0       0       0       0
  1396 ;;      Locals:         1       0       0       0       0       0       0       0       0       0       0       0       
      +0       0       0       0       0       0       0       0       0       0       0       0       0       0       0       
      +0       0       0       0       0       0       0       0       0       0       0       0       0       0       0       
      +0       0       0       0       0       0       0       0       0       0
  1397 ;;      Temps:          0       0       0       0       0       0       0       0       0       0       0       0       
      +0       0       0       0       0       0       0       0       0       0       0       0       0       0       0       
      +0       0       0       0       0       0       0       0       0       0       0       0       0       0       0       
      +0       0       0       0       0       0       0       0       0       0
  1398 ;;      Totals:         1       0       0       0       0       0       0       0       0       0       0       0       
      +0       0       0       0       0       0       0       0       0       0       0       0       0       0       0       
      +0       0       0       0       0       0       0       0       0       0       0       0       0       0       0       
      +0       0       0       0       0       0       0       0       0       0
  1399 ;;Total ram usage:        1 bytes
  1400 ;; Hardware stack levels required when called: 2
  1401 ;; This function calls:
  1402 ;;		_ADC_Init
  1403 ;;		_ADC_Read
  1404 ;;		_LCD_Char
  1405 ;;		_LCD_Clear
  1406 ;;		_LCD_Cmd
  1407 ;;		_LCD_Init
  1408 ;;		_LCD_String
  1409 ;;		_keypad_scanner
  1410 ;; This function is called by:
  1411 ;;		Startup code after reset
  1412 ;; This function uses a non-reentrant model
  1413 ;;
  1414                           
  1415     0696                     _main:	
  1416                           ;psect for function _main
  1417                           
  1418     0696                     l1123:	
  1419                           ;incstack = 0
  1420                           ; Regs used in _main: [wreg-fsr0h+status,2+status,0+pclath+cstack]
  1421                           
  1422                           
  1423                           ;newmain.c: 105:     ANSELA = 0b00001000;
  1424     0696  3008               	movlw	8
  1425     0697  017E               	movlb	62	; select bank62
  1426     0698  00B8               	movwf	56	;volatile
  1427                           
  1428                           ;newmain.c: 106:     TRISA = 0b11111111;
  1429     0699  30FF               	movlw	255
  1430     069A  0140               	movlb	0	; select bank0
  1431     069B  0091               	movwf	17	;volatile
  1432     069C                     l1125:
  1433                           
  1434                           ;newmain.c: 108:     LCD_Init();
  1435     069C  3186  2631  3186   	fcall	_LCD_Init
  1436     069F                     l1127:
  1437                           
  1438                           ;newmain.c: 111:     ADC_Init();
  1439     069F  3185  25F9  3186   	fcall	_ADC_Init
  1440     06A2                     l1129:
  1441                           
  1442                           ;newmain.c: 114:     char key;;newmain.c: 119:     ANSELD = 0b00000000;
  1443     06A2  017E               	movlb	62	; select bank62
  1444     06A3  01D9               	clrf	89	;volatile
  1445     06A4                     l1131:
  1446                           
  1447                           ;newmain.c: 120:     TRISD = 0b11111111;
  1448     06A4  30FF               	movlw	255
  1449     06A5  0140               	movlb	0	; select bank0
  1450     06A6  0094               	movwf	20	;volatile
  1451     06A7                     l1133:
  1452                           
  1453                           ;newmain.c: 123:         LCD_Clear();
  1454     06A7  3185  25F1  3186   	fcall	_LCD_Clear
  1455     06AA                     l1135:
  1456                           
  1457                           ;newmain.c: 124:         LCD_Cmd(0xC0);
  1458     06AA  30C0               	movlw	192
  1459     06AB  3186  2652  3186   	fcall	_LCD_Cmd
  1460     06AE                     l1137:
  1461                           
  1462                           ;newmain.c: 126:         if(PORTDbits.RD7==0)
  1463     06AE  0140               	movlb	0	; select bank0
  1464     06AF  1B8F               	btfsc	15,7	;volatile
  1465     06B0  2EB2               	goto	u481
  1466     06B1  2EB3               	goto	u480
  1467     06B2                     u481:
  1468     06B2  2EC3               	goto	l1143
  1469     06B3                     u480:
  1470     06B3                     l1139:
  1471                           
  1472                           ;newmain.c: 127:         {;newmain.c: 128:              _delay((unsigned long)((100)*(10
      +                          000/4000.0)));
  1473     06B3  3053               	movlw	83
  1474     06B4                     u537:
  1475     06B4  0B89               	decfsz	9,f
  1476     06B5  2EB4               	goto	u537
  1477     06B6  0000               	nop
  1478     06B7                     l95:	
  1479                           ;newmain.c: 129:              while(PORTDbits.RD7==0);
  1480                           
  1481     06B7  0140               	movlb	0	; select bank0
  1482     06B8  1F8F               	btfss	15,7	;volatile
  1483     06B9  2EBB               	goto	u491
  1484     06BA  2EBC               	goto	u490
  1485     06BB                     u491:
  1486     06BB  2EB7               	goto	l95
  1487     06BC                     u490:
  1488     06BC                     l1141:
  1489                           
  1490                           ;newmain.c: 130:             LCD_String("Button Pressed");
  1491     06BC  3010               	movlw	low (STR_1| (0+32768))
  1492     06BD  00F3               	movwf	LCD_String@text
  1493     06BE  3088               	movlw	high (STR_1| (0+32768))
  1494     06BF  00F4               	movwf	LCD_String@text+1
  1495     06C0  3186  261A  3186   	fcall	_LCD_String
  1496     06C3                     l1143:
  1497                           
  1498                           ;newmain.c: 132:         key = keypad_scanner();
  1499     06C3  3186  26F1  3186   	fcall	_keypad_scanner
  1500     06C6  00F6               	movwf	main@key
  1501     06C7                     l1145:
  1502                           
  1503                           ;newmain.c: 134:         if (key != '\0') {
  1504     06C7  0876               	movf	main@key,w
  1505     06C8  1903               	btfsc	3,2
  1506     06C9  2ECB               	goto	u501
  1507     06CA  2ECC               	goto	u500
  1508     06CB                     u501:
  1509     06CB  2ED0               	goto	l1149
  1510     06CC                     u500:
  1511     06CC                     l1147:
  1512                           
  1513                           ;newmain.c: 135:             LCD_Char(key);
  1514     06CC  0876               	movf	main@key,w
  1515     06CD  3186  2674  3186   	fcall	_LCD_Char
  1516     06D0                     l1149:
  1517                           
  1518                           ;newmain.c: 137:         if(PORTAbits.RA0 == 0)
  1519     06D0  0140               	movlb	0	; select bank0
  1520     06D1  180C               	btfsc	12,0	;volatile
  1521     06D2  2ED4               	goto	u511
  1522     06D3  2ED5               	goto	u510
  1523     06D4                     u511:
  1524     06D4  2EDA               	goto	l99
  1525     06D5                     u510:
  1526     06D5                     l1151:
  1527                           
  1528                           ;newmain.c: 138:         {;newmain.c: 139:             analog_choice = 3;
  1529     06D5  3003               	movlw	3
  1530     06D6  00FB               	movwf	_analog_choice	;volatile
  1531     06D7  3000               	movlw	0
  1532     06D8  00FC               	movwf	_analog_choice+1	;volatile
  1533                           
  1534                           ;newmain.c: 141:         }
  1535     06D9  2EE2               	goto	l1155
  1536     06DA                     l99:	
  1537                           ;newmain.c: 142:         else if(PORTAbits.RA1 == 0)
  1538                           
  1539     06DA  188C               	btfsc	12,1	;volatile
  1540     06DB  2EDD               	goto	u521
  1541     06DC  2EDE               	goto	u520
  1542     06DD                     u521:
  1543     06DD  2EE2               	goto	l1155
  1544     06DE                     u520:
  1545     06DE                     l1153:
  1546                           
  1547                           ;newmain.c: 143:         {;newmain.c: 144:             analog_choice = 6;
  1548     06DE  3006               	movlw	6
  1549     06DF  00FB               	movwf	_analog_choice	;volatile
  1550     06E0  3000               	movlw	0
  1551     06E1  00FC               	movwf	_analog_choice+1	;volatile
  1552     06E2                     l1155:
  1553                           
  1554                           ;newmain.c: 148:         oxygenLevel = ADC_Read(analog_choice);
  1555     06E2  087B               	movf	_analog_choice,w	;volatile
  1556     06E3  3186  2607  3186   	fcall	_ADC_Read
  1557     06E6  0871               	movf	?_ADC_Read+1,w
  1558     06E7  00FA               	movwf	_oxygenLevel+1	;volatile
  1559     06E8  0870               	movf	?_ADC_Read,w
  1560     06E9  00F9               	movwf	_oxygenLevel	;volatile
  1561     06EA                     l1157:
  1562                           
  1563                           ;newmain.c: 150:         _delay((unsigned long)((100)*(10000/4000.0)));
  1564     06EA  3053               	movlw	83
  1565     06EB                     u547:
  1566     06EB  0B89               	decfsz	9,f
  1567     06EC  2EEB               	goto	u547
  1568     06ED  0000               	nop
  1569     06EE  2EA7               	goto	l1133
  1570     06EF  3180  2802         	ljmp	start
  1571     06F1                     __end_of_main:
  1572                           
  1573                           	psect	text1
  1574     06F1                     __ptext1:	
  1575 ;; *************** function _keypad_scanner *****************
  1576 ;; Defined at:
  1577 ;;		line 163 in file "newmain.c"
  1578 ;; Parameters:    Size  Location     Type
  1579 ;;		None
  1580 ;; Auto vars:     Size  Location     Type
  1581 ;;		None
  1582 ;; Return value:  Size  Location     Type
  1583 ;;                  1    wreg      unsigned char 
  1584 ;; Registers used:
  1585 ;;		wreg
  1586 ;; Tracked objects:
  1587 ;;		On entry : 0/0
  1588 ;;		On exit  : 0/0
  1589 ;;		Unchanged: 0/0
  1590 ;; Data sizes:     COMMON   BANK0   BANK1   BANK2   BANK3   BANK4   BANK5   BANK6   BANK7   BANK8   BANK9  BANK10  BANK1
      +1  BANK12  BANK13  BANK14  BANK15  BANK16  BANK17  BANK18  BANK19  BANK20  BANK21  BANK22  BANK23  BANK24  BANK25  BANK2
      +6  BANK27  BANK28  BANK29  BANK30  BANK31  BANK32  BANK33  BANK34  BANK35  BANK36  BANK37  BANK38  BANK39  BANK40  BANK4
      +1  BANK42  BANK43  BANK44  BANK45  BANK46  BANK47  BANK48  BANK49  BANK50
  1591 ;;      Params:         0       0       0       0       0       0       0       0       0       0       0       0       
      +0       0       0       0       0       0       0       0       0       0       0       0       0       0       0       
      +0       0       0       0       0       0       0       0       0       0       0       0       0       0       0       
      +0       0       0       0       0       0       0       0       0       0
  1592 ;;      Locals:         0       0       0       0       0       0       0       0       0       0       0       0       
      +0       0       0       0       0       0       0       0       0       0       0       0       0       0       0       
      +0       0       0       0       0       0       0       0       0       0       0       0       0       0       0       
      +0       0       0       0       0       0       0       0       0       0
  1593 ;;      Temps:          0       0       0       0       0       0       0       0       0       0       0       0       
      +0       0       0       0       0       0       0       0       0       0       0       0       0       0       0       
      +0       0       0       0       0       0       0       0       0       0       0       0       0       0       0       
      +0       0       0       0       0       0       0       0       0       0
  1594 ;;      Totals:         0       0       0       0       0       0       0       0       0       0       0       0       
      +0       0       0       0       0       0       0       0       0       0       0       0       0       0       0       
      +0       0       0       0       0       0       0       0       0       0       0       0       0       0       0       
      +0       0       0       0       0       0       0       0       0       0
  1595 ;;Total ram usage:        0 bytes
  1596 ;; Hardware stack levels used: 1
  1597 ;; This function calls:
  1598 ;;		Nothing
  1599 ;; This function is called by:
  1600 ;;		_main
  1601 ;; This function uses a non-reentrant model
  1602 ;;
  1603                           
  1604     06F1                     _keypad_scanner:	
  1605                           ;psect for function _keypad_scanner
  1606                           
  1607     06F1                     l913:	
  1608                           ;incstack = 0
  1609                           ; Regs used in _keypad_scanner: [wreg]
  1610                           
  1611                           
  1612                           ;newmain.c: 164:     RD0=0; RD1=1; RD2=1; RD3=1;
  1613     06F1  0140               	movlb	0	; select bank0
  1614     06F2  100F               	bcf	15,0	;volatile
  1615     06F3  148F               	bsf	15,1	;volatile
  1616     06F4  150F               	bsf	15,2	;volatile
  1617     06F5  158F               	bsf	15,3	;volatile
  1618                           
  1619                           ;newmain.c: 165:     if(RD4==0) { _delay((unsigned long)((100)*(10000/4000.0))); return 
      +                          '1'; }
  1620     06F6  1A0F               	btfsc	15,4	;volatile
  1621     06F7  2EF9               	goto	u41
  1622     06F8  2EFA               	goto	u40
  1623     06F9                     u41:
  1624     06F9  2F00               	goto	l107
  1625     06FA                     u40:
  1626     06FA                     l915:
  1627     06FA  3053               	movlw	83
  1628     06FB                     u557:
  1629     06FB  0B89               	decfsz	9,f
  1630     06FC  2EFB               	goto	u557
  1631     06FD  0000               	nop
  1632     06FE  3031               	movlw	49
  1633     06FF  2FEE               	goto	l108
  1634     0700                     l107:
  1635                           
  1636                           ;newmain.c: 166:     if(RD5==0) { _delay((unsigned long)((100)*(10000/4000.0))); while(R
      +                          D5==0); return '2'; }
  1637     0700  1A8F               	btfsc	15,5	;volatile
  1638     0701  2F03               	goto	u51
  1639     0702  2F04               	goto	u50
  1640     0703                     u51:
  1641     0703  2F0F               	goto	l109
  1642     0704                     u50:
  1643     0704                     l919:
  1644     0704  3053               	movlw	83
  1645     0705                     u567:
  1646     0705  0B89               	decfsz	9,f
  1647     0706  2F05               	goto	u567
  1648     0707  0000               	nop
  1649     0708                     l110:
  1650     0708  0140               	movlb	0	; select bank0
  1651     0709  1E8F               	btfss	15,5	;volatile
  1652     070A  2F0C               	goto	u61
  1653     070B  2F0D               	goto	u60
  1654     070C                     u61:
  1655     070C  2F08               	goto	l110
  1656     070D                     u60:
  1657     070D                     l921:
  1658     070D  3032               	movlw	50
  1659     070E  2FEE               	goto	l108
  1660     070F                     l109:
  1661                           
  1662                           ;newmain.c: 167:     if(RD6==0) { _delay((unsigned long)((100)*(10000/4000.0))); while(R
      +                          D6==0); return '3'; }
  1663     070F  1B0F               	btfsc	15,6	;volatile
  1664     0710  2F12               	goto	u71
  1665     0711  2F13               	goto	u70
  1666     0712                     u71:
  1667     0712  2F1E               	goto	l113
  1668     0713                     u70:
  1669     0713                     l925:
  1670     0713  3053               	movlw	83
  1671     0714                     u577:
  1672     0714  0B89               	decfsz	9,f
  1673     0715  2F14               	goto	u577
  1674     0716  0000               	nop
  1675     0717                     l114:
  1676     0717  0140               	movlb	0	; select bank0
  1677     0718  1F0F               	btfss	15,6	;volatile
  1678     0719  2F1B               	goto	u81
  1679     071A  2F1C               	goto	u80
  1680     071B                     u81:
  1681     071B  2F17               	goto	l114
  1682     071C                     u80:
  1683     071C                     l927:
  1684     071C  3033               	movlw	51
  1685     071D  2FEE               	goto	l108
  1686     071E                     l113:
  1687                           
  1688                           ;newmain.c: 168:     if(RD7==0) { _delay((unsigned long)((100)*(10000/4000.0))); while(R
      +                          D7==0); return 'A'; }
  1689     071E  1B8F               	btfsc	15,7	;volatile
  1690     071F  2F21               	goto	u91
  1691     0720  2F22               	goto	u90
  1692     0721                     u91:
  1693     0721  2F2D               	goto	l117
  1694     0722                     u90:
  1695     0722                     l931:
  1696     0722  3053               	movlw	83
  1697     0723                     u587:
  1698     0723  0B89               	decfsz	9,f
  1699     0724  2F23               	goto	u587
  1700     0725  0000               	nop
  1701     0726                     l118:
  1702     0726  0140               	movlb	0	; select bank0
  1703     0727  1F8F               	btfss	15,7	;volatile
  1704     0728  2F2A               	goto	u101
  1705     0729  2F2B               	goto	u100
  1706     072A                     u101:
  1707     072A  2F26               	goto	l118
  1708     072B                     u100:
  1709     072B                     l933:
  1710     072B  3041               	movlw	65
  1711     072C  2FEE               	goto	l108
  1712     072D                     l117:
  1713                           
  1714                           ;newmain.c: 170:     RD1=0; RD0=1; RD2=1; RD3=1;
  1715     072D  108F               	bcf	15,1	;volatile
  1716     072E  140F               	bsf	15,0	;volatile
  1717     072F  150F               	bsf	15,2	;volatile
  1718     0730  158F               	bsf	15,3	;volatile
  1719                           
  1720                           ;newmain.c: 171:     if(RD4==0) { _delay((unsigned long)((100)*(10000/4000.0))); while(R
      +                          D4==0); return '4'; }
  1721     0731  1A0F               	btfsc	15,4	;volatile
  1722     0732  2F34               	goto	u111
  1723     0733  2F35               	goto	u110
  1724     0734                     u111:
  1725     0734  2F40               	goto	l121
  1726     0735                     u110:
  1727     0735                     l937:
  1728     0735  3053               	movlw	83
  1729     0736                     u597:
  1730     0736  0B89               	decfsz	9,f
  1731     0737  2F36               	goto	u597
  1732     0738  0000               	nop
  1733     0739                     l122:
  1734     0739  0140               	movlb	0	; select bank0
  1735     073A  1E0F               	btfss	15,4	;volatile
  1736     073B  2F3D               	goto	u121
  1737     073C  2F3E               	goto	u120
  1738     073D                     u121:
  1739     073D  2F39               	goto	l122
  1740     073E                     u120:
  1741     073E                     l939:
  1742     073E  3034               	movlw	52
  1743     073F  2FEE               	goto	l108
  1744     0740                     l121:
  1745                           
  1746                           ;newmain.c: 172:     if(RD5==0) { _delay((unsigned long)((100)*(10000/4000.0))); while(R
      +                          D5==0); return '5'; }
  1747     0740  1A8F               	btfsc	15,5	;volatile
  1748     0741  2F43               	goto	u131
  1749     0742  2F44               	goto	u130
  1750     0743                     u131:
  1751     0743  2F4F               	goto	l125
  1752     0744                     u130:
  1753     0744                     l943:
  1754     0744  3053               	movlw	83
  1755     0745                     u607:
  1756     0745  0B89               	decfsz	9,f
  1757     0746  2F45               	goto	u607
  1758     0747  0000               	nop
  1759     0748                     l126:
  1760     0748  0140               	movlb	0	; select bank0
  1761     0749  1E8F               	btfss	15,5	;volatile
  1762     074A  2F4C               	goto	u141
  1763     074B  2F4D               	goto	u140
  1764     074C                     u141:
  1765     074C  2F48               	goto	l126
  1766     074D                     u140:
  1767     074D                     l945:
  1768     074D  3035               	movlw	53
  1769     074E  2FEE               	goto	l108
  1770     074F                     l125:
  1771                           
  1772                           ;newmain.c: 173:     if(RD6==0) { _delay((unsigned long)((100)*(10000/4000.0))); while(R
      +                          D6==0); return '6'; }
  1773     074F  1B0F               	btfsc	15,6	;volatile
  1774     0750  2F52               	goto	u151
  1775     0751  2F53               	goto	u150
  1776     0752                     u151:
  1777     0752  2F5E               	goto	l129
  1778     0753                     u150:
  1779     0753                     l949:
  1780     0753  3053               	movlw	83
  1781     0754                     u617:
  1782     0754  0B89               	decfsz	9,f
  1783     0755  2F54               	goto	u617
  1784     0756  0000               	nop
  1785     0757                     l130:
  1786     0757  0140               	movlb	0	; select bank0
  1787     0758  1F0F               	btfss	15,6	;volatile
  1788     0759  2F5B               	goto	u161
  1789     075A  2F5C               	goto	u160
  1790     075B                     u161:
  1791     075B  2F57               	goto	l130
  1792     075C                     u160:
  1793     075C                     l951:
  1794     075C  3036               	movlw	54
  1795     075D  2FEE               	goto	l108
  1796     075E                     l129:
  1797                           
  1798                           ;newmain.c: 174:     if(RD7==0) { _delay((unsigned long)((100)*(10000/4000.0))); while(R
      +                          D7==0); return 'B'; }
  1799     075E  1B8F               	btfsc	15,7	;volatile
  1800     075F  2F61               	goto	u171
  1801     0760  2F62               	goto	u170
  1802     0761                     u171:
  1803     0761  2F6D               	goto	l133
  1804     0762                     u170:
  1805     0762                     l955:
  1806     0762  3053               	movlw	83
  1807     0763                     u627:
  1808     0763  0B89               	decfsz	9,f
  1809     0764  2F63               	goto	u627
  1810     0765  0000               	nop
  1811     0766                     l134:
  1812     0766  0140               	movlb	0	; select bank0
  1813     0767  1F8F               	btfss	15,7	;volatile
  1814     0768  2F6A               	goto	u181
  1815     0769  2F6B               	goto	u180
  1816     076A                     u181:
  1817     076A  2F66               	goto	l134
  1818     076B                     u180:
  1819     076B                     l957:
  1820     076B  3042               	movlw	66
  1821     076C  2FEE               	goto	l108
  1822     076D                     l133:
  1823                           
  1824                           ;newmain.c: 176:     RD2=0; RD0=1; RD1=1; RD3=1;
  1825     076D  110F               	bcf	15,2	;volatile
  1826     076E  140F               	bsf	15,0	;volatile
  1827     076F  148F               	bsf	15,1	;volatile
  1828     0770  158F               	bsf	15,3	;volatile
  1829                           
  1830                           ;newmain.c: 177:     if(RD4==0) { _delay((unsigned long)((100)*(10000/4000.0))); while(R
      +                          D4==0); return '7'; }
  1831     0771  1A0F               	btfsc	15,4	;volatile
  1832     0772  2F74               	goto	u191
  1833     0773  2F75               	goto	u190
  1834     0774                     u191:
  1835     0774  2F80               	goto	l137
  1836     0775                     u190:
  1837     0775                     l961:
  1838     0775  3053               	movlw	83
  1839     0776                     u637:
  1840     0776  0B89               	decfsz	9,f
  1841     0777  2F76               	goto	u637
  1842     0778  0000               	nop
  1843     0779                     l138:
  1844     0779  0140               	movlb	0	; select bank0
  1845     077A  1E0F               	btfss	15,4	;volatile
  1846     077B  2F7D               	goto	u201
  1847     077C  2F7E               	goto	u200
  1848     077D                     u201:
  1849     077D  2F79               	goto	l138
  1850     077E                     u200:
  1851     077E                     l963:
  1852     077E  3037               	movlw	55
  1853     077F  2FEE               	goto	l108
  1854     0780                     l137:
  1855                           
  1856                           ;newmain.c: 178:     if(RD5==0) { _delay((unsigned long)((100)*(10000/4000.0))); while(R
      +                          D5==0); return '8'; }
  1857     0780  1A8F               	btfsc	15,5	;volatile
  1858     0781  2F83               	goto	u211
  1859     0782  2F84               	goto	u210
  1860     0783                     u211:
  1861     0783  2F8F               	goto	l141
  1862     0784                     u210:
  1863     0784                     l967:
  1864     0784  3053               	movlw	83
  1865     0785                     u647:
  1866     0785  0B89               	decfsz	9,f
  1867     0786  2F85               	goto	u647
  1868     0787  0000               	nop
  1869     0788                     l142:
  1870     0788  0140               	movlb	0	; select bank0
  1871     0789  1E8F               	btfss	15,5	;volatile
  1872     078A  2F8C               	goto	u221
  1873     078B  2F8D               	goto	u220
  1874     078C                     u221:
  1875     078C  2F88               	goto	l142
  1876     078D                     u220:
  1877     078D                     l969:
  1878     078D  3038               	movlw	56
  1879     078E  2FEE               	goto	l108
  1880     078F                     l141:
  1881                           
  1882                           ;newmain.c: 179:     if(RD6==0) { _delay((unsigned long)((100)*(10000/4000.0))); while(R
      +                          D6==0); return '9'; }
  1883     078F  1B0F               	btfsc	15,6	;volatile
  1884     0790  2F92               	goto	u231
  1885     0791  2F93               	goto	u230
  1886     0792                     u231:
  1887     0792  2F9E               	goto	l145
  1888     0793                     u230:
  1889     0793                     l973:
  1890     0793  3053               	movlw	83
  1891     0794                     u657:
  1892     0794  0B89               	decfsz	9,f
  1893     0795  2F94               	goto	u657
  1894     0796  0000               	nop
  1895     0797                     l146:
  1896     0797  0140               	movlb	0	; select bank0
  1897     0798  1F0F               	btfss	15,6	;volatile
  1898     0799  2F9B               	goto	u241
  1899     079A  2F9C               	goto	u240
  1900     079B                     u241:
  1901     079B  2F97               	goto	l146
  1902     079C                     u240:
  1903     079C                     l975:
  1904     079C  3039               	movlw	57
  1905     079D  2FEE               	goto	l108
  1906     079E                     l145:
  1907                           
  1908                           ;newmain.c: 180:     if(RD7==0) { _delay((unsigned long)((100)*(10000/4000.0))); while(R
      +                          D7==0); return 'C'; }
  1909     079E  1B8F               	btfsc	15,7	;volatile
  1910     079F  2FA1               	goto	u251
  1911     07A0  2FA2               	goto	u250
  1912     07A1                     u251:
  1913     07A1  2FAD               	goto	l149
  1914     07A2                     u250:
  1915     07A2                     l979:
  1916     07A2  3053               	movlw	83
  1917     07A3                     u667:
  1918     07A3  0B89               	decfsz	9,f
  1919     07A4  2FA3               	goto	u667
  1920     07A5  0000               	nop
  1921     07A6                     l150:
  1922     07A6  0140               	movlb	0	; select bank0
  1923     07A7  1F8F               	btfss	15,7	;volatile
  1924     07A8  2FAA               	goto	u261
  1925     07A9  2FAB               	goto	u260
  1926     07AA                     u261:
  1927     07AA  2FA6               	goto	l150
  1928     07AB                     u260:
  1929     07AB                     l981:
  1930     07AB  3043               	movlw	67
  1931     07AC  2FEE               	goto	l108
  1932     07AD                     l149:
  1933                           
  1934                           ;newmain.c: 182:     RD3=0; RD1=1; RD2=1; RD0=1;
  1935     07AD  118F               	bcf	15,3	;volatile
  1936     07AE  148F               	bsf	15,1	;volatile
  1937     07AF  150F               	bsf	15,2	;volatile
  1938     07B0  140F               	bsf	15,0	;volatile
  1939                           
  1940                           ;newmain.c: 183:     if(RD4==0) { _delay((unsigned long)((100)*(10000/4000.0))); while(R
      +                          D4==0); return '*'; }
  1941     07B1  1A0F               	btfsc	15,4	;volatile
  1942     07B2  2FB4               	goto	u271
  1943     07B3  2FB5               	goto	u270
  1944     07B4                     u271:
  1945     07B4  2FC0               	goto	l153
  1946     07B5                     u270:
  1947     07B5                     l985:
  1948     07B5  3053               	movlw	83
  1949     07B6                     u677:
  1950     07B6  0B89               	decfsz	9,f
  1951     07B7  2FB6               	goto	u677
  1952     07B8  0000               	nop
  1953     07B9                     l154:
  1954     07B9  0140               	movlb	0	; select bank0
  1955     07BA  1E0F               	btfss	15,4	;volatile
  1956     07BB  2FBD               	goto	u281
  1957     07BC  2FBE               	goto	u280
  1958     07BD                     u281:
  1959     07BD  2FB9               	goto	l154
  1960     07BE                     u280:
  1961     07BE                     l987:
  1962     07BE  302A               	movlw	42
  1963     07BF  2FEE               	goto	l108
  1964     07C0                     l153:
  1965                           
  1966                           ;newmain.c: 184:     if(RD5==0) { _delay((unsigned long)((100)*(10000/4000.0))); while(R
      +                          D5==0); return '0'; }
  1967     07C0  1A8F               	btfsc	15,5	;volatile
  1968     07C1  2FC3               	goto	u291
  1969     07C2  2FC4               	goto	u290
  1970     07C3                     u291:
  1971     07C3  2FCF               	goto	l157
  1972     07C4                     u290:
  1973     07C4                     l991:
  1974     07C4  3053               	movlw	83
  1975     07C5                     u687:
  1976     07C5  0B89               	decfsz	9,f
  1977     07C6  2FC5               	goto	u687
  1978     07C7  0000               	nop
  1979     07C8                     l158:
  1980     07C8  0140               	movlb	0	; select bank0
  1981     07C9  1E8F               	btfss	15,5	;volatile
  1982     07CA  2FCC               	goto	u301
  1983     07CB  2FCD               	goto	u300
  1984     07CC                     u301:
  1985     07CC  2FC8               	goto	l158
  1986     07CD                     u300:
  1987     07CD                     l993:
  1988     07CD  3030               	movlw	48
  1989     07CE  2FEE               	goto	l108
  1990     07CF                     l157:
  1991                           
  1992                           ;newmain.c: 185:     if(RD6==0) { _delay((unsigned long)((100)*(10000/4000.0))); while(R
      +                          D6==0); return '#'; }
  1993     07CF  1B0F               	btfsc	15,6	;volatile
  1994     07D0  2FD2               	goto	u311
  1995     07D1  2FD3               	goto	u310
  1996     07D2                     u311:
  1997     07D2  2FDE               	goto	l161
  1998     07D3                     u310:
  1999     07D3                     l997:
  2000     07D3  3053               	movlw	83
  2001     07D4                     u697:
  2002     07D4  0B89               	decfsz	9,f
  2003     07D5  2FD4               	goto	u697
  2004     07D6  0000               	nop
  2005     07D7                     l162:
  2006     07D7  0140               	movlb	0	; select bank0
  2007     07D8  1F0F               	btfss	15,6	;volatile
  2008     07D9  2FDB               	goto	u321
  2009     07DA  2FDC               	goto	u320
  2010     07DB                     u321:
  2011     07DB  2FD7               	goto	l162
  2012     07DC                     u320:
  2013     07DC                     l999:
  2014     07DC  3023               	movlw	35
  2015     07DD  2FEE               	goto	l108
  2016     07DE                     l161:
  2017                           
  2018                           ;newmain.c: 186:     if(RD7==0) { _delay((unsigned long)((100)*(10000/4000.0))); while(R
      +                          D7==0); return 'D'; }
  2019     07DE  1B8F               	btfsc	15,7	;volatile
  2020     07DF  2FE1               	goto	u331
  2021     07E0  2FE2               	goto	u330
  2022     07E1                     u331:
  2023     07E1  2FED               	goto	l1009
  2024     07E2                     u330:
  2025     07E2                     l1003:
  2026     07E2  3053               	movlw	83
  2027     07E3                     u707:
  2028     07E3  0B89               	decfsz	9,f
  2029     07E4  2FE3               	goto	u707
  2030     07E5  0000               	nop
  2031     07E6                     l166:
  2032     07E6  0140               	movlb	0	; select bank0
  2033     07E7  1F8F               	btfss	15,7	;volatile
  2034     07E8  2FEA               	goto	u341
  2035     07E9  2FEB               	goto	u340
  2036     07EA                     u341:
  2037     07EA  2FE6               	goto	l166
  2038     07EB                     u340:
  2039     07EB                     l1005:
  2040     07EB  3044               	movlw	68
  2041     07EC  2FEE               	goto	l108
  2042     07ED                     l1009:
  2043                           
  2044                           ;newmain.c: 188:     return '\0';
  2045     07ED  3000               	movlw	0
  2046     07EE                     l108:
  2047     07EE  0008               	return
  2048     07EF                     __end_of_keypad_scanner:
  2049                           
  2050                           	psect	text2
  2051     061A                     __ptext2:	
  2052 ;; *************** function _LCD_String *****************
  2053 ;; Defined at:
  2054 ;;		line 272 in file "newmain.c"
  2055 ;; Parameters:    Size  Location     Type
  2056 ;;  text            2    3[COMMON] PTR const unsigned char 
  2057 ;;		 -> button_press_show@buffer(5), Display_Temperature@buffer(6), Display_Oxygen_Level@buffer(5), STR_1(15), 
  2058 ;; Auto vars:     Size  Location     Type
  2059 ;;		None
  2060 ;; Return value:  Size  Location     Type
  2061 ;;                  1    wreg      void 
  2062 ;; Registers used:
  2063 ;;		wreg, fsr0l, fsr0h, status,2, status,0, pclath, cstack
  2064 ;; Tracked objects:
  2065 ;;		On entry : 0/0
  2066 ;;		On exit  : 0/0
  2067 ;;		Unchanged: 0/0
  2068 ;; Data sizes:     COMMON   BANK0   BANK1   BANK2   BANK3   BANK4   BANK5   BANK6   BANK7   BANK8   BANK9  BANK10  BANK1
      +1  BANK12  BANK13  BANK14  BANK15  BANK16  BANK17  BANK18  BANK19  BANK20  BANK21  BANK22  BANK23  BANK24  BANK25  BANK2
      +6  BANK27  BANK28  BANK29  BANK30  BANK31  BANK32  BANK33  BANK34  BANK35  BANK36  BANK37  BANK38  BANK39  BANK40  BANK4
      +1  BANK42  BANK43  BANK44  BANK45  BANK46  BANK47  BANK48  BANK49  BANK50
  2069 ;;      Params:         2       0       0       0       0       0       0       0       0       0       0       0       
      +0       0       0       0       0       0       0       0       0       0       0       0       0       0       0       
      +0       0       0       0       0       0       0       0       0       0       0       0       0       0       0       
      +0       0       0       0       0       0       0       0       0       0
  2070 ;;      Locals:         0       0       0       0       0       0       0       0       0       0       0       0       
      +0       0       0       0       0       0       0       0       0       0       0       0       0       0       0       
      +0       0       0       0       0       0       0       0       0       0       0       0       0       0       0       
      +0       0       0       0       0       0       0       0       0       0
  2071 ;;      Temps:          1       0       0       0       0       0       0       0       0       0       0       0       
      +0       0       0       0       0       0       0       0       0       0       0       0       0       0       0       
      +0       0       0       0       0       0       0       0       0       0       0       0       0       0       0       
      +0       0       0       0       0       0       0       0       0       0
  2072 ;;      Totals:         3       0       0       0       0       0       0       0       0       0       0       0       
      +0       0       0       0       0       0       0       0       0       0       0       0       0       0       0       
      +0       0       0       0       0       0       0       0       0       0       0       0       0       0       0       
      +0       0       0       0       0       0       0       0       0       0
  2073 ;;Total ram usage:        3 bytes
  2074 ;; Hardware stack levels used: 1
  2075 ;; Hardware stack levels required when called: 1
  2076 ;; This function calls:
  2077 ;;		_LCD_Char
  2078 ;; This function is called by:
  2079 ;;		_main
  2080 ;;		_Display_Oxygen_Level
  2081 ;;		_Display_Temperature
  2082 ;;		_button_press_show
  2083 ;; This function uses a non-reentrant model
  2084 ;;
  2085                           
  2086     061A                     _LCD_String:	
  2087                           ;psect for function _LCD_String
  2088                           
  2089     061A                     l1105:	
  2090                           ;incstack = 0
  2091                           ; Regs used in _LCD_String: [wreg-fsr0h+status,2+status,0+pclath+cstack]
  2092                           
  2093                           
  2094                           ;newmain.c: 273:     while (*text != '\0') {
  2095     061A  2E27               	goto	l1111
  2096     061B                     l1107:
  2097                           
  2098                           ;newmain.c: 274:         LCD_Char(*text++);
  2099     061B  0873               	movf	LCD_String@text,w
  2100     061C  0084               	movwf	4
  2101     061D  0874               	movf	LCD_String@text+1,w
  2102     061E  0085               	movwf	5
  2103     061F  0800               	movf	0,w	;code access
  2104     0620  3186  2674  3186   	fcall	_LCD_Char
  2105     0623                     l1109:
  2106     0623  3001               	movlw	1
  2107     0624  07F3               	addwf	LCD_String@text,f
  2108     0625  3000               	movlw	0
  2109     0626  3DF4               	addwfc	LCD_String@text+1,f
  2110     0627                     l1111:
  2111                           
  2112                           ;newmain.c: 273:     while (*text != '\0') {
  2113     0627  0873               	movf	LCD_String@text,w
  2114     0628  0084               	movwf	4
  2115     0629  0874               	movf	LCD_String@text+1,w
  2116     062A  0085               	movwf	5
  2117     062B  0012               	moviw fsr0++
  2118     062C  1D03               	btfss	3,2
  2119     062D  2E2F               	goto	u461
  2120     062E  2E30               	goto	u460
  2121     062F                     u461:
  2122     062F  2E1B               	goto	l1107
  2123     0630                     u460:
  2124     0630                     l196:
  2125     0630  0008               	return
  2126     0631                     __end_of_LCD_String:
  2127                           
  2128                           	psect	text3
  2129     0674                     __ptext3:	
  2130 ;; *************** function _LCD_Char *****************
  2131 ;; Defined at:
  2132 ;;		line 258 in file "newmain.c"
  2133 ;; Parameters:    Size  Location     Type
  2134 ;;  data            1    wreg     unsigned char 
  2135 ;; Auto vars:     Size  Location     Type
  2136 ;;  data            1    2[COMMON] unsigned char 
  2137 ;; Return value:  Size  Location     Type
  2138 ;;                  1    wreg      void 
  2139 ;; Registers used:
  2140 ;;		wreg, status,2, status,0
  2141 ;; Tracked objects:
  2142 ;;		On entry : 0/0
  2143 ;;		On exit  : 0/0
  2144 ;;		Unchanged: 0/0
  2145 ;; Data sizes:     COMMON   BANK0   BANK1   BANK2   BANK3   BANK4   BANK5   BANK6   BANK7   BANK8   BANK9  BANK10  BANK1
      +1  BANK12  BANK13  BANK14  BANK15  BANK16  BANK17  BANK18  BANK19  BANK20  BANK21  BANK22  BANK23  BANK24  BANK25  BANK2
      +6  BANK27  BANK28  BANK29  BANK30  BANK31  BANK32  BANK33  BANK34  BANK35  BANK36  BANK37  BANK38  BANK39  BANK40  BANK4
      +1  BANK42  BANK43  BANK44  BANK45  BANK46  BANK47  BANK48  BANK49  BANK50
  2146 ;;      Params:         0       0       0       0       0       0       0       0       0       0       0       0       
      +0       0       0       0       0       0       0       0       0       0       0       0       0       0       0       
      +0       0       0       0       0       0       0       0       0       0       0       0       0       0       0       
      +0       0       0       0       0       0       0       0       0       0
  2147 ;;      Locals:         1       0       0       0       0       0       0       0       0       0       0       0       
      +0       0       0       0       0       0       0       0       0       0       0       0       0       0       0       
      +0       0       0       0       0       0       0       0       0       0       0       0       0       0       0       
      +0       0       0       0       0       0       0       0       0       0
  2148 ;;      Temps:          2       0       0       0       0       0       0       0       0       0       0       0       
      +0       0       0       0       0       0       0       0       0       0       0       0       0       0       0       
      +0       0       0       0       0       0       0       0       0       0       0       0       0       0       0       
      +0       0       0       0       0       0       0       0       0       0
  2149 ;;      Totals:         3       0       0       0       0       0       0       0       0       0       0       0       
      +0       0       0       0       0       0       0       0       0       0       0       0       0       0       0       
      +0       0       0       0       0       0       0       0       0       0       0       0       0       0       0       
      +0       0       0       0       0       0       0       0       0       0
  2150 ;;Total ram usage:        3 bytes
  2151 ;; Hardware stack levels used: 1
  2152 ;; This function calls:
  2153 ;;		Nothing
  2154 ;; This function is called by:
  2155 ;;		_main
  2156 ;;		_LCD_String
  2157 ;; This function uses a non-reentrant model
  2158 ;;
  2159                           
  2160     0674                     _LCD_Char:	
  2161                           ;psect for function _LCD_Char
  2162                           
  2163                           
  2164                           ;incstack = 0
  2165                           ; Regs used in _LCD_Char: [wreg+status,2+status,0]
  2166                           ;LCD_Char@data stored from wreg
  2167     0674  00F2               	movwf	LCD_Char@data
  2168     0675                     l857:
  2169                           
  2170                           ;newmain.c: 259:     PORTCbits.RC0 = 1;
  2171     0675  0140               	movlb	0	; select bank0
  2172     0676  140E               	bsf	14,0	;volatile
  2173     0677                     l859:
  2174                           
  2175                           ;newmain.c: 260:     PORTC = (PORTC & 0x0F) | (data & 0xF0);
  2176     0677  30F0               	movlw	240
  2177     0678  0572               	andwf	LCD_Char@data,w
  2178     0679  00F0               	movwf	??_LCD_Char
  2179     067A  080E               	movf	14,w	;volatile
  2180     067B  390F               	andlw	15
  2181     067C  0470               	iorwf	??_LCD_Char,w
  2182     067D  008E               	movwf	14	;volatile
  2183     067E                     l861:
  2184                           
  2185                           ;newmain.c: 261:     PORTEbits.RE0 = 1;
  2186     067E  1410               	bsf	16,0	;volatile
  2187     067F                     l863:
  2188     067F                     l865:	
  2189                           ;newmain.c: 262:     _delay((unsigned long)((1)*(10000/4000000.0)));
  2190                           
  2191                           
  2192                           ;newmain.c: 263:     PORTEbits.RE0 = 0;
  2193     067F  0140               	movlb	0	; select bank0
  2194     0680  1010               	bcf	16,0	;volatile
  2195     0681                     l867:
  2196                           
  2197                           ;newmain.c: 264:     _delay((unsigned long)((200)*(10000/4000000.0)));
  2198                           ;newmain.c: 265:     PORTC = (PORTC & 0x0F) | ((data << 4) & 0xF0);
  2199     0681  0872               	movf	LCD_Char@data,w
  2200     0682  00F0               	movwf	??_LCD_Char
  2201     0683  3004               	movlw	4
  2202     0684                     u25:
  2203     0684  35F0               	lslf	??_LCD_Char,f
  2204     0685  0B89               	decfsz	9,f
  2205     0686  2E84               	goto	u25
  2206     0687  30F0               	movlw	240
  2207     0688  0570               	andwf	??_LCD_Char,w
  2208     0689  00F1               	movwf	??_LCD_Char+1
  2209     068A  0140               	movlb	0	; select bank0
  2210     068B  080E               	movf	14,w	;volatile
  2211     068C  390F               	andlw	15
  2212     068D  0471               	iorwf	??_LCD_Char+1,w
  2213     068E  008E               	movwf	14	;volatile
  2214     068F                     l869:
  2215                           
  2216                           ;newmain.c: 266:     PORTEbits.RE0 = 1;
  2217     068F  1410               	bsf	16,0	;volatile
  2218     0690                     l871:
  2219     0690                     l873:	
  2220                           ;newmain.c: 267:     _delay((unsigned long)((1)*(10000/4000000.0)));
  2221                           
  2222                           
  2223                           ;newmain.c: 268:     PORTEbits.RE0 = 0;
  2224     0690  0140               	movlb	0	; select bank0
  2225     0691  1010               	bcf	16,0	;volatile
  2226     0692                     l875:
  2227                           
  2228                           ;newmain.c: 269:     _delay((unsigned long)((2)*(10000/4000.0)));
  2229     0692  3200               	nop2	;2 cycle nop
  2230     0693  3200               	nop2	;2 cycle nop
  2231     0694  0000               	nop
  2232     0695                     l190:
  2233     0695  0008               	return
  2234     0696                     __end_of_LCD_Char:
  2235                           
  2236                           	psect	text4
  2237     0631                     __ptext4:	
  2238 ;; *************** function _LCD_Init *****************
  2239 ;; Defined at:
  2240 ;;		line 225 in file "newmain.c"
  2241 ;; Parameters:    Size  Location     Type
  2242 ;;		None
  2243 ;; Auto vars:     Size  Location     Type
  2244 ;;		None
  2245 ;; Return value:  Size  Location     Type
  2246 ;;                  1    wreg      void 
  2247 ;; Registers used:
  2248 ;;		wreg, status,2, status,0, pclath, cstack
  2249 ;; Tracked objects:
  2250 ;;		On entry : 0/0
  2251 ;;		On exit  : 0/0
  2252 ;;		Unchanged: 0/0
  2253 ;; Data sizes:     COMMON   BANK0   BANK1   BANK2   BANK3   BANK4   BANK5   BANK6   BANK7   BANK8   BANK9  BANK10  BANK1
      +1  BANK12  BANK13  BANK14  BANK15  BANK16  BANK17  BANK18  BANK19  BANK20  BANK21  BANK22  BANK23  BANK24  BANK25  BANK2
      +6  BANK27  BANK28  BANK29  BANK30  BANK31  BANK32  BANK33  BANK34  BANK35  BANK36  BANK37  BANK38  BANK39  BANK40  BANK4
      +1  BANK42  BANK43  BANK44  BANK45  BANK46  BANK47  BANK48  BANK49  BANK50
  2254 ;;      Params:         0       0       0       0       0       0       0       0       0       0       0       0       
      +0       0       0       0       0       0       0       0       0       0       0       0       0       0       0       
      +0       0       0       0       0       0       0       0       0       0       0       0       0       0       0       
      +0       0       0       0       0       0       0       0       0       0
  2255 ;;      Locals:         0       0       0       0       0       0       0       0       0       0       0       0       
      +0       0       0       0       0       0       0       0       0       0       0       0       0       0       0       
      +0       0       0       0       0       0       0       0       0       0       0       0       0       0       0       
      +0       0       0       0       0       0       0       0       0       0
  2256 ;;      Temps:          0       0       0       0       0       0       0       0       0       0       0       0       
      +0       0       0       0       0       0       0       0       0       0       0       0       0       0       0       
      +0       0       0       0       0       0       0       0       0       0       0       0       0       0       0       
      +0       0       0       0       0       0       0       0       0       0
  2257 ;;      Totals:         0       0       0       0       0       0       0       0       0       0       0       0       
      +0       0       0       0       0       0       0       0       0       0       0       0       0       0       0       
      +0       0       0       0       0       0       0       0       0       0       0       0       0       0       0       
      +0       0       0       0       0       0       0       0       0       0
  2258 ;;Total ram usage:        0 bytes
  2259 ;; Hardware stack levels used: 1
  2260 ;; Hardware stack levels required when called: 1
  2261 ;; This function calls:
  2262 ;;		_LCD_Cmd
  2263 ;; This function is called by:
  2264 ;;		_main
  2265 ;; This function uses a non-reentrant model
  2266 ;;
  2267                           
  2268     0631                     _LCD_Init:	
  2269                           ;psect for function _LCD_Init
  2270                           
  2271     0631                     l877:	
  2272                           ;incstack = 0
  2273                           ; Regs used in _LCD_Init: [wreg+status,2+status,0+pclath+cstack]
  2274                           
  2275                           
  2276                           ;newmain.c: 227:     TRISEbits.TRISE0 = 0;
  2277     0631  0140               	movlb	0	; select bank0
  2278     0632  1015               	bcf	21,0	;volatile
  2279                           
  2280                           ;newmain.c: 228:     TRISCbits.TRISC0 = 0;
  2281     0633  1013               	bcf	19,0	;volatile
  2282                           
  2283                           ;newmain.c: 229:     TRISCbits.TRISC1 = 0;
  2284     0634  1093               	bcf	19,1	;volatile
  2285                           
  2286                           ;newmain.c: 230:     TRISCbits.TRISC4 = 0;
  2287     0635  1213               	bcf	19,4	;volatile
  2288                           
  2289                           ;newmain.c: 231:     TRISCbits.TRISC5 = 0;
  2290     0636  1293               	bcf	19,5	;volatile
  2291                           
  2292                           ;newmain.c: 232:     TRISCbits.TRISC6 = 0;
  2293     0637  1313               	bcf	19,6	;volatile
  2294                           
  2295                           ;newmain.c: 233:     TRISCbits.TRISC7 = 0;
  2296     0638  1393               	bcf	19,7	;volatile
  2297     0639                     l879:
  2298                           
  2299                           ;newmain.c: 235:     _delay((unsigned long)((15)*(10000/4000.0)));
  2300     0639  300C               	movlw	12
  2301     063A                     u717:
  2302     063A  0B89               	decfsz	9,f
  2303     063B  2E3A               	goto	u717
  2304     063C  0000               	nop
  2305     063D                     l881:
  2306                           
  2307                           ;newmain.c: 237:     LCD_Cmd(0x02);
  2308     063D  3002               	movlw	2
  2309     063E  3186  2652  3186   	fcall	_LCD_Cmd
  2310     0641                     l883:
  2311                           
  2312                           ;newmain.c: 238:     LCD_Cmd(0x28);
  2313     0641  3028               	movlw	40
  2314     0642  3186  2652  3186   	fcall	_LCD_Cmd
  2315     0645                     l885:
  2316                           
  2317                           ;newmain.c: 239:     LCD_Cmd(0x0C);
  2318     0645  300C               	movlw	12
  2319     0646  3186  2652  3186   	fcall	_LCD_Cmd
  2320     0649                     l887:
  2321                           
  2322                           ;newmain.c: 240:     LCD_Cmd(0x06);
  2323     0649  3006               	movlw	6
  2324     064A  3186  2652  3186   	fcall	_LCD_Cmd
  2325     064D                     l889:
  2326                           
  2327                           ;newmain.c: 241:     LCD_Cmd(0x80);
  2328     064D  3080               	movlw	128
  2329     064E  3186  2652  3186   	fcall	_LCD_Cmd
  2330     0651                     l184:
  2331     0651  0008               	return
  2332     0652                     __end_of_LCD_Init:
  2333                           
  2334                           	psect	text5
  2335     05F1                     __ptext5:	
  2336 ;; *************** function _LCD_Clear *****************
  2337 ;; Defined at:
  2338 ;;		line 278 in file "newmain.c"
  2339 ;; Parameters:    Size  Location     Type
  2340 ;;		None
  2341 ;; Auto vars:     Size  Location     Type
  2342 ;;		None
  2343 ;; Return value:  Size  Location     Type
  2344 ;;                  1    wreg      void 
  2345 ;; Registers used:
  2346 ;;		wreg, status,2, status,0, pclath, cstack
  2347 ;; Tracked objects:
  2348 ;;		On entry : 0/0
  2349 ;;		On exit  : 0/0
  2350 ;;		Unchanged: 0/0
  2351 ;; Data sizes:     COMMON   BANK0   BANK1   BANK2   BANK3   BANK4   BANK5   BANK6   BANK7   BANK8   BANK9  BANK10  BANK1
      +1  BANK12  BANK13  BANK14  BANK15  BANK16  BANK17  BANK18  BANK19  BANK20  BANK21  BANK22  BANK23  BANK24  BANK25  BANK2
      +6  BANK27  BANK28  BANK29  BANK30  BANK31  BANK32  BANK33  BANK34  BANK35  BANK36  BANK37  BANK38  BANK39  BANK40  BANK4
      +1  BANK42  BANK43  BANK44  BANK45  BANK46  BANK47  BANK48  BANK49  BANK50
  2352 ;;      Params:         0       0       0       0       0       0       0       0       0       0       0       0       
      +0       0       0       0       0       0       0       0       0       0       0       0       0       0       0       
      +0       0       0       0       0       0       0       0       0       0       0       0       0       0       0       
      +0       0       0       0       0       0       0       0       0       0
  2353 ;;      Locals:         0       0       0       0       0       0       0       0       0       0       0       0       
      +0       0       0       0       0       0       0       0       0       0       0       0       0       0       0       
      +0       0       0       0       0       0       0       0       0       0       0       0       0       0       0       
      +0       0       0       0       0       0       0       0       0       0
  2354 ;;      Temps:          0       0       0       0       0       0       0       0       0       0       0       0       
      +0       0       0       0       0       0       0       0       0       0       0       0       0       0       0       
      +0       0       0       0       0       0       0       0       0       0       0       0       0       0       0       
      +0       0       0       0       0       0       0       0       0       0
  2355 ;;      Totals:         0       0       0       0       0       0       0       0       0       0       0       0       
      +0       0       0       0       0       0       0       0       0       0       0       0       0       0       0       
      +0       0       0       0       0       0       0       0       0       0       0       0       0       0       0       
      +0       0       0       0       0       0       0       0       0       0
  2356 ;;Total ram usage:        0 bytes
  2357 ;; Hardware stack levels used: 1
  2358 ;; Hardware stack levels required when called: 1
  2359 ;; This function calls:
  2360 ;;		_LCD_Cmd
  2361 ;; This function is called by:
  2362 ;;		_main
  2363 ;; This function uses a non-reentrant model
  2364 ;;
  2365                           
  2366     05F1                     _LCD_Clear:	
  2367                           ;psect for function _LCD_Clear
  2368                           
  2369     05F1                     l901:	
  2370                           ;incstack = 0
  2371                           ; Regs used in _LCD_Clear: [wreg+status,2+status,0+pclath+cstack]
  2372                           
  2373                           
  2374                           ;newmain.c: 279:     LCD_Cmd(0x01);
  2375     05F1  3001               	movlw	1
  2376     05F2  3186  2652  3185   	fcall	_LCD_Cmd
  2377     05F5                     l903:
  2378                           
  2379                           ;newmain.c: 280:     _delay((unsigned long)((2)*(10000/4000.0)));
  2380     05F5  3200               	nop2	;2 cycle nop
  2381     05F6  3200               	nop2	;2 cycle nop
  2382     05F7  0000               	nop
  2383     05F8                     l199:
  2384     05F8  0008               	return
  2385     05F9                     __end_of_LCD_Clear:
  2386                           
  2387                           	psect	text6
  2388     0652                     __ptext6:	
  2389 ;; *************** function _LCD_Cmd *****************
  2390 ;; Defined at:
  2391 ;;		line 244 in file "newmain.c"
  2392 ;; Parameters:    Size  Location     Type
  2393 ;;  command         1    wreg     unsigned char 
  2394 ;; Auto vars:     Size  Location     Type
  2395 ;;  command         1    2[COMMON] unsigned char 
  2396 ;; Return value:  Size  Location     Type
  2397 ;;                  1    wreg      void 
  2398 ;; Registers used:
  2399 ;;		wreg, status,2, status,0
  2400 ;; Tracked objects:
  2401 ;;		On entry : 0/0
  2402 ;;		On exit  : 0/0
  2403 ;;		Unchanged: 0/0
  2404 ;; Data sizes:     COMMON   BANK0   BANK1   BANK2   BANK3   BANK4   BANK5   BANK6   BANK7   BANK8   BANK9  BANK10  BANK1
      +1  BANK12  BANK13  BANK14  BANK15  BANK16  BANK17  BANK18  BANK19  BANK20  BANK21  BANK22  BANK23  BANK24  BANK25  BANK2
      +6  BANK27  BANK28  BANK29  BANK30  BANK31  BANK32  BANK33  BANK34  BANK35  BANK36  BANK37  BANK38  BANK39  BANK40  BANK4
      +1  BANK42  BANK43  BANK44  BANK45  BANK46  BANK47  BANK48  BANK49  BANK50
  2405 ;;      Params:         0       0       0       0       0       0       0       0       0       0       0       0       
      +0       0       0       0       0       0       0       0       0       0       0       0       0       0       0       
      +0       0       0       0       0       0       0       0       0       0       0       0       0       0       0       
      +0       0       0       0       0       0       0       0       0       0
  2406 ;;      Locals:         1       0       0       0       0       0       0       0       0       0       0       0       
      +0       0       0       0       0       0       0       0       0       0       0       0       0       0       0       
      +0       0       0       0       0       0       0       0       0       0       0       0       0       0       0       
      +0       0       0       0       0       0       0       0       0       0
  2407 ;;      Temps:          2       0       0       0       0       0       0       0       0       0       0       0       
      +0       0       0       0       0       0       0       0       0       0       0       0       0       0       0       
      +0       0       0       0       0       0       0       0       0       0       0       0       0       0       0       
      +0       0       0       0       0       0       0       0       0       0
  2408 ;;      Totals:         3       0       0       0       0       0       0       0       0       0       0       0       
      +0       0       0       0       0       0       0       0       0       0       0       0       0       0       0       
      +0       0       0       0       0       0       0       0       0       0       0       0       0       0       0       
      +0       0       0       0       0       0       0       0       0       0
  2409 ;;Total ram usage:        3 bytes
  2410 ;; Hardware stack levels used: 1
  2411 ;; This function calls:
  2412 ;;		Nothing
  2413 ;; This function is called by:
  2414 ;;		_main
  2415 ;;		_LCD_Init
  2416 ;;		_LCD_Clear
  2417 ;; This function uses a non-reentrant model
  2418 ;;
  2419                           
  2420     0652                     _LCD_Cmd:	
  2421                           ;psect for function _LCD_Cmd
  2422                           
  2423                           
  2424                           ;incstack = 0
  2425                           ; Regs used in _LCD_Cmd: [wreg+status,2+status,0]
  2426                           ;LCD_Cmd@command stored from wreg
  2427     0652  00F2               	movwf	LCD_Cmd@command
  2428     0653                     l837:
  2429                           
  2430                           ;newmain.c: 245:     PORTCbits.RC0 = 0;
  2431     0653  0140               	movlb	0	; select bank0
  2432     0654  100E               	bcf	14,0	;volatile
  2433     0655                     l839:
  2434                           
  2435                           ;newmain.c: 246:     PORTC = (PORTC & 0x0F) | (command & 0xF0);
  2436     0655  30F0               	movlw	240
  2437     0656  0572               	andwf	LCD_Cmd@command,w
  2438     0657  00F0               	movwf	??_LCD_Cmd
  2439     0658  080E               	movf	14,w	;volatile
  2440     0659  390F               	andlw	15
  2441     065A  0470               	iorwf	??_LCD_Cmd,w
  2442     065B  008E               	movwf	14	;volatile
  2443     065C                     l841:
  2444                           
  2445                           ;newmain.c: 247:     PORTEbits.RE0 = 1;
  2446     065C  1410               	bsf	16,0	;volatile
  2447     065D                     l843:
  2448     065D                     l845:	
  2449                           ;newmain.c: 248:     _delay((unsigned long)((1)*(10000/4000000.0)));
  2450                           
  2451                           
  2452                           ;newmain.c: 249:     PORTEbits.RE0 = 0;
  2453     065D  0140               	movlb	0	; select bank0
  2454     065E  1010               	bcf	16,0	;volatile
  2455     065F                     l847:
  2456                           
  2457                           ;newmain.c: 250:     _delay((unsigned long)((200)*(10000/4000000.0)));
  2458                           ;newmain.c: 251:     PORTC = (PORTC & 0x0F) | ((command << 4) & 0xF0);
  2459     065F  0872               	movf	LCD_Cmd@command,w
  2460     0660  00F0               	movwf	??_LCD_Cmd
  2461     0661  3004               	movlw	4
  2462     0662                     u15:
  2463     0662  35F0               	lslf	??_LCD_Cmd,f
  2464     0663  0B89               	decfsz	9,f
  2465     0664  2E62               	goto	u15
  2466     0665  30F0               	movlw	240
  2467     0666  0570               	andwf	??_LCD_Cmd,w
  2468     0667  00F1               	movwf	??_LCD_Cmd+1
  2469     0668  0140               	movlb	0	; select bank0
  2470     0669  080E               	movf	14,w	;volatile
  2471     066A  390F               	andlw	15
  2472     066B  0471               	iorwf	??_LCD_Cmd+1,w
  2473     066C  008E               	movwf	14	;volatile
  2474     066D                     l849:
  2475                           
  2476                           ;newmain.c: 252:     PORTEbits.RE0 = 1;
  2477     066D  1410               	bsf	16,0	;volatile
  2478     066E                     l851:
  2479     066E                     l853:	
  2480                           ;newmain.c: 253:     _delay((unsigned long)((1)*(10000/4000000.0)));
  2481                           
  2482                           
  2483                           ;newmain.c: 254:     PORTEbits.RE0 = 0;
  2484     066E  0140               	movlb	0	; select bank0
  2485     066F  1010               	bcf	16,0	;volatile
  2486     0670                     l855:
  2487                           
  2488                           ;newmain.c: 255:     _delay((unsigned long)((2)*(10000/4000.0)));
  2489     0670  3200               	nop2	;2 cycle nop
  2490     0671  3200               	nop2	;2 cycle nop
  2491     0672  0000               	nop
  2492     0673                     l187:
  2493     0673  0008               	return
  2494     0674                     __end_of_LCD_Cmd:
  2495                           
  2496                           	psect	text7
  2497     0607                     __ptext7:	
  2498 ;; *************** function _ADC_Read *****************
  2499 ;; Defined at:
  2500 ;;		line 334 in file "newmain.c"
  2501 ;; Parameters:    Size  Location     Type
  2502 ;;  channel         1    wreg     unsigned char 
  2503 ;; Auto vars:     Size  Location     Type
  2504 ;;  channel         1    4[COMMON] unsigned char 
  2505 ;;  result          2    2[COMMON] unsigned int 
  2506 ;; Return value:  Size  Location     Type
  2507 ;;                  2    0[COMMON] unsigned int 
  2508 ;; Registers used:
  2509 ;;		wreg
  2510 ;; Tracked objects:
  2511 ;;		On entry : 0/0
  2512 ;;		On exit  : 0/0
  2513 ;;		Unchanged: 0/0
  2514 ;; Data sizes:     COMMON   BANK0   BANK1   BANK2   BANK3   BANK4   BANK5   BANK6   BANK7   BANK8   BANK9  BANK10  BANK1
      +1  BANK12  BANK13  BANK14  BANK15  BANK16  BANK17  BANK18  BANK19  BANK20  BANK21  BANK22  BANK23  BANK24  BANK25  BANK2
      +6  BANK27  BANK28  BANK29  BANK30  BANK31  BANK32  BANK33  BANK34  BANK35  BANK36  BANK37  BANK38  BANK39  BANK40  BANK4
      +1  BANK42  BANK43  BANK44  BANK45  BANK46  BANK47  BANK48  BANK49  BANK50
  2515 ;;      Params:         2       0       0       0       0       0       0       0       0       0       0       0       
      +0       0       0       0       0       0       0       0       0       0       0       0       0       0       0       
      +0       0       0       0       0       0       0       0       0       0       0       0       0       0       0       
      +0       0       0       0       0       0       0       0       0       0
  2516 ;;      Locals:         3       0       0       0       0       0       0       0       0       0       0       0       
      +0       0       0       0       0       0       0       0       0       0       0       0       0       0       0       
      +0       0       0       0       0       0       0       0       0       0       0       0       0       0       0       
      +0       0       0       0       0       0       0       0       0       0
  2517 ;;      Temps:          0       0       0       0       0       0       0       0       0       0       0       0       
      +0       0       0       0       0       0       0       0       0       0       0       0       0       0       0       
      +0       0       0       0       0       0       0       0       0       0       0       0       0       0       0       
      +0       0       0       0       0       0       0       0       0       0
  2518 ;;      Totals:         5       0       0       0       0       0       0       0       0       0       0       0       
      +0       0       0       0       0       0       0       0       0       0       0       0       0       0       0       
      +0       0       0       0       0       0       0       0       0       0       0       0       0       0       0       
      +0       0       0       0       0       0       0       0       0       0
  2519 ;;Total ram usage:        5 bytes
  2520 ;; Hardware stack levels used: 1
  2521 ;; This function calls:
  2522 ;;		Nothing
  2523 ;; This function is called by:
  2524 ;;		_main
  2525 ;; This function uses a non-reentrant model
  2526 ;;
  2527                           
  2528     0607                     _ADC_Read:	
  2529                           ;psect for function _ADC_Read
  2530                           
  2531                           
  2532                           ;incstack = 0
  2533                           ; Regs used in _ADC_Read: [wreg]
  2534                           ;ADC_Read@channel stored from wreg
  2535     0607  00F4               	movwf	ADC_Read@channel
  2536     0608                     l1113:
  2537                           
  2538                           ;newmain.c: 336:     unsigned int result;;newmain.c: 337:      ADPCH = channel;
  2539     0608  0874               	movf	ADC_Read@channel,w
  2540     0609  0141               	movlb	1	; select bank1
  2541     060A  009E               	movwf	30	;volatile
  2542     060B                     l1115:
  2543     060B                     l1117:	
  2544                           ;newmain.c: 338:     _delay((unsigned long)((2)*(10000/4000000.0)));
  2545                           
  2546                           
  2547                           ;newmain.c: 340:     ADCON0bits.GO = 1;
  2548     060B  0141               	movlb	1	; select bank1
  2549     060C  1413               	bsf	19,0	;volatile
  2550     060D                     l214:	
  2551                           ;newmain.c: 343:     while (ADCON0bits.GO);
  2552                           
  2553     060D  1813               	btfsc	19,0	;volatile
  2554     060E  2E10               	goto	u471
  2555     060F  2E11               	goto	u470
  2556     0610                     u471:
  2557     0610  2E0D               	goto	l214
  2558     0611                     u470:
  2559     0611                     l1119:
  2560                           
  2561                           ;newmain.c: 344:     result = ((unsigned int)ADRESH << 8) | ADRESL;
  2562     0611  080D               	movf	13,w	;volatile
  2563     0612  00F3               	movwf	ADC_Read@result+1
  2564     0613  080C               	movf	12,w	;volatile
  2565     0614  00F2               	movwf	ADC_Read@result
  2566                           
  2567                           ;newmain.c: 346:     return(result);
  2568     0615  0873               	movf	ADC_Read@result+1,w
  2569     0616  00F1               	movwf	?_ADC_Read+1
  2570     0617  0872               	movf	ADC_Read@result,w
  2571     0618  00F0               	movwf	?_ADC_Read
  2572     0619                     l217:
  2573     0619  0008               	return
  2574     061A                     __end_of_ADC_Read:
  2575                           
  2576                           	psect	text8
  2577     05F9                     __ptext8:	
  2578 ;; *************** function _ADC_Init *****************
  2579 ;; Defined at:
  2580 ;;		line 318 in file "newmain.c"
  2581 ;; Parameters:    Size  Location     Type
  2582 ;;		None
  2583 ;; Auto vars:     Size  Location     Type
  2584 ;;		None
  2585 ;; Return value:  Size  Location     Type
  2586 ;;                  1    wreg      void 
  2587 ;; Registers used:
  2588 ;;		wreg, status,2
  2589 ;; Tracked objects:
  2590 ;;		On entry : 0/0
  2591 ;;		On exit  : 0/0
  2592 ;;		Unchanged: 0/0
  2593 ;; Data sizes:     COMMON   BANK0   BANK1   BANK2   BANK3   BANK4   BANK5   BANK6   BANK7   BANK8   BANK9  BANK10  BANK1
      +1  BANK12  BANK13  BANK14  BANK15  BANK16  BANK17  BANK18  BANK19  BANK20  BANK21  BANK22  BANK23  BANK24  BANK25  BANK2
      +6  BANK27  BANK28  BANK29  BANK30  BANK31  BANK32  BANK33  BANK34  BANK35  BANK36  BANK37  BANK38  BANK39  BANK40  BANK4
      +1  BANK42  BANK43  BANK44  BANK45  BANK46  BANK47  BANK48  BANK49  BANK50
  2594 ;;      Params:         0       0       0       0       0       0       0       0       0       0       0       0       
      +0       0       0       0       0       0       0       0       0       0       0       0       0       0       0       
      +0       0       0       0       0       0       0       0       0       0       0       0       0       0       0       
      +0       0       0       0       0       0       0       0       0       0
  2595 ;;      Locals:         0       0       0       0       0       0       0       0       0       0       0       0       
      +0       0       0       0       0       0       0       0       0       0       0       0       0       0       0       
      +0       0       0       0       0       0       0       0       0       0       0       0       0       0       0       
      +0       0       0       0       0       0       0       0       0       0
  2596 ;;      Temps:          0       0       0       0       0       0       0       0       0       0       0       0       
      +0       0       0       0       0       0       0       0       0       0       0       0       0       0       0       
      +0       0       0       0       0       0       0       0       0       0       0       0       0       0       0       
      +0       0       0       0       0       0       0       0       0       0
  2597 ;;      Totals:         0       0       0       0       0       0       0       0       0       0       0       0       
      +0       0       0       0       0       0       0       0       0       0       0       0       0       0       0       
      +0       0       0       0       0       0       0       0       0       0       0       0       0       0       0       
      +0       0       0       0       0       0       0       0       0       0
  2598 ;;Total ram usage:        0 bytes
  2599 ;; Hardware stack levels used: 1
  2600 ;; This function calls:
  2601 ;;		Nothing
  2602 ;; This function is called by:
  2603 ;;		_main
  2604 ;; This function uses a non-reentrant model
  2605 ;;
  2606                           
  2607     05F9                     _ADC_Init:	
  2608                           ;psect for function _ADC_Init
  2609                           
  2610     05F9                     l891:	
  2611                           ;incstack = 0
  2612                           ; Regs used in _ADC_Init: [wreg+status,2]
  2613                           
  2614                           
  2615                           ;newmain.c: 321:     ANSELA = 0b00001000;
  2616     05F9  3008               	movlw	8
  2617     05FA  017E               	movlb	62	; select bank62
  2618     05FB  00B8               	movwf	56	;volatile
  2619                           
  2620                           ;newmain.c: 322:     TRISA = 0b11111111;
  2621     05FC  30FF               	movlw	255
  2622     05FD  0140               	movlb	0	; select bank0
  2623     05FE  0091               	movwf	17	;volatile
  2624     05FF                     l893:
  2625                           
  2626                           ;newmain.c: 323:     ADREF = 0b00000000;
  2627     05FF  0141               	movlb	1	; select bank1
  2628     0600  019A               	clrf	26	;volatile
  2629     0601                     l895:
  2630                           
  2631                           ;newmain.c: 324:     ADCLK = 0b00000011;
  2632     0601  3003               	movlw	3
  2633     0602  0098               	movwf	24	;volatile
  2634                           
  2635                           ;newmain.c: 325:     ADACQ = 0b00000000;
  2636     0603  019D               	clrf	29	;volatile
  2637     0604                     l897:
  2638                           
  2639                           ;newmain.c: 326:     ADCON0 = 0b10000100;
  2640     0604  3084               	movlw	132
  2641     0605  0093               	movwf	19	;volatile
  2642     0606                     l899:
  2643     0606                     l211:	
  2644                           ;newmain.c: 330:     _delay((unsigned long)((20)*(10000/4000000.0)));
  2645                           
  2646     0606  0008               	return
  2647     0607                     __end_of_ADC_Init:
  2648     007E                     btemp	set	126	;btemp
  2649     007E                     wtemp0	set	126
  2650                           
  2651                           	psect	config
  2652                           
  2653                           ;Config register CONFIG1 @ 0x8007
  2654                           ;	External Oscillator mode selection bits
  2655                           ;	FEXTOSC = OFF, Oscillator not enabled
  2656                           ;	Power-up default value for COSC bits
  2657                           ;	RSTOSC = HFINT1, HFINTOSC (1MHz)
  2658                           ;	Clock Out Enable bit
  2659                           ;	CLKOUTEN = OFF, CLKOUT function is disabled; i/o or oscillator function on OSC2
  2660                           ;	Clock Switch Enable bit
  2661                           ;	CSWEN = ON, Writing to NOSC and NDIV is allowed
  2662                           ;	Fail-Safe Clock Monitor Enable bit
  2663                           ;	FCMEN = ON, FSCM timer enabled
  2664     8007                     	org	32775
  2665     8007  3FEC               	dw	16364
  2666                           
  2667                           ;Config register CONFIG2 @ 0x8008
  2668                           ;	Master Clear Enable bit
  2669                           ;	MCLRE = ON, MCLR pin is Master Clear function
  2670                           ;	Power-up Timer Enable bit
  2671                           ;	PWRTE = OFF, PWRT disabled
  2672                           ;	Low-Power BOR enable bit
  2673                           ;	LPBOREN = OFF, ULPBOR disabled
  2674                           ;	Brown-out reset enable bits
  2675                           ;	BOREN = ON, Brown-out Reset Enabled, SBOREN bit is ignored
  2676                           ;	Brown-out Reset Voltage Selection
  2677                           ;	BORV = LO, Brown-out Reset Voltage (VBOR) set to 1.9V on LF, and 2.45V on F Devices
  2678                           ;	Zero-cross detect disable
  2679                           ;	ZCD = OFF, Zero-cross detect circuit is disabled at POR.
  2680                           ;	Peripheral Pin Select one-way control
  2681                           ;	PPS1WAY = ON, The PPSLOCK bit can be cleared and set only once in software
  2682                           ;	Stack Overflow/Underflow Reset Enable bit
  2683                           ;	STVREN = ON, Stack Overflow or Underflow will cause a reset
  2684                           ;	Background Debugger
  2685                           ;	DEBUG = 0x1, unprogrammed default
  2686     8008                     	org	32776
  2687     8008  3FFF               	dw	16383
  2688                           
  2689                           ;Config register CONFIG3 @ 0x8009
  2690                           ;	WDT Period Select bits
  2691                           ;	WDTCPS = WDTCPS_31, Divider ratio 1:65536; software control of WDTPS
  2692                           ;	WDT operating mode
  2693                           ;	WDTE = OFF, WDT Disabled, SWDTEN is ignored
  2694                           ;	WDT Window Select bits
  2695                           ;	WDTCWS = WDTCWS_7, window always open (100%); software control; keyed access not requi
      +                          red
  2696                           ;	WDT input clock selector
  2697                           ;	WDTCCS = SC, Software Control
  2698     8009                     	org	32777
  2699     8009  3F9F               	dw	16287
  2700                           
  2701                           ;Config register CONFIG4 @ 0x800A
  2702                           ;	UserNVM self-write protection bits
  2703                           ;	WRT = OFF, Write protection off
  2704                           ;	Scanner Enable bit
  2705                           ;	SCANE = available, Scanner module is available for use
  2706                           ;	Low Voltage Programming Enable bit
  2707                           ;	LVP = ON, Low Voltage programming enabled. MCLR/Vpp pin function is MCLR.
  2708     800A                     	org	32778
  2709     800A  3FFF               	dw	16383
  2710                           
  2711                           ;Config register CONFIG5 @ 0x800B
  2712                           ;	UserNVM Program memory code protection bit
  2713                           ;	CP = OFF, Program Memory code protection disabled
  2714                           ;	DataNVM code protection bit
  2715                           ;	CPD = OFF, Data EEPROM code protection disabled
  2716     800B                     	org	32779
  2717     800B  3FFF               	dw	16383

Data Sizes:
    Strings     27
    Constant    16
    Data        2
    BSS         6
    Persistent  32
    Stack       0

Auto Spaces:
    Space          Size  Autos    Used
    COMMON           14      7      13
    BANK0            80      0       2
    BANK1            80      0       0
    BANK2            80      0       0
    BANK3            80      0       0
    BANK4            80      0       0
    BANK5            80      0       0
    BANK6            80      0       0
    BANK7            80      0       0
    BANK8            80      0       0
    BANK9            80      0       0
    BANK10           80      0       0
    BANK11           80      0       0
    BANK12           80      0       0
    BANK13           80      0       0
    BANK14           80      0       0
    BANK15           80      0       0
    BANK16           80      0       0
    BANK17           80      0       0
    BANK18           80      0       0
    BANK19           80      0       0
    BANK20           80      0       0
    BANK21           80      0       0
    BANK22           80      0       0
    BANK23           80      0       0
    BANK24           80      0       0
    BANK25           80      0       0
    BANK26           80      0       0
    BANK27           80      0       0
    BANK28           80      0       0
    BANK29           80      0       0
    BANK30           80      0       0
    BANK31           80      0       0
    BANK32           80      0       0
    BANK33           80      0       0
    BANK34           80      0       0
    BANK35           80      0       0
    BANK36           80      0       0
    BANK37           80      0       0
    BANK38           80      0       0
    BANK39           80      0       0
    BANK40           80      0       0
    BANK41           80      0       0
    BANK42           80      0       0
    BANK43           80      0       0
    BANK44           80      0       0
    BANK45           80      0       0
    BANK46           80      0       0
    BANK47           80      0       0
    BANK48           80      0       0
    BANK49           80      0       0
    BANK50           80      0       0

Pointer List with Targets:

    vfprintf$2	PTR PTR void  size(1) Largest target is 1
		 -> sprintf@ap(COMMON[1]), 

    vfprintf$1	PTR const unsigned char  size(2) Largest target is 6
		 -> STR_4(CODE[6]), STR_3(CODE[6]), STR_2(CODE[6]), 

    vfprintf$0	PTR struct _IO_FILE size(1) Largest target is 11
		 -> sprintf@f(COMMON[11]), 

    S810$source	PTR const unsigned char  size(2) Largest target is 0

    f...source	PTR const unsigned char  size(2) Largest target is 0

    S810$buffer	PTR unsigned char  size(2) Largest target is 0

    f...buffer	PTR unsigned char  size(2) Largest target is 0

    LCD_String@text	PTR const unsigned char  size(2) Largest target is 15
		 -> button_press_show@buffer(COMMON[5]), Display_Temperature@buffer(COMMON[6]), Display_Oxygen_Level@buffer(COMMON[5]), STR_1(CODE[15]), 


Critical Paths under _main in COMMON

    _main->_LCD_String
    _LCD_String->_LCD_Char
    _LCD_Init->_LCD_Cmd
    _LCD_Clear->_LCD_Cmd

Critical Paths under _main in BANK0

    None.

Critical Paths under _main in BANK1

    None.

Critical Paths under _main in BANK2

    None.

Critical Paths under _main in BANK3

    None.

Critical Paths under _main in BANK4

    None.

Critical Paths under _main in BANK5

    None.

Critical Paths under _main in BANK6

    None.

Critical Paths under _main in BANK7

    None.

Critical Paths under _main in BANK8

    None.

Critical Paths under _main in BANK9

    None.

Critical Paths under _main in BANK10

    None.

Critical Paths under _main in BANK11

    None.

Critical Paths under _main in BANK12

    None.

Critical Paths under _main in BANK13

    None.

Critical Paths under _main in BANK14

    None.

Critical Paths under _main in BANK15

    None.

Critical Paths under _main in BANK16

    None.

Critical Paths under _main in BANK17

    None.

Critical Paths under _main in BANK18

    None.

Critical Paths under _main in BANK19

    None.

Critical Paths under _main in BANK20

    None.

Critical Paths under _main in BANK21

    None.

Critical Paths under _main in BANK22

    None.

Critical Paths under _main in BANK23

    None.

Critical Paths under _main in BANK24

    None.

Critical Paths under _main in BANK25

    None.

Critical Paths under _main in BANK26

    None.

Critical Paths under _main in BANK27

    None.

Critical Paths under _main in BANK28

    None.

Critical Paths under _main in BANK29

    None.

Critical Paths under _main in BANK30

    None.

Critical Paths under _main in BANK31

    None.

Critical Paths under _main in BANK32

    None.

Critical Paths under _main in BANK33

    None.

Critical Paths under _main in BANK34

    None.

Critical Paths under _main in BANK35

    None.

Critical Paths under _main in BANK36

    None.

Critical Paths under _main in BANK37

    None.

Critical Paths under _main in BANK38

    None.

Critical Paths under _main in BANK39

    None.

Critical Paths under _main in BANK40

    None.

Critical Paths under _main in BANK41

    None.

Critical Paths under _main in BANK42

    None.

Critical Paths under _main in BANK43

    None.

Critical Paths under _main in BANK44

    None.

Critical Paths under _main in BANK45

    None.

Critical Paths under _main in BANK46

    None.

Critical Paths under _main in BANK47

    None.

Critical Paths under _main in BANK48

    None.

Critical Paths under _main in BANK49

    None.

Critical Paths under _main in BANK50

    None.

Call Graph Tables:

 ---------------------------------------------------------------------------------
 (Depth) Function   	        Calls       Base Space   Used Autos Params    Refs
 ---------------------------------------------------------------------------------
 (0) _main                                                 1     1      0     589
                                              6 COMMON     1     1      0
                           _ADC_Init
                           _ADC_Read
                           _LCD_Char
                          _LCD_Clear
                            _LCD_Cmd
                           _LCD_Init
                         _LCD_String
                     _keypad_scanner
 ---------------------------------------------------------------------------------
 (1) _keypad_scanner                                       0     0      0       0
 ---------------------------------------------------------------------------------
 (1) _LCD_String                                           3     1      2     379
                                              3 COMMON     3     1      2
                           _LCD_Char
 ---------------------------------------------------------------------------------
 (2) _LCD_Char                                             3     3      0      30
                                              0 COMMON     3     3      0
 ---------------------------------------------------------------------------------
 (1) _LCD_Init                                             0     0      0      30
                            _LCD_Cmd
 ---------------------------------------------------------------------------------
 (1) _LCD_Clear                                            0     0      0      30
                            _LCD_Cmd
 ---------------------------------------------------------------------------------
 (2) _LCD_Cmd                                              3     3      0      30
                                              0 COMMON     3     3      0
 ---------------------------------------------------------------------------------
 (1) _ADC_Read                                             5     3      2      45
                                              0 COMMON     5     3      2
 ---------------------------------------------------------------------------------
 (1) _ADC_Init                                             0     0      0       0
 ---------------------------------------------------------------------------------
 Estimated maximum stack depth 2
 ---------------------------------------------------------------------------------

 Call Graph Graphs:

 _main (ROOT)
   _ADC_Init
   _ADC_Read
   _LCD_Char
   _LCD_Clear
     _LCD_Cmd
   _LCD_Cmd
   _LCD_Init
     _LCD_Cmd
   _LCD_String
     _LCD_Char
   _keypad_scanner

 Address spaces:
Name               Size   Autos  Total    Cost      Usage
BIGRAM             FF0      0       0       0        0.0%
EEDATA             100      0       0       0        0.0%
NULL                 0      0       0       0        0.0%
CODE                 0      0       0       0        0.0%
BITCOMMON            E      0       0       1        0.0%
BITSFR0              0      0       0       1        0.0%
SFR0                 0      0       0       1        0.0%
COMMON               E      7       D       2       92.9%
BITSFR1              0      0       0       2        0.0%
SFR1                 0      0       0       2        0.0%
BITSFR2              0      0       0       3        0.0%
SFR2                 0      0       0       3        0.0%
STACK                0      0       0       3        0.0%
BITBANK0            50      0       0       4        0.0%
BITSFR3              0      0       0       4        0.0%
SFR3                 0      0       0       4        0.0%
BANK0               50      0       2       5        2.5%
BITSFR4              0      0       0       5        0.0%
SFR4                 0      0       0       5        0.0%
BITBANK1            50      0       0       6        0.0%
BITSFR5              0      0       0       6        0.0%
SFR5                 0      0       0       6        0.0%
BANK1               50      0       0       7        0.0%
BITSFR6              0      0       0       7        0.0%
SFR6                 0      0       0       7        0.0%
BITBANK2            50      0       0       8        0.0%
BITSFR7              0      0       0       8        0.0%
SFR7                 0      0       0       8        0.0%
BANK2               50      0       0       9        0.0%
BITSFR8              0      0       0       9        0.0%
SFR8                 0      0       0       9        0.0%
BITBANK3            50      0       0      10        0.0%
BITSFR9              0      0       0      10        0.0%
SFR9                 0      0       0      10        0.0%
BANK3               50      0       0      11        0.0%
BITSFR10             0      0       0      11        0.0%
SFR10                0      0       0      11        0.0%
BITBANK4            50      0       0      12        0.0%
BITSFR11             0      0       0      12        0.0%
SFR11                0      0       0      12        0.0%
BANK4               50      0       0      13        0.0%
BITSFR12             0      0       0      13        0.0%
SFR12                0      0       0      13        0.0%
BITBANK5            50      0       0      14        0.0%
BITSFR13             0      0       0      14        0.0%
SFR13                0      0       0      14        0.0%
BANK5               50      0       0      15        0.0%
BITSFR14             0      0       0      15        0.0%
SFR14                0      0       0      15        0.0%
BITBANK6            50      0       0      16        0.0%
BITSFR15             0      0       0      16        0.0%
SFR15                0      0       0      16        0.0%
BANK6               50      0       0      17        0.0%
BITSFR16             0      0       0      17        0.0%
SFR16                0      0       0      17        0.0%
BITBANK7            50      0       0      18        0.0%
BITSFR17             0      0       0      18        0.0%
SFR17                0      0       0      18        0.0%
BANK7               50      0       0      19        0.0%
BITSFR18             0      0       0      19        0.0%
SFR18                0      0       0      19        0.0%
BITBANK8            50      0       0      20        0.0%
BITSFR19             0      0       0      20        0.0%
SFR19                0      0       0      20        0.0%
BANK8               50      0       0      21        0.0%
BITSFR20             0      0       0      21        0.0%
SFR20                0      0       0      21        0.0%
BITBANK9            50      0       0      22        0.0%
BITSFR21             0      0       0      22        0.0%
SFR21                0      0       0      22        0.0%
BANK9               50      0       0      23        0.0%
BITSFR22             0      0       0      23        0.0%
SFR22                0      0       0      23        0.0%
BITBANK10           50      0       0      24        0.0%
BITSFR23             0      0       0      24        0.0%
SFR23                0      0       0      24        0.0%
BANK10              50      0       0      25        0.0%
BITSFR24             0      0       0      25        0.0%
SFR24                0      0       0      25        0.0%
BITBANK11           50      0       0      26        0.0%
BITSFR25             0      0       0      26        0.0%
SFR25                0      0       0      26        0.0%
BANK11              50      0       0      27        0.0%
BITSFR26             0      0       0      27        0.0%
SFR26                0      0       0      27        0.0%
BITSFR27             0      0       0      28        0.0%
SFR27                0      0       0      28        0.0%
ABS                  0      0       F      28        0.0%
BITBANK12           50      0       0      29        0.0%
BITSFR28             0      0       0      29        0.0%
SFR28                0      0       0      29        0.0%
BANK12              50      0       0      30        0.0%
BITSFR29             0      0       0      30        0.0%
SFR29                0      0       0      30        0.0%
BITBANK13           50      0       0      31        0.0%
BITSFR30             0      0       0      31        0.0%
SFR30                0      0       0      31        0.0%
BANK13              50      0       0      32        0.0%
BITSFR31             0      0       0      32        0.0%
SFR31                0      0       0      32        0.0%
BITBANK14           50      0       0      33        0.0%
BITSFR32             0      0       0      33        0.0%
SFR32                0      0       0      33        0.0%
BANK14              50      0       0      34        0.0%
BITSFR33             0      0       0      34        0.0%
SFR33                0      0       0      34        0.0%
BITBANK15           50      0       0      35        0.0%
BITSFR34             0      0       0      35        0.0%
SFR34                0      0       0      35        0.0%
BANK15              50      0       0      36        0.0%
BITSFR35             0      0       0      36        0.0%
SFR35                0      0       0      36        0.0%
BITBANK16           50      0       0      37        0.0%
BITSFR36             0      0       0      37        0.0%
SFR36                0      0       0      37        0.0%
BANK16              50      0       0      38        0.0%
BITSFR37             0      0       0      38        0.0%
SFR37                0      0       0      38        0.0%
BITBANK17           50      0       0      39        0.0%
BITSFR38             0      0       0      39        0.0%
SFR38                0      0       0      39        0.0%
BANK17              50      0       0      40        0.0%
BITSFR39             0      0       0      40        0.0%
SFR39                0      0       0      40        0.0%
BITBANK18           50      0       0      41        0.0%
BITSFR40             0      0       0      41        0.0%
SFR40                0      0       0      41        0.0%
BANK18              50      0       0      42        0.0%
BITSFR41             0      0       0      42        0.0%
SFR41                0      0       0      42        0.0%
BITBANK19           50      0       0      43        0.0%
BITSFR42             0      0       0      43        0.0%
SFR42                0      0       0      43        0.0%
BANK19              50      0       0      44        0.0%
BITSFR43             0      0       0      44        0.0%
SFR43                0      0       0      44        0.0%
BITBANK20           50      0       0      45        0.0%
BITSFR44             0      0       0      45        0.0%
SFR44                0      0       0      45        0.0%
BANK20              50      0       0      46        0.0%
BITSFR45             0      0       0      46        0.0%
SFR45                0      0       0      46        0.0%
BITBANK21           50      0       0      47        0.0%
BITSFR46             0      0       0      47        0.0%
SFR46                0      0       0      47        0.0%
BANK21              50      0       0      48        0.0%
BITSFR47             0      0       0      48        0.0%
SFR47                0      0       0      48        0.0%
BITBANK22           50      0       0      49        0.0%
BITSFR48             0      0       0      49        0.0%
SFR48                0      0       0      49        0.0%
BANK22              50      0       0      50        0.0%
BITSFR49             0      0       0      50        0.0%
SFR49                0      0       0      50        0.0%
BITBANK23           50      0       0      51        0.0%
BITSFR50             0      0       0      51        0.0%
SFR50                0      0       0      51        0.0%
BANK23              50      0       0      52        0.0%
BITSFR51             0      0       0      52        0.0%
SFR51                0      0       0      52        0.0%
BITBANK24           50      0       0      53        0.0%
BITSFR52             0      0       0      53        0.0%
SFR52                0      0       0      53        0.0%
BANK24              50      0       0      54        0.0%
BITSFR53             0      0       0      54        0.0%
SFR53                0      0       0      54        0.0%
BITBANK25           50      0       0      55        0.0%
BITSFR54             0      0       0      55        0.0%
SFR54                0      0       0      55        0.0%
BANK25              50      0       0      56        0.0%
BITSFR55             0      0       0      56        0.0%
SFR55                0      0       0      56        0.0%
BITBANK26           50      0       0      57        0.0%
BITSFR56             0      0       0      57        0.0%
SFR56                0      0       0      57        0.0%
BANK26              50      0       0      58        0.0%
BITSFR57             0      0       0      58        0.0%
SFR57                0      0       0      58        0.0%
BITSFR58             0      0       0      59        0.0%
SFR58                0      0       0      59        0.0%
DATA                 0      0       F      59        0.0%
BITBANK27           50      0       0      60        0.0%
BITSFR59             0      0       0      60        0.0%
SFR59                0      0       0      60        0.0%
BANK27              50      0       0      61        0.0%
BITSFR60             0      0       0      61        0.0%
SFR60                0      0       0      61        0.0%
BITBANK28           50      0       0      62        0.0%
BITSFR61             0      0       0      62        0.0%
SFR61                0      0       0      62        0.0%
BANK28              50      0       0      63        0.0%
BITSFR62             0      0       0      63        0.0%
SFR62                0      0       0      63        0.0%
BITBANK29           50      0       0      64        0.0%
BITSFR63             0      0       0      64        0.0%
SFR63                0      0       0      64        0.0%
BANK29              50      0       0      65        0.0%
BITBANK30           50      0       0      66        0.0%
BANK30              50      0       0      67        0.0%
BITBANK31           50      0       0      68        0.0%
BANK31              50      0       0      69        0.0%
BITBANK32           50      0       0      70        0.0%
BANK32              50      0       0      71        0.0%
BITBANK33           50      0       0      72        0.0%
BANK33              50      0       0      73        0.0%
BITBANK34           50      0       0      74        0.0%
BANK34              50      0       0      75        0.0%
BITBANK35           50      0       0      76        0.0%
BANK35              50      0       0      77        0.0%
BITBANK36           50      0       0      78        0.0%
BANK36              50      0       0      79        0.0%
BITBANK37           50      0       0      80        0.0%
BANK37              50      0       0      81        0.0%
BITBANK38           50      0       0      82        0.0%
BANK38              50      0       0      83        0.0%
BITBANK39           50      0       0      84        0.0%
BANK39              50      0       0      85        0.0%
BITBANK40           50      0       0      86        0.0%
BANK40              50      0       0      87        0.0%
BITBANK41           50      0       0      88        0.0%
BANK41              50      0       0      89        0.0%
BITBANK42           50      0       0      90        0.0%
BANK42              50      0       0      91        0.0%
BITBANK43           50      0       0      92        0.0%
BANK43              50      0       0      93        0.0%
BITBANK44           50      0       0      94        0.0%
BANK44              50      0       0      95        0.0%
BITBANK45           50      0       0      96        0.0%
BANK45              50      0       0      97        0.0%
BITBANK46           50      0       0      98        0.0%
BANK46              50      0       0      99        0.0%
BITBANK47           50      0       0     100        0.0%
BANK47              50      0       0     101        0.0%
BITBANK48           50      0       0     102        0.0%
BANK48              50      0       0     103        0.0%
BITBANK49           50      0       0     104        0.0%
BANK49              50      0       0     105        0.0%
BITBANK50           50      0       0     106        0.0%
BANK50              50      0       0     107        0.0%


Microchip Technology PIC Macro Assembler V2.41 build 20230208172133 
Symbol Table                                                                                   Sun Jul 30 19:33:03 2023

__end_ofkeypad_get_key@keypad 0810                            l95 06B7                            l99 06DA  
                          u15 0662                            u40 06FA                            u25 0684  
                          u41 06F9                            u50 0704                            u51 0703  
                          u60 070D                            u61 070C                            u70 0713  
                          u71 0712                            u80 071C                            u81 071B  
                          u90 0722                            u91 0721                   ?_LCD_String 0073  
                         l110 0708                           l121 0740                           l113 071E  
                         l130 0757                           l122 0739                           l114 0717  
                         l211 0606                           l107 0700                           l108 07EE  
                         l141 078F                           l133 076D                           l125 074F  
                         l117 072D                           l109 070F                           l214 060D  
                         l150 07A6                           l142 0788                           l134 0766  
                         l126 0748                           l118 0726                           l217 0619  
                         l161 07DE                           l153 07C0                           l145 079E  
                         l137 0780                           l129 075E                           l162 07D7  
                         l154 07B9                           l146 0797                           l138 0779  
                         l157 07CF                           l149 07AD                           l190 0695  
                         l166 07E6                           l158 07C8                           l184 0651  
                         l187 0673                           l196 0630                           l199 05F8  
                         l901 05F1                           l903 05F5                           l841 065C  
                         l921 070D                           l913 06F1                           l851 066E  
                         l843 065D                           l931 0722                           l915 06FA  
                         l853 066E                           l845 065D                           l837 0653  
                         l861 067E                           l933 072B                           l925 0713  
                         l855 0670                           l847 065F                           l839 0655  
                         l871 0690                           l863 067F                           l951 075C  
                         l943 0744                           l927 071C                           l919 0704  
                         l849 066D                           l881 063D                           l873 0690  
                         l865 067F                           l857 0675                           l961 0775  
                         l945 074D                           l937 0735                           l891 05F9  
                         l883 0641                           l875 0692                           l867 0681  
                         l859 0677                           l963 077E                           l955 0762  
                         l939 073E                           l893 05FF                           l885 0645  
                         l877 0631                           l869 068F                           l981 07AB  
                         l973 0793                           l957 076B                           l949 0753  
                         l895 0601                           l887 0649                           l879 0639  
                         l991 07C4                           l975 079C                           l967 0784  
                         l897 0604                           l889 064D                           l993 07CD  
                         l985 07B5                           l969 078D                           l899 0606  
                         l987 07BE                           l979 07A2                           l997 07D3  
                         l999 07DC                           _RD0 0078                           _RD1 0079  
                         _RD2 007A                           _RD3 007B                           u100 072B  
                         _RD4 007C                           u101 072A                           _RD5 007D  
                         u110 0735                           _RD6 007E                           u111 0734  
                         _RD7 007F                           u200 077E                           u120 073E  
                         u201 077D                           u121 073D                           u210 0784  
                         u130 0744                           u211 0783                           u131 0743  
                         u300 07CD                           u220 078D                           u140 074D  
                         u301 07CC                           u221 078C                           u141 074C  
                         u310 07D3                           u230 0793                           u150 0753  
                         u311 07D2                           u231 0792                           u151 0752  
                         u320 07DC                           u240 079C                           u160 075C  
                         u321 07DB                           u241 079B                           u161 075B  
                         u330 07E2                           u250 07A2                           u170 0762  
                         u331 07E1                           u251 07A1                           u171 0761  
                         u340 07EB                           u260 07AB                           u180 076B  
                         u500 06CC                           u341 07EA                           u261 07AA  
                         u181 076A                           u501 06CB                           u270 07B5  
                         u190 0775                           u510 06D5                           u271 07B4  
                         u191 0774                           u511 06D4                           u280 07BE  
                         u520 06DE                           u281 07BD                           u521 06DD  
                         u290 07C4                           u291 07C3                           u460 0630  
                         u461 062F                           u470 0611                           u471 0610  
                         u607 0745                           u480 06B3                           u617 0754  
                         u537 06B4                           u481 06B2                           u490 06BC  
                         u707 07E3                           u627 0763                           u547 06EB  
                         u491 06BB                           u717 063A                           u637 0776  
                         u557 06FB                           u647 0785                           u567 0705  
                         u657 0794                           u577 0714                           u667 07A3  
                         u587 0723                           u677 07B6                           u597 0736  
                         u687 07C5                           u697 07D4                           wreg 0009  
             __end_of_LCD_Cmd 0674                          l1003 07E2                          l1005 07EB  
                        l1111 0627                          l1113 0608                          l1105 061A  
                        l1009 07ED                          l1115 060B                          l1107 061B  
                        l1131 06A4                          l1123 0696                          l1117 060B  
                        l1109 0623                          l1141 06BC                          l1133 06A7  
                        l1125 069C                          l1119 0611                          l1151 06D5  
                        l1143 06C3                          l1135 06AA                          l1127 069F  
                        l1153 06DE                          l1145 06C7                          l1137 06AE  
                        l1129 06A2                          l1155 06E2                          l1147 06CC  
                        l1139 06B3                          l1157 06EA                          l1149 06D0  
                        STR_1 0810                          STR_2 081F                          STR_3 0825  
                        _WPUD 1F5A                          _main 0696                   _oxygenLevel 0079  
                        fsr0h 0005                          indf0 0000                          fsr0l 0004  
                        btemp 007E              __end_of_ADC_Init 0607              __end_of_ADC_Read 061A  
                        start 0002              __end_of_LCD_Char 0696              __end_of_LCD_Init 0652  
                LCD_Char@data 0072                         _ADACQ 009D                         ?_main 0070  
                       _ADCLK 0098                         _ADPCH 009E                         _ADREF 009A  
                       _PORTC 000E                         _PORTD 000F                         _TRISA 0011  
                       _TRISD 0014              ??_keypad_scanner 0070                         status 0003  
                       wtemp0 007E               __initialization 07EF                  __end_of_main 06F1  
                      ??_main 0076             __end_of_LCD_Clear 05F9                     ??_LCD_Cmd 0070  
                      _ADCON0 0093                        _ADRESH 008D                        _ADRESL 008C  
                      _ANSELA 1F38                        _ANSELD 1F59          keypad_get_key@keypad 0800  
             ADC_Read@channel 0074                  __pdataCOMMON 007B                     ?_ADC_Init 0070  
                   ?_ADC_Read 0070                     ?_LCD_Char 0070       __end_of__initialization 07FD  
                   ?_LCD_Init 0070                __pcstackCOMMON 0070                  ??_LCD_String 0075  
                  ??_ADC_Init 0070                    ??_ADC_Read 0072                    __pbssBANK0 0020  
              LCD_Cmd@command 0072                    ??_LCD_Char 0070                    ??_LCD_Init 0073  
          __end_of_LCD_String 0631                    __pmaintext 0696                       _LCD_Cmd 0652  
                     __ptext1 06F1                       __ptext2 061A                       __ptext3 0674  
                     __ptext4 0631                       __ptext5 05F1                       __ptext6 0652  
                     __ptext7 0607                       __ptext8 05F9                     _LCD_Clear 05F1  
                     main@key 0076          end_of_initialization 07FD                    _timerCount 0077  
                   _PORTAbits 000C                     _PORTBbits 000D                     _PORTCbits 000E  
                   _PORTDbits 000F                     _PORTEbits 0010                     _TRISCbits 0013  
                   _TRISEbits 0015                    ?_LCD_Clear 0070                 __pidataCOMMON 05EF  
         start_initialization 07EF                 _analog_choice 007B                ADC_Read@result 0072  
                    ?_LCD_Cmd 0070                   __pbssCOMMON 0077                     ___latbits 0004  
                 ??_LCD_Clear 0073                      _ADC_Init 05F9                      _ADC_Read 0607  
                    _LCD_Char 0674                      _LCD_Init 0631                _keypad_scanner 06F1  
                  _ADCON0bits 0093        __end_of_keypad_scanner 07EF                LCD_String@text 0073  
             ?_keypad_scanner 0070                    _LCD_String 061A                 __pstringtext1 0800  
               __pstringtext2 081F                 __pstringtext3 0825                 __pstringtext4 0000  
                 _temperature 0020  
